GAS LISTING /tmp/ccIfjRGV.s 			page 1


   1              		.file	"lcd.c"
   2              		.option nopic
   3              		.attribute arch, "rv32i2p0_m2p0_a2p0_c2p0"
   4              		.attribute unaligned_access, 0
   5              		.attribute stack_align, 16
   6              		.text
   7              	.Ltext0:
   8              		.cfi_sections	.debug_frame
   9              		.globl	__floatundidf
  10              		.globl	__floatunsidf
  11              		.globl	__divdf3
  12              		.globl	__muldf3
  13              		.globl	__ltdf2
  14              		.section	.text.lcd_delay_1ms,"ax",@progbits
  15              		.align	1
  16              		.globl	lcd_delay_1ms
  18              	lcd_delay_1ms:
  19              	.LFB2:
  20              		.file 1 "lcd.c"
   1:lcd.c         **** /*
   2:lcd.c         ****   Longan Nano LCD driver
   3:lcd.c         **** */
   4:lcd.c         **** 
   5:lcd.c         **** #include "lcd.h"
   6:lcd.c         **** #include "oledfont.h"
   7:lcd.c         **** 
   8:lcd.c         **** u16 BACK_COLOR;	// Background color
   9:lcd.c         **** 
  10:lcd.c         **** typedef struct{
  11:lcd.c         **** 	u8 configured;
  12:lcd.c         **** 	u8 inverted;
  13:lcd.c         **** 	u8 offset_x;
  14:lcd.c         **** 	u8 offset_y;
  15:lcd.c         **** }lcd_config_t;
  16:lcd.c         **** 
  17:lcd.c         **** lcd_config_t lcd_conf = {0};
  18:lcd.c         **** 
  19:lcd.c         **** 
  20:lcd.c         **** void lcd_delay_1ms(uint32_t count)
  21:lcd.c         **** {
  21              		.loc 1 21 1
  22              		.cfi_startproc
  23              	.LVL0:
  22:lcd.c         **** 	uint64_t start_mtime, delta_mtime;
  24              		.loc 1 22 2
  23:lcd.c         **** 
  24:lcd.c         **** 	// Don't start measuring until we see an mtime tick
  25:lcd.c         **** 	uint64_t tmp = get_timer_value();
  25              		.loc 1 25 2
  21:lcd.c         **** 	uint64_t start_mtime, delta_mtime;
  26              		.loc 1 21 1 is_stmt 0
  27 0000 7971     		addi	sp,sp,-48
  28              	.LCFI0:
  29              		.cfi_def_cfa_offset 48
  30 0002 4AD0     		sw	s2,32(sp)
  31 0004 4ECE     		sw	s3,28(sp)
  32 0006 5EC6     		sw	s7,12(sp)
GAS LISTING /tmp/ccIfjRGV.s 			page 2


  33 0008 06D6     		sw	ra,44(sp)
  34 000a 22D4     		sw	s0,40(sp)
  35 000c 26D2     		sw	s1,36(sp)
  36 000e 52CC     		sw	s4,24(sp)
  37 0010 56CA     		sw	s5,20(sp)
  38 0012 5AC8     		sw	s6,16(sp)
  39 0014 62C4     		sw	s8,8(sp)
  40 0016 66C2     		sw	s9,4(sp)
  41              		.cfi_offset 18, -16
  42              		.cfi_offset 19, -20
  43              		.cfi_offset 23, -36
  44              		.cfi_offset 1, -4
  45              		.cfi_offset 8, -8
  46              		.cfi_offset 9, -12
  47              		.cfi_offset 20, -24
  48              		.cfi_offset 21, -28
  49              		.cfi_offset 22, -32
  50              		.cfi_offset 24, -40
  51              		.cfi_offset 25, -44
  21:lcd.c         **** 	uint64_t start_mtime, delta_mtime;
  52              		.loc 1 21 1
  53 0018 AA8B     		mv	s7,a0
  54              		.loc 1 25 17
  55 001a 97000000 		call	get_timer_value
  55      E7800000 
  56              	.LVL1:
  57 0022 2A89     		mv	s2,a0
  58 0024 AE89     		mv	s3,a1
  59              	.LVL2:
  60              	.L2:
  26:lcd.c         **** 	do {
  61              		.loc 1 26 2 is_stmt 1 discriminator 1
  27:lcd.c         **** 	start_mtime = get_timer_value();
  62              		.loc 1 27 2 discriminator 1
  63              		.loc 1 27 16 is_stmt 0 discriminator 1
  64 0026 97000000 		call	get_timer_value
  64      E7800000 
  65              	.LVL3:
  66 002e 2A84     		mv	s0,a0
  67 0030 AE84     		mv	s1,a1
  68              	.LVL4:
  28:lcd.c         **** 	} while (start_mtime == tmp);
  69              		.loc 1 28 2 discriminator 1
  70 0032 6314A900 		bne	s2,a0,.L3
  71 0036 E388B9FE 		beq	s3,a1,.L2
  72              	.L3:
  73 003a B7070000 		lui	a5,%hi(.LC0)
  29:lcd.c         **** 
  30:lcd.c         **** 	do {
  31:lcd.c         **** 	delta_mtime = get_timer_value() - start_mtime;
  32:lcd.c         **** 	}while(delta_mtime <(SystemCoreClock/4000.0 *count ));
  74              		.loc 1 32 38 discriminator 1
  75 003e 03A90700 		lw	s2,%lo(.LC0)(a5)
  76              	.LVL5:
  77 0042 83A94700 		lw	s3,%lo(.LC0+4)(a5)
  78 0046 370B0000 		lui	s6,%hi(SystemCoreClock)
  79              	.L4:
GAS LISTING /tmp/ccIfjRGV.s 			page 3


  30:lcd.c         **** 	delta_mtime = get_timer_value() - start_mtime;
  80              		.loc 1 30 2 is_stmt 1 discriminator 1
  31:lcd.c         **** 	}while(delta_mtime <(SystemCoreClock/4000.0 *count ));
  81              		.loc 1 31 2 discriminator 1
  31:lcd.c         **** 	}while(delta_mtime <(SystemCoreClock/4000.0 *count ));
  82              		.loc 1 31 16 is_stmt 0 discriminator 1
  83 004a 97000000 		call	get_timer_value
  83      E7800000 
  84              	.LVL6:
  85 0052 AA87     		mv	a5,a0
  86              	.LVL7:
  31:lcd.c         **** 	}while(delta_mtime <(SystemCoreClock/4000.0 *count ));
  87              		.loc 1 31 14 discriminator 1
  88 0054 018D     		sub	a0,a0,s0
  89              	.LVL8:
  90 0056 B3B7A700 		sgtu	a5,a0,a5
  91              	.LVL9:
  92 005a 858D     		sub	a1,a1,s1
  93              		.loc 1 32 21 discriminator 1
  94 005c 9D8D     		sub	a1,a1,a5
  95 005e 97000000 		call	__floatundidf
  95      E7800000 
  96              	.LVL10:
  97 0066 2A8A     		mv	s4,a0
  98              		.loc 1 32 38 discriminator 1
  99 0068 03250B00 		lw	a0,%lo(SystemCoreClock)(s6)
 100              		.loc 1 32 21 discriminator 1
 101 006c AE8A     		mv	s5,a1
 102              		.loc 1 32 38 discriminator 1
 103 006e 97000000 		call	__floatunsidf
 103      E7800000 
 104              	.LVL11:
 105 0076 4A86     		mv	a2,s2
 106 0078 CE86     		mv	a3,s3
 107 007a 97000000 		call	__divdf3
 107      E7800000 
 108              	.LVL12:
 109 0082 2A8C     		mv	s8,a0
 110              		.loc 1 32 46 discriminator 1
 111 0084 5E85     		mv	a0,s7
 112              		.loc 1 32 38 discriminator 1
 113 0086 AE8C     		mv	s9,a1
 114              		.loc 1 32 46 discriminator 1
 115 0088 97000000 		call	__floatunsidf
 115      E7800000 
 116              	.LVL13:
 117 0090 2A86     		mv	a2,a0
 118 0092 AE86     		mv	a3,a1
 119 0094 6285     		mv	a0,s8
 120 0096 E685     		mv	a1,s9
 121 0098 97000000 		call	__muldf3
 121      E7800000 
 122              	.LVL14:
 123              		.loc 1 32 2 discriminator 1
 124 00a0 2A86     		mv	a2,a0
 125 00a2 AE86     		mv	a3,a1
 126 00a4 5285     		mv	a0,s4
GAS LISTING /tmp/ccIfjRGV.s 			page 4


 127 00a6 D685     		mv	a1,s5
 128 00a8 97000000 		call	__ltdf2
 128      E7800000 
 129              	.LVL15:
 130 00b0 E34D05F8 		blt	a0,zero,.L4
  33:lcd.c         **** }
 131              		.loc 1 33 1
 132 00b4 B250     		lw	ra,44(sp)
 133              		.cfi_restore 1
 134 00b6 2254     		lw	s0,40(sp)
 135              		.cfi_restore 8
 136              	.LVL16:
 137 00b8 9254     		lw	s1,36(sp)
 138              		.cfi_restore 9
 139 00ba 0259     		lw	s2,32(sp)
 140              		.cfi_restore 18
 141 00bc F249     		lw	s3,28(sp)
 142              		.cfi_restore 19
 143 00be 624A     		lw	s4,24(sp)
 144              		.cfi_restore 20
 145 00c0 D24A     		lw	s5,20(sp)
 146              		.cfi_restore 21
 147 00c2 424B     		lw	s6,16(sp)
 148              		.cfi_restore 22
 149 00c4 B24B     		lw	s7,12(sp)
 150              		.cfi_restore 23
 151              	.LVL17:
 152 00c6 224C     		lw	s8,8(sp)
 153              		.cfi_restore 24
 154 00c8 924C     		lw	s9,4(sp)
 155              		.cfi_restore 25
 156 00ca 4561     		addi	sp,sp,48
 157              	.LCFI1:
 158              		.cfi_def_cfa_offset 0
 159 00cc 8280     		jr	ra
 160              		.cfi_endproc
 161              	.LFE2:
 163              		.section	.text.LCD_WR_Queue,"ax",@progbits
 164              		.align	1
 165              		.globl	LCD_WR_Queue
 167              	LCD_WR_Queue:
 168              	.LFB4:
  34:lcd.c         **** 
  35:lcd.c         **** 
  36:lcd.c         **** 
  37:lcd.c         **** int r=0, w=0, queue[256]={0};                       // 256 Byte wr queue
  38:lcd.c         **** 
  39:lcd.c         **** void LCD_Wait_On_Queue(){
  40:lcd.c         **** 	while(r != w) LCD_WR_Queue();					//Blocks while emptying the queue
  41:lcd.c         **** }
  42:lcd.c         **** 
  43:lcd.c         **** void LCD_WR_Queue(){
 169              		.loc 1 43 20 is_stmt 1
 170              		.cfi_startproc
  44:lcd.c         ****     if (r!=w) {                                     // Buffer empty?
 171              		.loc 1 44 5
  43:lcd.c         ****     if (r!=w) {                                     // Buffer empty?
GAS LISTING /tmp/ccIfjRGV.s 			page 5


 172              		.loc 1 43 20 is_stmt 0
 173 0000 4111     		addi	sp,sp,-16
 174              	.LCFI2:
 175              		.cfi_def_cfa_offset 16
 176 0002 22C4     		sw	s0,8(sp)
 177              		.cfi_offset 8, -8
 178              		.loc 1 44 10
 179 0004 37040000 		lui	s0,%hi(.LANCHOR0)
 180 0008 13040400 		addi	s0,s0,%lo(.LANCHOR0)
 181              		.loc 1 44 8
 182 000c B7070000 		lui	a5,%hi(.LANCHOR1)
 183 0010 1840     		lw	a4,0(s0)
 184 0012 83A70700 		lw	a5,%lo(.LANCHOR1)(a5)
  43:lcd.c         ****     if (r!=w) {                                     // Buffer empty?
 185              		.loc 1 43 20
 186 0016 06C6     		sw	ra,12(sp)
 187 0018 26C2     		sw	s1,4(sp)
 188              		.cfi_offset 1, -4
 189              		.cfi_offset 9, -12
 190              		.loc 1 44 8
 191 001a 6309F708 		beq	a4,a5,.L9
  45:lcd.c         ****        if (spi_i2s_flag_get(SPI1,SPI_FLAG_TBE)) {   // ...no! Device redy?
 192              		.loc 1 45 8 is_stmt 1
 193              		.loc 1 45 12 is_stmt 0
 194 001e 37450040 		li	a0,1073758208
 195 0022 8945     		li	a1,2
 196 0024 13050580 		addi	a0,a0,-2048
 197 0028 97000000 		call	spi_i2s_flag_get
 197      E7800000 
 198              	.LVL18:
 199              		.loc 1 45 11
 200 0030 11E5     		bne	a0,zero,.L17
  46:lcd.c         ****           OLED_CS_Clr();                            // ......Yes! CS (again)
  47:lcd.c         ****           (queue[r]>=1<<8) ? OLED_DC_Set() : OLED_DC_Clr(); //    DC
  48:lcd.c         ****           spi_i2s_data_transmit(SPI1, queue[r++]&0xFF); //        Write!
  49:lcd.c         ****           r%=256;                                   //            Advance.
  50:lcd.c         ****         }                                           //       (No! Return!)
  51:lcd.c         ****     } else {
  52:lcd.c         ****         OLED_CS_Set();                              // ...yes! CS high, done!
  53:lcd.c         ****     }
  54:lcd.c         **** }
 201              		.loc 1 54 1
 202 0032 B240     		lw	ra,12(sp)
 203              		.cfi_remember_state
 204              		.cfi_restore 1
 205 0034 2244     		lw	s0,8(sp)
 206              		.cfi_restore 8
 207 0036 9244     		lw	s1,4(sp)
 208              		.cfi_restore 9
 209 0038 4101     		addi	sp,sp,16
 210              	.LCFI3:
 211              		.cfi_def_cfa_offset 0
 212 003a 8280     		jr	ra
 213              	.L17:
 214              	.LCFI4:
 215              		.cfi_restore_state
 216              	.LBB390:
GAS LISTING /tmp/ccIfjRGV.s 			page 6


 217              	.LBB391:
  46:lcd.c         ****           OLED_CS_Clr();                            // ......Yes! CS (again)
 218              		.loc 1 46 11 is_stmt 1
 219 003c 8965     		li	a1,8192
 220 003e 37150140 		li	a0,1073811456
 221 0042 97000000 		call	gpio_bit_reset
 221      E7800000 
 222              	.LVL19:
  47:lcd.c         ****           spi_i2s_data_transmit(SPI1, queue[r++]&0xFF); //        Write!
 223              		.loc 1 47 11
  47:lcd.c         ****           spi_i2s_data_transmit(SPI1, queue[r++]&0xFF); //        Write!
 224              		.loc 1 47 17 is_stmt 0
 225 004a 1C40     		lw	a5,0(s0)
 226 004c B7040000 		lui	s1,%hi(.LANCHOR2)
 227 0050 93840400 		addi	s1,s1,%lo(.LANCHOR2)
 228 0054 8A07     		slli	a5,a5,2
 229 0056 A697     		add	a5,s1,a5
  47:lcd.c         ****           spi_i2s_data_transmit(SPI1, queue[r++]&0xFF); //        Write!
 230              		.loc 1 47 44
 231 0058 9843     		lw	a4,0(a5)
 232 005a 9307F00F 		li	a5,255
  47:lcd.c         ****           spi_i2s_data_transmit(SPI1, queue[r++]&0xFF); //        Write!
 233              		.loc 1 47 30
 234 005e A165     		li	a1,32768
 235 0060 37150140 		li	a0,1073811456
  47:lcd.c         ****           spi_i2s_data_transmit(SPI1, queue[r++]&0xFF); //        Write!
 236              		.loc 1 47 44
 237 0064 63CFE704 		bgt	a4,a5,.L18
  47:lcd.c         ****           spi_i2s_data_transmit(SPI1, queue[r++]&0xFF); //        Write!
 238              		.loc 1 47 46
 239 0068 97000000 		call	gpio_bit_reset
 239      E7800000 
 240              	.LVL20:
 241              	.L12:
  48:lcd.c         ****           r%=256;                                   //            Advance.
 242              		.loc 1 48 11 is_stmt 1
  48:lcd.c         ****           r%=256;                                   //            Advance.
 243              		.loc 1 48 46 is_stmt 0
 244 0070 1C40     		lw	a5,0(s0)
  48:lcd.c         ****           r%=256;                                   //            Advance.
 245              		.loc 1 48 11
 246 0072 37450040 		li	a0,1073758208
 247 0076 13050580 		addi	a0,a0,-2048
  48:lcd.c         ****           r%=256;                                   //            Advance.
 248              		.loc 1 48 44
 249 007a 13972700 		slli	a4,a5,2
 250 007e BA94     		add	s1,s1,a4
  48:lcd.c         ****           r%=256;                                   //            Advance.
 251              		.loc 1 48 11
 252 0080 83C50400 		lbu	a1,0(s1)
  48:lcd.c         ****           r%=256;                                   //            Advance.
 253              		.loc 1 48 46
 254 0084 8507     		addi	a5,a5,1
 255 0086 1CC0     		sw	a5,0(s0)
  48:lcd.c         ****           r%=256;                                   //            Advance.
 256              		.loc 1 48 11
 257 0088 97000000 		call	spi_i2s_data_transmit
GAS LISTING /tmp/ccIfjRGV.s 			page 7


 257      E7800000 
 258              	.LVL21:
  49:lcd.c         ****         }                                           //       (No! Return!)
 259              		.loc 1 49 11 is_stmt 1
  49:lcd.c         ****         }                                           //       (No! Return!)
 260              		.loc 1 49 12 is_stmt 0
 261 0090 1C40     		lw	a5,0(s0)
 262              	.LBE391:
 263              	.LBE390:
 264              		.loc 1 54 1
 265 0092 B240     		lw	ra,12(sp)
 266              		.cfi_remember_state
 267              		.cfi_restore 1
 268 0094 9244     		lw	s1,4(sp)
 269              		.cfi_restore 9
 270              	.LBB394:
 271              	.LBB392:
  49:lcd.c         ****         }                                           //       (No! Return!)
 272              		.loc 1 49 12
 273 0096 13D7F741 		srai	a4,a5,31
 274 009a 6183     		srli	a4,a4,24
 275 009c BA97     		add	a5,a5,a4
 276 009e 93F7F70F 		andi	a5,a5,255
 277 00a2 998F     		sub	a5,a5,a4
 278 00a4 1CC0     		sw	a5,0(s0)
 279              	.LBE392:
 280              	.LBE394:
 281              		.loc 1 54 1
 282 00a6 2244     		lw	s0,8(sp)
 283              		.cfi_restore 8
 284 00a8 4101     		addi	sp,sp,16
 285              	.LCFI5:
 286              		.cfi_def_cfa_offset 0
 287 00aa 8280     		jr	ra
 288              	.L9:
 289              	.LCFI6:
 290              		.cfi_restore_state
  52:lcd.c         ****     }
 291              		.loc 1 52 9 is_stmt 1
 292              		.loc 1 54 1 is_stmt 0
 293 00ac 2244     		lw	s0,8(sp)
 294              		.cfi_remember_state
 295              		.cfi_restore 8
 296 00ae B240     		lw	ra,12(sp)
 297              		.cfi_restore 1
 298 00b0 9244     		lw	s1,4(sp)
 299              		.cfi_restore 9
  52:lcd.c         ****     }
 300              		.loc 1 52 9
 301 00b2 8965     		li	a1,8192
 302              		.loc 1 54 1
  52:lcd.c         ****     }
 303              		.loc 1 52 9
 304 00b4 37150140 		li	a0,1073811456
 305              		.loc 1 54 1
 306 00b8 4101     		addi	sp,sp,16
 307              	.LCFI7:
GAS LISTING /tmp/ccIfjRGV.s 			page 8


 308              		.cfi_def_cfa_offset 0
  52:lcd.c         ****     }
 309              		.loc 1 52 9
 310 00ba 17030000 		tail	gpio_bit_set
 310      67000300 
 311              	.LVL22:
 312              	.L18:
 313              	.LCFI8:
 314              		.cfi_restore_state
 315              	.LBB395:
 316              	.LBB393:
  47:lcd.c         ****           spi_i2s_data_transmit(SPI1, queue[r++]&0xFF); //        Write!
 317              		.loc 1 47 30
 318 00c2 97000000 		call	gpio_bit_set
 318      E7800000 
 319              	.LVL23:
 320 00ca 5DB7     		j	.L12
 321              	.LBE393:
 322              	.LBE395:
 323              		.cfi_endproc
 324              	.LFE4:
 326              		.section	.text.LCD_Wait_On_Queue,"ax",@progbits
 327              		.align	1
 328              		.globl	LCD_Wait_On_Queue
 330              	LCD_Wait_On_Queue:
 331              	.LFB3:
  39:lcd.c         **** 	while(r != w) LCD_WR_Queue();					//Blocks while emptying the queue
 332              		.loc 1 39 25 is_stmt 1
 333              		.cfi_startproc
  40:lcd.c         **** }
 334              		.loc 1 40 2
  39:lcd.c         **** 	while(r != w) LCD_WR_Queue();					//Blocks while emptying the queue
 335              		.loc 1 39 25 is_stmt 0
 336 0000 4111     		addi	sp,sp,-16
 337              	.LCFI9:
 338              		.cfi_def_cfa_offset 16
 339 0002 22C4     		sw	s0,8(sp)
 340 0004 26C2     		sw	s1,4(sp)
 341              		.cfi_offset 8, -8
 342              		.cfi_offset 9, -12
  40:lcd.c         **** }
 343              		.loc 1 40 10
 344 0006 37040000 		lui	s0,%hi(.LANCHOR1)
 345 000a B7040000 		lui	s1,%hi(.LANCHOR0)
 346 000e 93840400 		addi	s1,s1,%lo(.LANCHOR0)
 347 0012 13040400 		addi	s0,s0,%lo(.LANCHOR1)
  40:lcd.c         **** }
 348              		.loc 1 40 7
 349 0016 9840     		lw	a4,0(s1)
 350 0018 1C40     		lw	a5,0(s0)
  39:lcd.c         **** 	while(r != w) LCD_WR_Queue();					//Blocks while emptying the queue
 351              		.loc 1 39 25
 352 001a 06C6     		sw	ra,12(sp)
 353              		.cfi_offset 1, -4
  40:lcd.c         **** }
 354              		.loc 1 40 7
 355 001c 630AF700 		beq	a4,a5,.L19
GAS LISTING /tmp/ccIfjRGV.s 			page 9


 356              	.L21:
  40:lcd.c         **** }
 357              		.loc 1 40 16 is_stmt 1 discriminator 2
 358 0020 97000000 		call	LCD_WR_Queue
 358      E7800000 
 359              	.LVL24:
  40:lcd.c         **** }
 360              		.loc 1 40 7 is_stmt 0 discriminator 2
 361 0028 9840     		lw	a4,0(s1)
 362 002a 1C40     		lw	a5,0(s0)
 363 002c E31AF7FE 		bne	a4,a5,.L21
 364              	.L19:
  41:lcd.c         **** 
 365              		.loc 1 41 1
 366 0030 B240     		lw	ra,12(sp)
 367              		.cfi_restore 1
 368 0032 2244     		lw	s0,8(sp)
 369              		.cfi_restore 8
 370 0034 9244     		lw	s1,4(sp)
 371              		.cfi_restore 9
 372 0036 4101     		addi	sp,sp,16
 373              	.LCFI10:
 374              		.cfi_def_cfa_offset 0
 375 0038 8280     		jr	ra
 376              		.cfi_endproc
 377              	.LFE3:
 379              		.section	.text.LCD_Write_Bus,"ax",@progbits
 380              		.align	1
 381              		.globl	LCD_Write_Bus
 383              	LCD_Write_Bus:
 384              	.LFB5:
  55:lcd.c         **** 
  56:lcd.c         **** void LCD_Write_Bus(int dat) {
 385              		.loc 1 56 29 is_stmt 1
 386              		.cfi_startproc
 387              	.LVL25:
  57:lcd.c         ****    while (((w+1)%256)==r) LCD_WR_Queue(); //If buffer full then spin...
 388              		.loc 1 57 4
  56:lcd.c         ****    while (((w+1)%256)==r) LCD_WR_Queue(); //If buffer full then spin...
 389              		.loc 1 56 29 is_stmt 0
 390 0000 4111     		addi	sp,sp,-16
 391              	.LCFI11:
 392              		.cfi_def_cfa_offset 16
 393 0002 22C4     		sw	s0,8(sp)
 394              		.cfi_offset 8, -8
 395              		.loc 1 57 14
 396 0004 37040000 		lui	s0,%hi(.LANCHOR1)
 397 0008 13040400 		addi	s0,s0,%lo(.LANCHOR1)
 398 000c 1440     		lw	a3,0(s0)
  56:lcd.c         ****    while (((w+1)%256)==r) LCD_WR_Queue(); //If buffer full then spin...
 399              		.loc 1 56 29
 400 000e 26C2     		sw	s1,4(sp)
 401              		.cfi_offset 9, -12
 402              		.loc 1 57 22
 403 0010 B7040000 		lui	s1,%hi(.LANCHOR0)
 404              		.loc 1 57 14
 405 0014 13871600 		addi	a4,a3,1
GAS LISTING /tmp/ccIfjRGV.s 			page 10


 406              		.loc 1 57 17
 407 0018 9357F741 		srai	a5,a4,31
 408 001c 13D68701 		srli	a2,a5,24
 409              		.loc 1 57 22
 410 0020 93840400 		addi	s1,s1,%lo(.LANCHOR0)
 411              		.loc 1 57 17
 412 0024 B307C700 		add	a5,a4,a2
 413              		.loc 1 57 10
 414 0028 9840     		lw	a4,0(s1)
 415              		.loc 1 57 17
 416 002a 93F7F70F 		andi	a5,a5,255
  56:lcd.c         ****    while (((w+1)%256)==r) LCD_WR_Queue(); //If buffer full then spin...
 417              		.loc 1 56 29
 418 002e 4AC0     		sw	s2,0(sp)
 419 0030 06C6     		sw	ra,12(sp)
 420              		.cfi_offset 18, -16
 421              		.cfi_offset 1, -4
 422              		.loc 1 57 17
 423 0032 918F     		sub	a5,a5,a2
  56:lcd.c         ****    while (((w+1)%256)==r) LCD_WR_Queue(); //If buffer full then spin...
 424              		.loc 1 56 29
 425 0034 2A89     		mv	s2,a0
 426              		.loc 1 57 10
 427 0036 6393E702 		bne	a5,a4,.L25
 428              	.LVL26:
 429              	.L26:
 430              		.loc 1 57 27 is_stmt 1 discriminator 2
 431 003a 97000000 		call	LCD_WR_Queue
 431      E7800000 
 432              	.LVL27:
 433              		.loc 1 57 14 is_stmt 0 discriminator 2
 434 0042 1440     		lw	a3,0(s0)
 435              		.loc 1 57 10 discriminator 2
 436 0044 9040     		lw	a2,0(s1)
 437              		.loc 1 57 14 discriminator 2
 438 0046 93871600 		addi	a5,a3,1
 439              		.loc 1 57 17 discriminator 2
 440 004a 13D7F741 		srai	a4,a5,31
 441 004e 6183     		srli	a4,a4,24
 442 0050 BA97     		add	a5,a5,a4
 443 0052 93F7F70F 		andi	a5,a5,255
 444 0056 998F     		sub	a5,a5,a4
 445              		.loc 1 57 10 discriminator 2
 446 0058 E381C7FE 		beq	a5,a2,.L26
 447              	.L25:
  58:lcd.c         ****    queue[w++]=dat;                        //...If/when not then store data...
 448              		.loc 1 58 4 is_stmt 1
 449              		.loc 1 58 14 is_stmt 0
 450 005c 37070000 		lui	a4,%hi(.LANCHOR2)
  59:lcd.c         ****    w%=256;                                //...and advance write index!
 451              		.loc 1 59 5
 452 0060 1CC0     		sw	a5,0(s0)
  60:lcd.c         **** }
 453              		.loc 1 60 1
 454 0062 B240     		lw	ra,12(sp)
 455              		.cfi_restore 1
 456 0064 2244     		lw	s0,8(sp)
GAS LISTING /tmp/ccIfjRGV.s 			page 11


 457              		.cfi_restore 8
  58:lcd.c         ****    queue[w++]=dat;                        //...If/when not then store data...
 458              		.loc 1 58 14
 459 0066 8A06     		slli	a3,a3,2
 460 0068 13070700 		addi	a4,a4,%lo(.LANCHOR2)
 461 006c BA96     		add	a3,a4,a3
 462 006e 23A02601 		sw	s2,0(a3)
  59:lcd.c         ****    w%=256;                                //...and advance write index!
 463              		.loc 1 59 4 is_stmt 1
 464              		.loc 1 60 1 is_stmt 0
 465 0072 9244     		lw	s1,4(sp)
 466              		.cfi_restore 9
 467 0074 0249     		lw	s2,0(sp)
 468              		.cfi_restore 18
 469              	.LVL28:
 470 0076 4101     		addi	sp,sp,16
 471              	.LCFI12:
 472              		.cfi_def_cfa_offset 0
 473 0078 8280     		jr	ra
 474              		.cfi_endproc
 475              	.LFE5:
 477              		.section	.text.LCD_Writ_Bus,"ax",@progbits
 478              		.align	1
 479              		.globl	LCD_Writ_Bus
 481              	LCD_Writ_Bus:
 482              	.LFB6:
  61:lcd.c         **** 
  62:lcd.c         **** /*
  63:lcd.c         ****   Function description: LCD serial data write function (write one byte)
  64:lcd.c         ****   Entry data: dat: byte to be written
  65:lcd.c         ****   Return value: None
  66:lcd.c         ****   Note: DC must already be set (for data) or reset (for command)
  67:lcd.c         **** */
  68:lcd.c         **** void LCD_Writ_Bus(u8 dat) 
  69:lcd.c         **** {
 483              		.loc 1 69 1 is_stmt 1
 484              		.cfi_startproc
 485              	.LVL29:
  70:lcd.c         **** 	OLED_CS_Clr();
 486              		.loc 1 70 2
  69:lcd.c         **** 	OLED_CS_Clr();
 487              		.loc 1 69 1 is_stmt 0
 488 0000 4111     		addi	sp,sp,-16
 489              	.LCFI13:
 490              		.cfi_def_cfa_offset 16
 491 0002 26C2     		sw	s1,4(sp)
 492 0004 4AC0     		sw	s2,0(sp)
 493              		.loc 1 70 2
 494 0006 8965     		li	a1,8192
 495              		.cfi_offset 9, -12
 496              		.cfi_offset 18, -16
  69:lcd.c         **** 	OLED_CS_Clr();
 497              		.loc 1 69 1
 498 0008 2A89     		mv	s2,a0
  71:lcd.c         **** 
  72:lcd.c         **** 	while(RESET == spi_i2s_flag_get(SPI1, SPI_FLAG_TBE));
 499              		.loc 1 72 17
GAS LISTING /tmp/ccIfjRGV.s 			page 12


 500 000a B7440040 		li	s1,1073758208
  70:lcd.c         **** 
 501              		.loc 1 70 2
 502 000e 37150140 		li	a0,1073811456
 503              	.LVL30:
  69:lcd.c         **** 	OLED_CS_Clr();
 504              		.loc 1 69 1
 505 0012 22C4     		sw	s0,8(sp)
 506 0014 06C6     		sw	ra,12(sp)
 507              		.cfi_offset 8, -8
 508              		.cfi_offset 1, -4
 509              		.loc 1 72 17
 510 0016 13840480 		addi	s0,s1,-2048
  70:lcd.c         **** 
 511              		.loc 1 70 2
 512 001a 97000000 		call	gpio_bit_reset
 512      E7800000 
 513              	.LVL31:
 514              		.loc 1 72 2 is_stmt 1
 515              	.L30:
 516              		.loc 1 72 54 discriminator 1
 517              		.loc 1 72 17 is_stmt 0 discriminator 1
 518 0022 8945     		li	a1,2
 519 0024 2285     		mv	a0,s0
 520 0026 97000000 		call	spi_i2s_flag_get
 520      E7800000 
 521              	.LVL32:
 522              		.loc 1 72 7 discriminator 1
 523 002e 75D9     		beq	a0,zero,.L30
  73:lcd.c         ****         spi_i2s_data_transmit(SPI1, dat);
 524              		.loc 1 73 9 is_stmt 1
 525 0030 13850480 		addi	a0,s1,-2048
 526 0034 CA85     		mv	a1,s2
  74:lcd.c         **** 
  75:lcd.c         **** 
  76:lcd.c         **** 	while(RESET == spi_i2s_flag_get(SPI1, SPI_FLAG_RBNE));
 527              		.loc 1 76 17 is_stmt 0
 528 0036 B7440040 		li	s1,1073758208
  73:lcd.c         ****         spi_i2s_data_transmit(SPI1, dat);
 529              		.loc 1 73 9
 530 003a 97000000 		call	spi_i2s_data_transmit
 530      E7800000 
 531              	.LVL33:
 532              		.loc 1 76 2 is_stmt 1
 533              		.loc 1 76 17 is_stmt 0
 534 0042 13840480 		addi	s0,s1,-2048
 535              	.L31:
 536              		.loc 1 76 55 is_stmt 1 discriminator 1
 537              		.loc 1 76 17 is_stmt 0 discriminator 1
 538 0046 8545     		li	a1,1
 539 0048 2285     		mv	a0,s0
 540 004a 97000000 		call	spi_i2s_flag_get
 540      E7800000 
 541              	.LVL34:
 542              		.loc 1 76 7 discriminator 1
 543 0052 75D9     		beq	a0,zero,.L31
  77:lcd.c         ****         spi_i2s_data_receive(SPI1);
GAS LISTING /tmp/ccIfjRGV.s 			page 13


 544              		.loc 1 77 9 is_stmt 1
 545 0054 13850480 		addi	a0,s1,-2048
 546 0058 97000000 		call	spi_i2s_data_receive
 546      E7800000 
 547              	.LVL35:
  78:lcd.c         **** 
  79:lcd.c         **** 	OLED_CS_Set();  
 548              		.loc 1 79 2
  80:lcd.c         **** }
 549              		.loc 1 80 1 is_stmt 0
 550 0060 2244     		lw	s0,8(sp)
 551              		.cfi_restore 8
 552 0062 B240     		lw	ra,12(sp)
 553              		.cfi_restore 1
 554 0064 9244     		lw	s1,4(sp)
 555              		.cfi_restore 9
 556 0066 0249     		lw	s2,0(sp)
 557              		.cfi_restore 18
  79:lcd.c         **** }
 558              		.loc 1 79 2
 559 0068 8965     		li	a1,8192
 560              		.loc 1 80 1
  79:lcd.c         **** }
 561              		.loc 1 79 2
 562 006a 37150140 		li	a0,1073811456
 563              		.loc 1 80 1
 564 006e 4101     		addi	sp,sp,16
 565              	.LCFI14:
 566              		.cfi_def_cfa_offset 0
  79:lcd.c         **** }
 567              		.loc 1 79 2
 568 0070 17030000 		tail	gpio_bit_set
 568      67000300 
 569              	.LVL36:
 570              		.cfi_endproc
 571              	.LFE6:
 573              		.section	.text.LCD_WR_DATA8,"ax",@progbits
 574              		.align	1
 575              		.globl	LCD_WR_DATA8
 577              	LCD_WR_DATA8:
 578              	.LFB7:
  81:lcd.c         **** 
  82:lcd.c         **** 
  83:lcd.c         **** /*
  84:lcd.c         ****   Function description: LCD write 8-bit data
  85:lcd.c         ****   Entry data: dat: data to be written
  86:lcd.c         ****   Return value: None
  87:lcd.c         **** */
  88:lcd.c         **** void LCD_WR_DATA8(u8 dat)
  89:lcd.c         **** {
 579              		.loc 1 89 1 is_stmt 1
 580              		.cfi_startproc
 581              	.LVL37:
  90:lcd.c         **** 	//OLED_DC_Set();  // Write data
  91:lcd.c         **** 	//LCD_Writ_Bus(dat);
  92:lcd.c         ****     LCD_Write_Bus(((int)dat)+(1<<8));
 582              		.loc 1 92 5
GAS LISTING /tmp/ccIfjRGV.s 			page 14


  89:lcd.c         **** 	//OLED_DC_Set();  // Write data
 583              		.loc 1 89 1 is_stmt 0
 584 0000 4111     		addi	sp,sp,-16
 585              	.LCFI15:
 586              		.cfi_def_cfa_offset 16
 587 0002 22C4     		sw	s0,8(sp)
 588              		.cfi_offset 8, -8
 589              	.LBB396:
 590              	.LBB397:
  57:lcd.c         ****    queue[w++]=dat;                        //...If/when not then store data...
 591              		.loc 1 57 14
 592 0004 37040000 		lui	s0,%hi(.LANCHOR1)
 593 0008 13040400 		addi	s0,s0,%lo(.LANCHOR1)
 594 000c 1440     		lw	a3,0(s0)
 595              	.LBE397:
 596              	.LBE396:
  89:lcd.c         **** 	//OLED_DC_Set();  // Write data
 597              		.loc 1 89 1
 598 000e 26C2     		sw	s1,4(sp)
 599              		.cfi_offset 9, -12
 600              	.LBB402:
 601              	.LBB398:
  57:lcd.c         ****    queue[w++]=dat;                        //...If/when not then store data...
 602              		.loc 1 57 22
 603 0010 B7040000 		lui	s1,%hi(.LANCHOR0)
  57:lcd.c         ****    queue[w++]=dat;                        //...If/when not then store data...
 604              		.loc 1 57 14
 605 0014 13871600 		addi	a4,a3,1
  57:lcd.c         ****    queue[w++]=dat;                        //...If/when not then store data...
 606              		.loc 1 57 17
 607 0018 9357F741 		srai	a5,a4,31
 608 001c 13D68701 		srli	a2,a5,24
  57:lcd.c         ****    queue[w++]=dat;                        //...If/when not then store data...
 609              		.loc 1 57 22
 610 0020 93840400 		addi	s1,s1,%lo(.LANCHOR0)
  57:lcd.c         ****    queue[w++]=dat;                        //...If/when not then store data...
 611              		.loc 1 57 17
 612 0024 B307C700 		add	a5,a4,a2
  57:lcd.c         ****    queue[w++]=dat;                        //...If/when not then store data...
 613              		.loc 1 57 10
 614 0028 9840     		lw	a4,0(s1)
  57:lcd.c         ****    queue[w++]=dat;                        //...If/when not then store data...
 615              		.loc 1 57 17
 616 002a 93F7F70F 		andi	a5,a5,255
 617              	.LBE398:
 618              	.LBE402:
  89:lcd.c         **** 	//OLED_DC_Set();  // Write data
 619              		.loc 1 89 1
 620 002e 4AC0     		sw	s2,0(sp)
 621 0030 06C6     		sw	ra,12(sp)
 622              		.cfi_offset 18, -16
 623              		.cfi_offset 1, -4
 624              	.LBB403:
 625              	.LBB399:
  57:lcd.c         ****    queue[w++]=dat;                        //...If/when not then store data...
 626              		.loc 1 57 17
 627 0032 918F     		sub	a5,a5,a2
GAS LISTING /tmp/ccIfjRGV.s 			page 15


 628              	.LBE399:
 629              	.LBE403:
 630              		.loc 1 92 5
 631 0034 13090510 		addi	s2,a0,256
 632              	.LVL38:
 633              	.LBB404:
 634              	.LBB400:
  57:lcd.c         ****    queue[w++]=dat;                        //...If/when not then store data...
 635              		.loc 1 57 4 is_stmt 1
  57:lcd.c         ****    queue[w++]=dat;                        //...If/when not then store data...
 636              		.loc 1 57 10 is_stmt 0
 637 0038 6393E702 		bne	a5,a4,.L38
 638              	.LVL39:
 639              	.L39:
  57:lcd.c         ****    queue[w++]=dat;                        //...If/when not then store data...
 640              		.loc 1 57 27 is_stmt 1
 641 003c 97000000 		call	LCD_WR_Queue
 641      E7800000 
 642              	.LVL40:
  57:lcd.c         ****    queue[w++]=dat;                        //...If/when not then store data...
 643              		.loc 1 57 14 is_stmt 0
 644 0044 1440     		lw	a3,0(s0)
  57:lcd.c         ****    queue[w++]=dat;                        //...If/when not then store data...
 645              		.loc 1 57 10
 646 0046 9040     		lw	a2,0(s1)
  57:lcd.c         ****    queue[w++]=dat;                        //...If/when not then store data...
 647              		.loc 1 57 14
 648 0048 93871600 		addi	a5,a3,1
  57:lcd.c         ****    queue[w++]=dat;                        //...If/when not then store data...
 649              		.loc 1 57 17
 650 004c 13D7F741 		srai	a4,a5,31
 651 0050 6183     		srli	a4,a4,24
 652 0052 BA97     		add	a5,a5,a4
 653 0054 93F7F70F 		andi	a5,a5,255
 654 0058 998F     		sub	a5,a5,a4
  57:lcd.c         ****    queue[w++]=dat;                        //...If/when not then store data...
 655              		.loc 1 57 10
 656 005a E381C7FE 		beq	a5,a2,.L39
 657              	.L38:
  58:lcd.c         ****    w%=256;                                //...and advance write index!
 658              		.loc 1 58 4 is_stmt 1
  58:lcd.c         ****    w%=256;                                //...and advance write index!
 659              		.loc 1 58 14 is_stmt 0
 660 005e 37070000 		lui	a4,%hi(.LANCHOR2)
  59:lcd.c         **** }
 661              		.loc 1 59 5
 662 0062 1CC0     		sw	a5,0(s0)
 663              	.LBE400:
 664              	.LBE404:
  93:lcd.c         **** }
 665              		.loc 1 93 1
 666 0064 B240     		lw	ra,12(sp)
 667              		.cfi_restore 1
 668 0066 2244     		lw	s0,8(sp)
 669              		.cfi_restore 8
 670              	.LBB405:
 671              	.LBB401:
GAS LISTING /tmp/ccIfjRGV.s 			page 16


  58:lcd.c         ****    w%=256;                                //...and advance write index!
 672              		.loc 1 58 14
 673 0068 8A06     		slli	a3,a3,2
 674 006a 13070700 		addi	a4,a4,%lo(.LANCHOR2)
 675 006e BA96     		add	a3,a4,a3
 676 0070 23A02601 		sw	s2,0(a3)
  59:lcd.c         **** }
 677              		.loc 1 59 4 is_stmt 1
 678              	.LVL41:
 679              	.LBE401:
 680              	.LBE405:
 681              		.loc 1 93 1 is_stmt 0
 682 0074 9244     		lw	s1,4(sp)
 683              		.cfi_restore 9
 684 0076 0249     		lw	s2,0(sp)
 685              		.cfi_restore 18
 686 0078 4101     		addi	sp,sp,16
 687              	.LCFI16:
 688              		.cfi_def_cfa_offset 0
 689 007a 8280     		jr	ra
 690              		.cfi_endproc
 691              	.LFE7:
 693              		.section	.text.LCD_WR_DATA,"ax",@progbits
 694              		.align	1
 695              		.globl	LCD_WR_DATA
 697              	LCD_WR_DATA:
 698              	.LFB8:
  94:lcd.c         **** 
  95:lcd.c         **** 
  96:lcd.c         **** /*
  97:lcd.c         ****   Function description: LCD write 16-bit data
  98:lcd.c         ****   Entry data: dat: 16-bit data to be written
  99:lcd.c         ****   Return value: None
 100:lcd.c         **** */
 101:lcd.c         **** void LCD_WR_DATA(u16 dat)
 102:lcd.c         **** {
 699              		.loc 1 102 1 is_stmt 1
 700              		.cfi_startproc
 701              	.LVL42:
 103:lcd.c         **** 	//OLED_DC_Set();  // Write data
 104:lcd.c         **** 	//LCD_Writ_Bus(dat>>8);
 105:lcd.c         **** 	//LCD_Writ_Bus(dat);
 106:lcd.c         ****     LCD_Write_Bus(((int)dat>>8)+(1<<8));
 702              		.loc 1 106 5
 102:lcd.c         **** 	//OLED_DC_Set();  // Write data
 703              		.loc 1 102 1 is_stmt 0
 704 0000 0111     		addi	sp,sp,-32
 705              	.LCFI17:
 706              		.cfi_def_cfa_offset 32
 707 0002 22CC     		sw	s0,24(sp)
 708              		.cfi_offset 8, -8
 709              	.LBB406:
 710              	.LBB407:
  57:lcd.c         ****    queue[w++]=dat;                        //...If/when not then store data...
 711              		.loc 1 57 14
 712 0004 37040000 		lui	s0,%hi(.LANCHOR1)
 713 0008 13040400 		addi	s0,s0,%lo(.LANCHOR1)
GAS LISTING /tmp/ccIfjRGV.s 			page 17


 714 000c 1040     		lw	a2,0(s0)
 715              	.LBE407:
 716              	.LBE406:
 102:lcd.c         **** 	//OLED_DC_Set();  // Write data
 717              		.loc 1 102 1
 718 000e 26CA     		sw	s1,20(sp)
 719              		.cfi_offset 9, -12
 720              	.LBB414:
 721              	.LBB408:
  57:lcd.c         ****    queue[w++]=dat;                        //...If/when not then store data...
 722              		.loc 1 57 22
 723 0010 B7040000 		lui	s1,%hi(.LANCHOR0)
  57:lcd.c         ****    queue[w++]=dat;                        //...If/when not then store data...
 724              		.loc 1 57 14
 725 0014 13071600 		addi	a4,a2,1
  57:lcd.c         ****    queue[w++]=dat;                        //...If/when not then store data...
 726              		.loc 1 57 17
 727 0018 9357F741 		srai	a5,a4,31
 728 001c E183     		srli	a5,a5,24
  57:lcd.c         ****    queue[w++]=dat;                        //...If/when not then store data...
 729              		.loc 1 57 22
 730 001e 93840400 		addi	s1,s1,%lo(.LANCHOR0)
  57:lcd.c         ****    queue[w++]=dat;                        //...If/when not then store data...
 731              		.loc 1 57 17
 732 0022 3E97     		add	a4,a4,a5
  57:lcd.c         ****    queue[w++]=dat;                        //...If/when not then store data...
 733              		.loc 1 57 22
 734 0024 8C40     		lw	a1,0(s1)
  57:lcd.c         ****    queue[w++]=dat;                        //...If/when not then store data...
 735              		.loc 1 57 17
 736 0026 1377F70F 		andi	a4,a4,255
 737              	.LBE408:
 738              	.LBE414:
 102:lcd.c         **** 	//OLED_DC_Set();  // Write data
 739              		.loc 1 102 1
 740 002a 4EC6     		sw	s3,12(sp)
 741 002c 52C4     		sw	s4,8(sp)
 742 002e 06CE     		sw	ra,28(sp)
 743              		.cfi_offset 19, -20
 744              		.cfi_offset 20, -24
 745              		.cfi_offset 1, -4
 746              		.loc 1 106 28
 747 0030 135A8540 		srai	s4,a0,8
 102:lcd.c         **** 	//OLED_DC_Set();  // Write data
 748              		.loc 1 102 1
 749 0034 4AC8     		sw	s2,16(sp)
 750              		.cfi_offset 18, -16
 751              	.LBB415:
 752              	.LBB409:
  57:lcd.c         ****    queue[w++]=dat;                        //...If/when not then store data...
 753              		.loc 1 57 17
 754 0036 B307F740 		sub	a5,a4,a5
 755              	.LBE409:
 756              	.LBE415:
 102:lcd.c         **** 	//OLED_DC_Set();  // Write data
 757              		.loc 1 102 1
 758 003a AA89     		mv	s3,a0
GAS LISTING /tmp/ccIfjRGV.s 			page 18


 759              		.loc 1 106 5
 760 003c 130A0A10 		addi	s4,s4,256
 761              	.LVL43:
 762              	.LBB416:
 763              	.LBB410:
  57:lcd.c         ****    queue[w++]=dat;                        //...If/when not then store data...
 764              		.loc 1 57 4 is_stmt 1
  57:lcd.c         ****    queue[w++]=dat;                        //...If/when not then store data...
 765              		.loc 1 57 10 is_stmt 0
 766 0040 6395B702 		bne	a5,a1,.L43
 767              	.LVL44:
 768              	.L44:
  57:lcd.c         ****    queue[w++]=dat;                        //...If/when not then store data...
 769              		.loc 1 57 27 is_stmt 1
 770 0044 97000000 		call	LCD_WR_Queue
 770      E7800000 
 771              	.LVL45:
  57:lcd.c         ****    queue[w++]=dat;                        //...If/when not then store data...
 772              		.loc 1 57 14 is_stmt 0
 773 004c 1040     		lw	a2,0(s0)
  57:lcd.c         ****    queue[w++]=dat;                        //...If/when not then store data...
 774              		.loc 1 57 22
 775 004e 8C40     		lw	a1,0(s1)
  57:lcd.c         ****    queue[w++]=dat;                        //...If/when not then store data...
 776              		.loc 1 57 14
 777 0050 13071600 		addi	a4,a2,1
  57:lcd.c         ****    queue[w++]=dat;                        //...If/when not then store data...
 778              		.loc 1 57 17
 779 0054 9357F741 		srai	a5,a4,31
 780 0058 93D68701 		srli	a3,a5,24
 781 005c B307D700 		add	a5,a4,a3
 782 0060 93F7F70F 		andi	a5,a5,255
 783 0064 958F     		sub	a5,a5,a3
  57:lcd.c         ****    queue[w++]=dat;                        //...If/when not then store data...
 784              		.loc 1 57 10
 785 0066 E38FB7FC 		beq	a5,a1,.L44
 786              	.L43:
  58:lcd.c         ****    w%=256;                                //...and advance write index!
 787              		.loc 1 58 4 is_stmt 1
 788              	.LBE410:
 789              	.LBE416:
 790              	.LBB417:
 791              	.LBB418:
  57:lcd.c         ****    queue[w++]=dat;                        //...If/when not then store data...
 792              		.loc 1 57 14 is_stmt 0
 793 006a 93861700 		addi	a3,a5,1
  57:lcd.c         ****    queue[w++]=dat;                        //...If/when not then store data...
 794              		.loc 1 57 17
 795 006e 13D7F641 		srai	a4,a3,31
 796 0072 13558701 		srli	a0,a4,24
 797              	.LBE418:
 798              	.LBE417:
 799              	.LBB424:
 800              	.LBB411:
  58:lcd.c         ****    w%=256;                                //...and advance write index!
 801              		.loc 1 58 14
 802 0076 37090000 		lui	s2,%hi(.LANCHOR2)
GAS LISTING /tmp/ccIfjRGV.s 			page 19


 803 007a 13090900 		addi	s2,s2,%lo(.LANCHOR2)
 804 007e 0A06     		slli	a2,a2,2
 805              	.LBE411:
 806              	.LBE424:
 807              	.LBB425:
 808              	.LBB419:
  57:lcd.c         ****    queue[w++]=dat;                        //...If/when not then store data...
 809              		.loc 1 57 17
 810 0080 3387A600 		add	a4,a3,a0
 811              	.LBE419:
 812              	.LBE425:
 813              	.LBB426:
 814              	.LBB412:
  58:lcd.c         ****    w%=256;                                //...and advance write index!
 815              		.loc 1 58 14
 816 0084 4A96     		add	a2,s2,a2
 817              	.LBE412:
 818              	.LBE426:
 819              	.LBB427:
 820              	.LBB420:
  57:lcd.c         ****    queue[w++]=dat;                        //...If/when not then store data...
 821              		.loc 1 57 17
 822 0086 1377F70F 		andi	a4,a4,255
 823              	.LBE420:
 824              	.LBE427:
 107:lcd.c         ****     LCD_Write_Bus(((int)dat&0xFF)+(1<<8));
 825              		.loc 1 107 28
 826 008a 93F9F90F 		andi	s3,s3,255
 827              	.LVL46:
 828              	.LBB428:
 829              	.LBB413:
  58:lcd.c         ****    w%=256;                                //...and advance write index!
 830              		.loc 1 58 14
 831 008e 23204601 		sw	s4,0(a2)
  59:lcd.c         **** }
 832              		.loc 1 59 4 is_stmt 1
  59:lcd.c         **** }
 833              		.loc 1 59 5 is_stmt 0
 834 0092 1CC0     		sw	a5,0(s0)
 835              	.LVL47:
 836              	.LBE413:
 837              	.LBE428:
 838              		.loc 1 107 5 is_stmt 1
 839              	.LBB429:
 840              	.LBB421:
  57:lcd.c         ****    queue[w++]=dat;                        //...If/when not then store data...
 841              		.loc 1 57 17 is_stmt 0
 842 0094 098F     		sub	a4,a4,a0
 843              	.LBE421:
 844              	.LBE429:
 845              		.loc 1 107 5
 846 0096 93890910 		addi	s3,s3,256
 847              	.LVL48:
 848              	.LBB430:
 849              	.LBB422:
  57:lcd.c         ****    queue[w++]=dat;                        //...If/when not then store data...
 850              		.loc 1 57 10
GAS LISTING /tmp/ccIfjRGV.s 			page 20


 851 009a 6393E502 		bne	a1,a4,.L45
 852              	.L46:
  57:lcd.c         ****    queue[w++]=dat;                        //...If/when not then store data...
 853              		.loc 1 57 27 is_stmt 1
 854 009e 97000000 		call	LCD_WR_Queue
 854      E7800000 
 855              	.LVL49:
  57:lcd.c         ****    queue[w++]=dat;                        //...If/when not then store data...
 856              		.loc 1 57 14 is_stmt 0
 857 00a6 1C40     		lw	a5,0(s0)
  57:lcd.c         ****    queue[w++]=dat;                        //...If/when not then store data...
 858              		.loc 1 57 10
 859 00a8 9040     		lw	a2,0(s1)
  57:lcd.c         ****    queue[w++]=dat;                        //...If/when not then store data...
 860              		.loc 1 57 14
 861 00aa 13871700 		addi	a4,a5,1
  57:lcd.c         ****    queue[w++]=dat;                        //...If/when not then store data...
 862              		.loc 1 57 17
 863 00ae 9356F741 		srai	a3,a4,31
 864 00b2 E182     		srli	a3,a3,24
 865 00b4 3697     		add	a4,a4,a3
 866 00b6 1377F70F 		andi	a4,a4,255
 867 00ba 158F     		sub	a4,a4,a3
  57:lcd.c         ****    queue[w++]=dat;                        //...If/when not then store data...
 868              		.loc 1 57 10
 869 00bc E301C7FE 		beq	a4,a2,.L46
 870              	.L45:
  58:lcd.c         ****    w%=256;                                //...and advance write index!
 871              		.loc 1 58 4 is_stmt 1
  59:lcd.c         **** }
 872              		.loc 1 59 5 is_stmt 0
 873 00c0 18C0     		sw	a4,0(s0)
 874              	.LBE422:
 875              	.LBE430:
 108:lcd.c         **** }
 876              		.loc 1 108 1
 877 00c2 F240     		lw	ra,28(sp)
 878              		.cfi_restore 1
 879 00c4 6244     		lw	s0,24(sp)
 880              		.cfi_restore 8
 881              	.LBB431:
 882              	.LBB423:
  58:lcd.c         ****    w%=256;                                //...and advance write index!
 883              		.loc 1 58 14
 884 00c6 8A07     		slli	a5,a5,2
 885 00c8 CA97     		add	a5,s2,a5
 886 00ca 23A03701 		sw	s3,0(a5)
  59:lcd.c         **** }
 887              		.loc 1 59 4 is_stmt 1
 888              	.LVL50:
 889              	.LBE423:
 890              	.LBE431:
 891              		.loc 1 108 1 is_stmt 0
 892 00ce D244     		lw	s1,20(sp)
 893              		.cfi_restore 9
 894 00d0 4249     		lw	s2,16(sp)
 895              		.cfi_restore 18
GAS LISTING /tmp/ccIfjRGV.s 			page 21


 896 00d2 B249     		lw	s3,12(sp)
 897              		.cfi_restore 19
 898 00d4 224A     		lw	s4,8(sp)
 899              		.cfi_restore 20
 900 00d6 0561     		addi	sp,sp,32
 901              	.LCFI18:
 902              		.cfi_def_cfa_offset 0
 903 00d8 8280     		jr	ra
 904              		.cfi_endproc
 905              	.LFE8:
 907              		.section	.text.LCD_WR_REG,"ax",@progbits
 908              		.align	1
 909              		.globl	LCD_WR_REG
 911              	LCD_WR_REG:
 912              	.LFB9:
 109:lcd.c         **** 
 110:lcd.c         **** 
 111:lcd.c         **** /*
 112:lcd.c         ****   Function description: LCD write 8-bit command
 113:lcd.c         ****   Entry data: dat: command to be written
 114:lcd.c         ****   Return value: None
 115:lcd.c         **** */
 116:lcd.c         **** void LCD_WR_REG(u8 dat)
 117:lcd.c         **** {
 913              		.loc 1 117 1 is_stmt 1
 914              		.cfi_startproc
 915              	.LVL51:
 118:lcd.c         **** 	//OLED_DC_Clr();  // Write command
 119:lcd.c         **** 	//LCD_Writ_Bus(dat);
 120:lcd.c         ****     LCD_Write_Bus((int)dat);
 916              		.loc 1 120 5
 117:lcd.c         **** 	//OLED_DC_Clr();  // Write command
 917              		.loc 1 117 1 is_stmt 0
 918 0000 4111     		addi	sp,sp,-16
 919              	.LCFI19:
 920              		.cfi_def_cfa_offset 16
 921 0002 22C4     		sw	s0,8(sp)
 922              		.cfi_offset 8, -8
 923              	.LBB432:
 924              	.LBB433:
  57:lcd.c         ****    queue[w++]=dat;                        //...If/when not then store data...
 925              		.loc 1 57 14
 926 0004 37040000 		lui	s0,%hi(.LANCHOR1)
 927 0008 13040400 		addi	s0,s0,%lo(.LANCHOR1)
 928 000c 1440     		lw	a3,0(s0)
 929              	.LBE433:
 930              	.LBE432:
 117:lcd.c         **** 	//OLED_DC_Clr();  // Write command
 931              		.loc 1 117 1
 932 000e 26C2     		sw	s1,4(sp)
 933              		.cfi_offset 9, -12
 934              	.LBB438:
 935              	.LBB434:
  57:lcd.c         ****    queue[w++]=dat;                        //...If/when not then store data...
 936              		.loc 1 57 22
 937 0010 B7040000 		lui	s1,%hi(.LANCHOR0)
  57:lcd.c         ****    queue[w++]=dat;                        //...If/when not then store data...
GAS LISTING /tmp/ccIfjRGV.s 			page 22


 938              		.loc 1 57 14
 939 0014 13871600 		addi	a4,a3,1
  57:lcd.c         ****    queue[w++]=dat;                        //...If/when not then store data...
 940              		.loc 1 57 17
 941 0018 9357F741 		srai	a5,a4,31
 942 001c 13D68701 		srli	a2,a5,24
  57:lcd.c         ****    queue[w++]=dat;                        //...If/when not then store data...
 943              		.loc 1 57 22
 944 0020 93840400 		addi	s1,s1,%lo(.LANCHOR0)
  57:lcd.c         ****    queue[w++]=dat;                        //...If/when not then store data...
 945              		.loc 1 57 17
 946 0024 B307C700 		add	a5,a4,a2
  57:lcd.c         ****    queue[w++]=dat;                        //...If/when not then store data...
 947              		.loc 1 57 10
 948 0028 9840     		lw	a4,0(s1)
  57:lcd.c         ****    queue[w++]=dat;                        //...If/when not then store data...
 949              		.loc 1 57 17
 950 002a 93F7F70F 		andi	a5,a5,255
 951              	.LBE434:
 952              	.LBE438:
 117:lcd.c         **** 	//OLED_DC_Clr();  // Write command
 953              		.loc 1 117 1
 954 002e 4AC0     		sw	s2,0(sp)
 955 0030 06C6     		sw	ra,12(sp)
 956              		.cfi_offset 18, -16
 957              		.cfi_offset 1, -4
 958              	.LBB439:
 959              	.LBB435:
  57:lcd.c         ****    queue[w++]=dat;                        //...If/when not then store data...
 960              		.loc 1 57 17
 961 0032 918F     		sub	a5,a5,a2
 962              	.LBE435:
 963              	.LBE439:
 117:lcd.c         **** 	//OLED_DC_Clr();  // Write command
 964              		.loc 1 117 1
 965 0034 2A89     		mv	s2,a0
 966              	.LVL52:
 967              	.LBB440:
 968              	.LBB436:
  57:lcd.c         ****    queue[w++]=dat;                        //...If/when not then store data...
 969              		.loc 1 57 4 is_stmt 1
  57:lcd.c         ****    queue[w++]=dat;                        //...If/when not then store data...
 970              		.loc 1 57 10 is_stmt 0
 971 0036 6393E702 		bne	a5,a4,.L51
 972              	.LVL53:
 973              	.L52:
  57:lcd.c         ****    queue[w++]=dat;                        //...If/when not then store data...
 974              		.loc 1 57 27 is_stmt 1
 975 003a 97000000 		call	LCD_WR_Queue
 975      E7800000 
 976              	.LVL54:
  57:lcd.c         ****    queue[w++]=dat;                        //...If/when not then store data...
 977              		.loc 1 57 14 is_stmt 0
 978 0042 1440     		lw	a3,0(s0)
  57:lcd.c         ****    queue[w++]=dat;                        //...If/when not then store data...
 979              		.loc 1 57 10
 980 0044 9040     		lw	a2,0(s1)
GAS LISTING /tmp/ccIfjRGV.s 			page 23


  57:lcd.c         ****    queue[w++]=dat;                        //...If/when not then store data...
 981              		.loc 1 57 14
 982 0046 93871600 		addi	a5,a3,1
  57:lcd.c         ****    queue[w++]=dat;                        //...If/when not then store data...
 983              		.loc 1 57 17
 984 004a 13D7F741 		srai	a4,a5,31
 985 004e 6183     		srli	a4,a4,24
 986 0050 BA97     		add	a5,a5,a4
 987 0052 93F7F70F 		andi	a5,a5,255
 988 0056 998F     		sub	a5,a5,a4
  57:lcd.c         ****    queue[w++]=dat;                        //...If/when not then store data...
 989              		.loc 1 57 10
 990 0058 E381C7FE 		beq	a5,a2,.L52
 991              	.L51:
  58:lcd.c         ****    w%=256;                                //...and advance write index!
 992              		.loc 1 58 4 is_stmt 1
  58:lcd.c         ****    w%=256;                                //...and advance write index!
 993              		.loc 1 58 14 is_stmt 0
 994 005c 37070000 		lui	a4,%hi(.LANCHOR2)
  59:lcd.c         **** }
 995              		.loc 1 59 5
 996 0060 1CC0     		sw	a5,0(s0)
 997              	.LBE436:
 998              	.LBE440:
 121:lcd.c         **** }
 999              		.loc 1 121 1
 1000 0062 B240     		lw	ra,12(sp)
 1001              		.cfi_restore 1
 1002 0064 2244     		lw	s0,8(sp)
 1003              		.cfi_restore 8
 1004              	.LBB441:
 1005              	.LBB437:
  58:lcd.c         ****    w%=256;                                //...and advance write index!
 1006              		.loc 1 58 14
 1007 0066 8A06     		slli	a3,a3,2
 1008 0068 13070700 		addi	a4,a4,%lo(.LANCHOR2)
 1009 006c BA96     		add	a3,a4,a3
 1010 006e 23A02601 		sw	s2,0(a3)
  59:lcd.c         **** }
 1011              		.loc 1 59 4 is_stmt 1
 1012              	.LVL55:
 1013              	.LBE437:
 1014              	.LBE441:
 1015              		.loc 1 121 1 is_stmt 0
 1016 0072 9244     		lw	s1,4(sp)
 1017              		.cfi_restore 9
 1018 0074 0249     		lw	s2,0(sp)
 1019              		.cfi_restore 18
 1020 0076 4101     		addi	sp,sp,16
 1021              	.LCFI20:
 1022              		.cfi_def_cfa_offset 0
 1023 0078 8280     		jr	ra
 1024              		.cfi_endproc
 1025              	.LFE9:
 1027              		.section	.text.LCD_Address_Set,"ax",@progbits
 1028              		.align	1
 1029              		.globl	LCD_Address_Set
GAS LISTING /tmp/ccIfjRGV.s 			page 24


 1031              	LCD_Address_Set:
 1032              	.LFB10:
 122:lcd.c         **** 
 123:lcd.c         **** 
 124:lcd.c         **** 
 125:lcd.c         **** /*
 126:lcd.c         **** Function description: Set start and end addresses
 127:lcd.c         **** Entry data: x1, x2 set the start and end column address
 128:lcd.c         **** y1, y2 set the start and end row address
 129:lcd.c         **** Return value: None
 130:lcd.c         **** */
 131:lcd.c         **** void LCD_Address_Set(u16 x1,u16 y1,u16 x2,u16 y2)
 132:lcd.c         **** {
 1033              		.loc 1 132 1 is_stmt 1
 1034              		.cfi_startproc
 1035              	.LVL56:
 1036 0000 7971     		addi	sp,sp,-48
 1037              	.LCFI21:
 1038              		.cfi_def_cfa_offset 48
 1039 0002 22D4     		sw	s0,40(sp)
 1040              		.cfi_offset 8, -8
 1041              	.LBB462:
 1042              	.LBB463:
 1043              	.LBB464:
  57:lcd.c         ****    queue[w++]=dat;                        //...If/when not then store data...
 1044              		.loc 1 57 14 is_stmt 0
 1045 0004 37040000 		lui	s0,%hi(.LANCHOR1)
 1046 0008 13040400 		addi	s0,s0,%lo(.LANCHOR1)
 1047 000c 03280400 		lw	a6,0(s0)
 1048              	.LBE464:
 1049              	.LBE463:
 1050              	.LBE462:
 1051              		.loc 1 132 1
 1052 0010 56CA     		sw	s5,20(sp)
 1053              		.cfi_offset 21, -28
 1054              	.LBB477:
 1055              	.LBB471:
 1056              	.LBB465:
  57:lcd.c         ****    queue[w++]=dat;                        //...If/when not then store data...
 1057              		.loc 1 57 22
 1058 0012 B70A0000 		lui	s5,%hi(.LANCHOR0)
  57:lcd.c         ****    queue[w++]=dat;                        //...If/when not then store data...
 1059              		.loc 1 57 14
 1060 0016 13071800 		addi	a4,a6,1
  57:lcd.c         ****    queue[w++]=dat;                        //...If/when not then store data...
 1061              		.loc 1 57 17
 1062 001a 9357F741 		srai	a5,a4,31
 1063 001e 93D88701 		srli	a7,a5,24
  57:lcd.c         ****    queue[w++]=dat;                        //...If/when not then store data...
 1064              		.loc 1 57 22
 1065 0022 938A0A00 		addi	s5,s5,%lo(.LANCHOR0)
  57:lcd.c         ****    queue[w++]=dat;                        //...If/when not then store data...
 1066              		.loc 1 57 17
 1067 0026 B3071701 		add	a5,a4,a7
  57:lcd.c         ****    queue[w++]=dat;                        //...If/when not then store data...
 1068              		.loc 1 57 10
 1069 002a 03A70A00 		lw	a4,0(s5)
GAS LISTING /tmp/ccIfjRGV.s 			page 25


  57:lcd.c         ****    queue[w++]=dat;                        //...If/when not then store data...
 1070              		.loc 1 57 17
 1071 002e 93F7F70F 		andi	a5,a5,255
 1072              	.LBE465:
 1073              	.LBE471:
 1074              	.LBE477:
 1075              		.loc 1 132 1
 1076 0032 4AD0     		sw	s2,32(sp)
 1077 0034 4ECE     		sw	s3,28(sp)
 1078 0036 5AC8     		sw	s6,16(sp)
 1079 0038 5EC6     		sw	s7,12(sp)
 1080 003a 06D6     		sw	ra,44(sp)
 1081 003c 26D2     		sw	s1,36(sp)
 1082 003e 52CC     		sw	s4,24(sp)
 1083              		.cfi_offset 18, -16
 1084              		.cfi_offset 19, -20
 1085              		.cfi_offset 22, -32
 1086              		.cfi_offset 23, -36
 1087              		.cfi_offset 1, -4
 1088              		.cfi_offset 9, -12
 1089              		.cfi_offset 20, -24
 1090              	.LBB478:
 1091              	.LBB472:
 1092              	.LBB466:
  57:lcd.c         ****    queue[w++]=dat;                        //...If/when not then store data...
 1093              		.loc 1 57 17
 1094 0040 B3871741 		sub	a5,a5,a7
 1095              	.LBE466:
 1096              	.LBE472:
 1097              	.LBE478:
 1098              		.loc 1 132 1
 1099 0044 AA8B     		mv	s7,a0
 1100 0046 AE89     		mv	s3,a1
 1101 0048 328B     		mv	s6,a2
 133:lcd.c         **** 	LCD_WR_REG(0x2a);  // Column address setting
 1102              		.loc 1 133 2 is_stmt 1
 1103              	.LVL57:
 120:lcd.c         **** }
 1104              		.loc 1 120 5
 1105              	.LBB479:
 1106              	.LBB473:
 1107              	.LBB467:
  57:lcd.c         ****    queue[w++]=dat;                        //...If/when not then store data...
 1108              		.loc 1 57 4
 1109              	.LBE467:
 1110              	.LBE473:
 1111              	.LBE479:
 132:lcd.c         **** 	LCD_WR_REG(0x2a);  // Column address setting
 1112              		.loc 1 132 1 is_stmt 0
 1113 004a 3689     		mv	s2,a3
 1114              	.LBB480:
 1115              	.LBB474:
 1116              	.LBB468:
  57:lcd.c         ****    queue[w++]=dat;                        //...If/when not then store data...
 1117              		.loc 1 57 10
 1118 004c 6395E702 		bne	a5,a4,.L56
 1119              	.LVL58:
GAS LISTING /tmp/ccIfjRGV.s 			page 26


 1120              	.L57:
  57:lcd.c         ****    queue[w++]=dat;                        //...If/when not then store data...
 1121              		.loc 1 57 27 is_stmt 1
 1122 0050 97000000 		call	LCD_WR_Queue
 1122      E7800000 
 1123              	.LVL59:
  57:lcd.c         ****    queue[w++]=dat;                        //...If/when not then store data...
 1124              		.loc 1 57 14 is_stmt 0
 1125 0058 03280400 		lw	a6,0(s0)
  57:lcd.c         ****    queue[w++]=dat;                        //...If/when not then store data...
 1126              		.loc 1 57 10
 1127 005c 83A60A00 		lw	a3,0(s5)
  57:lcd.c         ****    queue[w++]=dat;                        //...If/when not then store data...
 1128              		.loc 1 57 14
 1129 0060 93071800 		addi	a5,a6,1
  57:lcd.c         ****    queue[w++]=dat;                        //...If/when not then store data...
 1130              		.loc 1 57 17
 1131 0064 13D7F741 		srai	a4,a5,31
 1132 0068 6183     		srli	a4,a4,24
 1133 006a BA97     		add	a5,a5,a4
 1134 006c 93F7F70F 		andi	a5,a5,255
 1135 0070 998F     		sub	a5,a5,a4
  57:lcd.c         ****    queue[w++]=dat;                        //...If/when not then store data...
 1136              		.loc 1 57 10
 1137 0072 E38FD7FC 		beq	a5,a3,.L57
 1138              	.L56:
  58:lcd.c         ****    w%=256;                                //...and advance write index!
 1139              		.loc 1 58 4 is_stmt 1
 1140              	.LBE468:
 1141              	.LBE474:
 1142              	.LBE480:
 134:lcd.c         **** 	LCD_WR_DATA(x1+lcd_conf.offset_x);
 1143              		.loc 1 134 25 is_stmt 0
 1144 0076 370A0000 		lui	s4,%hi(.LANCHOR3)
 1145 007a 130A0A00 		addi	s4,s4,%lo(.LANCHOR3)
 1146 007e 03452A00 		lbu	a0,2(s4)
 1147              	.LBB481:
 1148              	.LBB475:
 1149              	.LBB469:
  58:lcd.c         ****    w%=256;                                //...and advance write index!
 1150              		.loc 1 58 14
 1151 0082 B7040000 		lui	s1,%hi(.LANCHOR2)
 1152 0086 93840400 		addi	s1,s1,%lo(.LANCHOR2)
 1153 008a 0A08     		slli	a6,a6,2
 1154 008c 1307A002 		li	a4,42
 1155 0090 2698     		add	a6,s1,a6
 1156              	.LBE469:
 1157              	.LBE475:
 1158              	.LBE481:
 1159              		.loc 1 134 2
 1160 0092 5E95     		add	a0,a0,s7
 1161              	.LBB482:
 1162              	.LBB476:
 1163              	.LBB470:
  58:lcd.c         ****    w%=256;                                //...and advance write index!
 1164              		.loc 1 58 14
 1165 0094 2320E800 		sw	a4,0(a6)
GAS LISTING /tmp/ccIfjRGV.s 			page 27


  59:lcd.c         **** }
 1166              		.loc 1 59 4 is_stmt 1
  59:lcd.c         **** }
 1167              		.loc 1 59 5 is_stmt 0
 1168 0098 1CC0     		sw	a5,0(s0)
 1169              	.LVL60:
 1170              	.LBE470:
 1171              	.LBE476:
 1172              	.LBE482:
 1173              		.loc 1 134 2 is_stmt 1
 1174 009a 97000000 		call	LCD_WR_DATA
 1174      E7800000 
 1175              	.LVL61:
 135:lcd.c         **** 	LCD_WR_DATA(x2+lcd_conf.offset_x);
 1176              		.loc 1 135 2
 1177              		.loc 1 135 25 is_stmt 0
 1178 00a2 03452A00 		lbu	a0,2(s4)
 1179              		.loc 1 135 2
 1180 00a6 5A95     		add	a0,a0,s6
 1181 00a8 97000000 		call	LCD_WR_DATA
 1181      E7800000 
 1182              	.LVL62:
 136:lcd.c         **** 	LCD_WR_REG(0x2b);  // row address setting
 1183              		.loc 1 136 2 is_stmt 1
 120:lcd.c         **** }
 1184              		.loc 1 120 5
 1185              	.LBB483:
 1186              	.LBB484:
 1187              	.LBB485:
  57:lcd.c         ****    queue[w++]=dat;                        //...If/when not then store data...
 1188              		.loc 1 57 4
  57:lcd.c         ****    queue[w++]=dat;                        //...If/when not then store data...
 1189              		.loc 1 57 14 is_stmt 0
 1190 00b0 1440     		lw	a3,0(s0)
  57:lcd.c         ****    queue[w++]=dat;                        //...If/when not then store data...
 1191              		.loc 1 57 10
 1192 00b2 83A50A00 		lw	a1,0(s5)
  57:lcd.c         ****    queue[w++]=dat;                        //...If/when not then store data...
 1193              		.loc 1 57 14
 1194 00b6 13871600 		addi	a4,a3,1
  57:lcd.c         ****    queue[w++]=dat;                        //...If/when not then store data...
 1195              		.loc 1 57 17
 1196 00ba 9357F741 		srai	a5,a4,31
 1197 00be 13D68701 		srli	a2,a5,24
 1198 00c2 B307C700 		add	a5,a4,a2
 1199 00c6 93F7F70F 		andi	a5,a5,255
 1200 00ca 918F     		sub	a5,a5,a2
  57:lcd.c         ****    queue[w++]=dat;                        //...If/when not then store data...
 1201              		.loc 1 57 10
 1202 00cc 6394B702 		bne	a5,a1,.L58
 1203              	.L59:
  57:lcd.c         ****    queue[w++]=dat;                        //...If/when not then store data...
 1204              		.loc 1 57 27 is_stmt 1
 1205 00d0 97000000 		call	LCD_WR_Queue
 1205      E7800000 
 1206              	.LVL63:
  57:lcd.c         ****    queue[w++]=dat;                        //...If/when not then store data...
GAS LISTING /tmp/ccIfjRGV.s 			page 28


 1207              		.loc 1 57 14 is_stmt 0
 1208 00d8 1440     		lw	a3,0(s0)
  57:lcd.c         ****    queue[w++]=dat;                        //...If/when not then store data...
 1209              		.loc 1 57 10
 1210 00da 03A60A00 		lw	a2,0(s5)
  57:lcd.c         ****    queue[w++]=dat;                        //...If/when not then store data...
 1211              		.loc 1 57 14
 1212 00de 93871600 		addi	a5,a3,1
  57:lcd.c         ****    queue[w++]=dat;                        //...If/when not then store data...
 1213              		.loc 1 57 17
 1214 00e2 13D7F741 		srai	a4,a5,31
 1215 00e6 6183     		srli	a4,a4,24
 1216 00e8 BA97     		add	a5,a5,a4
 1217 00ea 93F7F70F 		andi	a5,a5,255
 1218 00ee 998F     		sub	a5,a5,a4
  57:lcd.c         ****    queue[w++]=dat;                        //...If/when not then store data...
 1219              		.loc 1 57 10
 1220 00f0 E380C7FE 		beq	a5,a2,.L59
 1221              	.L58:
  58:lcd.c         ****    w%=256;                                //...and advance write index!
 1222              		.loc 1 58 4 is_stmt 1
 1223              	.LBE485:
 1224              	.LBE484:
 1225              	.LBE483:
 137:lcd.c         **** 	LCD_WR_DATA(y1+lcd_conf.offset_y);
 1226              		.loc 1 137 25 is_stmt 0
 1227 00f4 03453A00 		lbu	a0,3(s4)
 1228              	.LBB490:
 1229              	.LBB488:
 1230              	.LBB486:
  58:lcd.c         ****    w%=256;                                //...and advance write index!
 1231              		.loc 1 58 14
 1232 00f8 8A06     		slli	a3,a3,2
 1233 00fa A696     		add	a3,s1,a3
 1234 00fc 1307B002 		li	a4,43
 1235              	.LBE486:
 1236              	.LBE488:
 1237              	.LBE490:
 1238              		.loc 1 137 2
 1239 0100 4E95     		add	a0,a0,s3
 1240              	.LBB491:
 1241              	.LBB489:
 1242              	.LBB487:
  58:lcd.c         ****    w%=256;                                //...and advance write index!
 1243              		.loc 1 58 14
 1244 0102 98C2     		sw	a4,0(a3)
  59:lcd.c         **** }
 1245              		.loc 1 59 4 is_stmt 1
  59:lcd.c         **** }
 1246              		.loc 1 59 5 is_stmt 0
 1247 0104 1CC0     		sw	a5,0(s0)
 1248              	.LVL64:
 1249              	.LBE487:
 1250              	.LBE489:
 1251              	.LBE491:
 1252              		.loc 1 137 2 is_stmt 1
 1253 0106 97000000 		call	LCD_WR_DATA
GAS LISTING /tmp/ccIfjRGV.s 			page 29


 1253      E7800000 
 1254              	.LVL65:
 138:lcd.c         **** 	LCD_WR_DATA(y2+lcd_conf.offset_y);
 1255              		.loc 1 138 2
 1256              		.loc 1 138 25 is_stmt 0
 1257 010e 03453A00 		lbu	a0,3(s4)
 1258              		.loc 1 138 2
 1259 0112 4A95     		add	a0,a0,s2
 1260 0114 97000000 		call	LCD_WR_DATA
 1260      E7800000 
 1261              	.LVL66:
 139:lcd.c         **** 	LCD_WR_REG(0x2c);  // Memory write
 1262              		.loc 1 139 2 is_stmt 1
 120:lcd.c         **** }
 1263              		.loc 1 120 5
  57:lcd.c         ****    queue[w++]=dat;                        //...If/when not then store data...
 1264              		.loc 1 57 4
 1265              	.LBB492:
 1266              	.LBB493:
 1267              	.LBB494:
 1268              	.LBB495:
  57:lcd.c         ****    queue[w++]=dat;                        //...If/when not then store data...
 1269              		.loc 1 57 14 is_stmt 0
 1270 011c 1440     		lw	a3,0(s0)
  57:lcd.c         ****    queue[w++]=dat;                        //...If/when not then store data...
 1271              		.loc 1 57 10
 1272 011e 83A50A00 		lw	a1,0(s5)
  57:lcd.c         ****    queue[w++]=dat;                        //...If/when not then store data...
 1273              		.loc 1 57 14
 1274 0122 13871600 		addi	a4,a3,1
  57:lcd.c         ****    queue[w++]=dat;                        //...If/when not then store data...
 1275              		.loc 1 57 17
 1276 0126 9357F741 		srai	a5,a4,31
 1277 012a 13D68701 		srli	a2,a5,24
 1278 012e B307C700 		add	a5,a4,a2
 1279 0132 93F7F70F 		andi	a5,a5,255
 1280 0136 918F     		sub	a5,a5,a2
  57:lcd.c         ****    queue[w++]=dat;                        //...If/when not then store data...
 1281              		.loc 1 57 10
 1282 0138 6394B702 		bne	a5,a1,.L60
 1283              	.L61:
  57:lcd.c         ****    queue[w++]=dat;                        //...If/when not then store data...
 1284              		.loc 1 57 27 is_stmt 1
 1285 013c 97000000 		call	LCD_WR_Queue
 1285      E7800000 
 1286              	.LVL67:
  57:lcd.c         ****    queue[w++]=dat;                        //...If/when not then store data...
 1287              		.loc 1 57 14 is_stmt 0
 1288 0144 1440     		lw	a3,0(s0)
  57:lcd.c         ****    queue[w++]=dat;                        //...If/when not then store data...
 1289              		.loc 1 57 10
 1290 0146 03A60A00 		lw	a2,0(s5)
  57:lcd.c         ****    queue[w++]=dat;                        //...If/when not then store data...
 1291              		.loc 1 57 14
 1292 014a 93871600 		addi	a5,a3,1
  57:lcd.c         ****    queue[w++]=dat;                        //...If/when not then store data...
 1293              		.loc 1 57 17
GAS LISTING /tmp/ccIfjRGV.s 			page 30


 1294 014e 13D7F741 		srai	a4,a5,31
 1295 0152 6183     		srli	a4,a4,24
 1296 0154 BA97     		add	a5,a5,a4
 1297 0156 93F7F70F 		andi	a5,a5,255
 1298 015a 998F     		sub	a5,a5,a4
  57:lcd.c         ****    queue[w++]=dat;                        //...If/when not then store data...
 1299              		.loc 1 57 10
 1300 015c E380C7FE 		beq	a5,a2,.L61
 1301              	.L60:
  58:lcd.c         ****    w%=256;                                //...and advance write index!
 1302              		.loc 1 58 4 is_stmt 1
  59:lcd.c         **** }
 1303              		.loc 1 59 5 is_stmt 0
 1304 0160 1CC0     		sw	a5,0(s0)
 1305              	.LBE495:
 1306              	.LBE494:
 1307              	.LBE493:
 1308              	.LBE492:
 140:lcd.c         **** }
 1309              		.loc 1 140 1
 1310 0162 B250     		lw	ra,44(sp)
 1311              		.cfi_restore 1
 1312 0164 2254     		lw	s0,40(sp)
 1313              		.cfi_restore 8
 1314              	.LBB499:
 1315              	.LBB498:
 1316              	.LBB497:
 1317              	.LBB496:
  58:lcd.c         ****    w%=256;                                //...and advance write index!
 1318              		.loc 1 58 14
 1319 0166 8A06     		slli	a3,a3,2
 1320 0168 A696     		add	a3,s1,a3
 1321 016a 1307C002 		li	a4,44
 1322 016e 98C2     		sw	a4,0(a3)
  59:lcd.c         **** }
 1323              		.loc 1 59 4 is_stmt 1
 1324              	.LVL68:
 1325              	.LBE496:
 1326              	.LBE497:
 1327              	.LBE498:
 1328              	.LBE499:
 1329              		.loc 1 140 1 is_stmt 0
 1330 0170 9254     		lw	s1,36(sp)
 1331              		.cfi_restore 9
 1332 0172 0259     		lw	s2,32(sp)
 1333              		.cfi_restore 18
 1334              	.LVL69:
 1335 0174 F249     		lw	s3,28(sp)
 1336              		.cfi_restore 19
 1337              	.LVL70:
 1338 0176 624A     		lw	s4,24(sp)
 1339              		.cfi_restore 20
 1340 0178 D24A     		lw	s5,20(sp)
 1341              		.cfi_restore 21
 1342 017a 424B     		lw	s6,16(sp)
 1343              		.cfi_restore 22
 1344              	.LVL71:
GAS LISTING /tmp/ccIfjRGV.s 			page 31


 1345 017c B24B     		lw	s7,12(sp)
 1346              		.cfi_restore 23
 1347              	.LVL72:
 1348 017e 4561     		addi	sp,sp,48
 1349              	.LCFI22:
 1350              		.cfi_def_cfa_offset 0
 1351 0180 8280     		jr	ra
 1352              		.cfi_endproc
 1353              	.LFE10:
 1355              		.section	.text.LCD_ShowChar.part.3,"ax",@progbits
 1356              		.align	1
 1358              	LCD_ShowChar.part.3:
 1359              	.LFB32:
 141:lcd.c         **** 
 142:lcd.c         **** /*!
 143:lcd.c         ****     \brief      configure the SPI peripheral
 144:lcd.c         ****     \param[in]  none
 145:lcd.c         ****     \param[out] none
 146:lcd.c         ****     \retval     none
 147:lcd.c         **** */
 148:lcd.c         **** void spi_config(void)
 149:lcd.c         **** {
 150:lcd.c         ****     spi_parameter_struct spi_init_struct;
 151:lcd.c         ****     /* deinitilize SPI and the parameters */
 152:lcd.c         ****     OLED_CS_Set();
 153:lcd.c         ****     spi_struct_para_init(&spi_init_struct);
 154:lcd.c         **** 
 155:lcd.c         ****     /* SPI1 parameter config */
 156:lcd.c         ****     spi_init_struct.trans_mode           = SPI_TRANSMODE_FULLDUPLEX;
 157:lcd.c         ****     spi_init_struct.device_mode          = SPI_MASTER;
 158:lcd.c         ****     spi_init_struct.frame_size           = SPI_FRAMESIZE_8BIT;
 159:lcd.c         ****     spi_init_struct.clock_polarity_phase = SPI_CK_PL_HIGH_PH_2EDGE;
 160:lcd.c         ****     spi_init_struct.nss                  = SPI_NSS_SOFT;
 161:lcd.c         ****     spi_init_struct.prescale             = SPI_PSC_4;
 162:lcd.c         ****     spi_init_struct.endian               = SPI_ENDIAN_MSB;
 163:lcd.c         ****     spi_init(SPI1, &spi_init_struct);
 164:lcd.c         **** 
 165:lcd.c         **** 	spi_crc_polynomial_set(SPI1,7);
 166:lcd.c         **** 	spi_enable(SPI1);
 167:lcd.c         **** }
 168:lcd.c         **** 
 169:lcd.c         **** void Lcd_SetType(int type){
 170:lcd.c         **** 	if(type == LCD_NORMAL){
 171:lcd.c         **** 		lcd_conf.configured = 1;
 172:lcd.c         **** 		lcd_conf.offset_x = 1;
 173:lcd.c         **** 		lcd_conf.offset_y = 26;
 174:lcd.c         **** 		lcd_conf.inverted = 0;
 175:lcd.c         **** 	}
 176:lcd.c         **** 	if(type == LCD_INVERTED){
 177:lcd.c         **** 		lcd_conf.configured = 1;
 178:lcd.c         **** 		lcd_conf.offset_x = 0;
 179:lcd.c         **** 		lcd_conf.offset_y = 24;
 180:lcd.c         **** 		lcd_conf.inverted = 1;
 181:lcd.c         **** 	}
 182:lcd.c         **** }
 183:lcd.c         **** 
 184:lcd.c         **** 
GAS LISTING /tmp/ccIfjRGV.s 			page 32


 185:lcd.c         **** /*
 186:lcd.c         **** Function description: LCD initialization function
 187:lcd.c         **** Entry data: None
 188:lcd.c         **** Return value: None
 189:lcd.c         **** */
 190:lcd.c         **** void Lcd_Init(void)
 191:lcd.c         **** {
 192:lcd.c         **** 	if(!lcd_conf.configured) Lcd_SetType(LCD_NORMAL);
 193:lcd.c         **** 	rcu_periph_clock_enable(RCU_GPIOB);
 194:lcd.c         **** 	rcu_periph_clock_enable(RCU_GPIOC);
 195:lcd.c         **** 
 196:lcd.c         ****  	rcu_periph_clock_enable(RCU_AF);
 197:lcd.c         **** 	rcu_periph_clock_enable(RCU_SPI1);
 198:lcd.c         **** 	
 199:lcd.c         ****     gpio_init(GPIOB, GPIO_MODE_AF_PP, GPIO_OSPEED_50MHZ, GPIO_PIN_13 |GPIO_PIN_14| GPIO_PIN_15);
 200:lcd.c         **** 	gpio_init(GPIOC, GPIO_MODE_OUT_PP, GPIO_OSPEED_50MHZ, GPIO_PIN_13 | GPIO_PIN_15); //CS
 201:lcd.c         **** 
 202:lcd.c         **** 	spi_config();
 203:lcd.c         **** 
 204:lcd.c         **** 	gpio_bit_reset(GPIOC, GPIO_PIN_13 | GPIO_PIN_15);
 205:lcd.c         **** 	LCD_Wait_On_Queue();
 206:lcd.c         **** 	lcd_delay_1ms(100);
 207:lcd.c         **** 	
 208:lcd.c         **** 
 209:lcd.c         **** 	LCD_WR_REG(0x01); 	//SW reset
 210:lcd.c         **** 	LCD_Wait_On_Queue();
 211:lcd.c         **** 	lcd_delay_1ms(120);
 212:lcd.c         **** 	
 213:lcd.c         **** 
 214:lcd.c         **** 	LCD_WR_REG(0x11); 	//SLPOUT
 215:lcd.c         **** 	LCD_Wait_On_Queue();
 216:lcd.c         **** 	lcd_delay_1ms(100);
 217:lcd.c         **** 
 218:lcd.c         **** 	if(lcd_conf.inverted) LCD_WR_REG(0x22); 
 219:lcd.c         **** 	else				  LCD_WR_REG(0x21); 	//INVON
 220:lcd.c         **** 
 221:lcd.c         **** 	LCD_WR_REG(0xB1); 	//FRMCTRL1 - Full color
 222:lcd.c         **** 	LCD_WR_DATA8(0x05); // Framerate = 333khz / (25) * (196) = 67.9fps
 223:lcd.c         **** 	LCD_WR_DATA8(0x3A);
 224:lcd.c         **** 	LCD_WR_DATA8(0x3A);
 225:lcd.c         **** 
 226:lcd.c         **** 	LCD_WR_REG(0xB2);	//FRMCTRL - 8-bit color
 227:lcd.c         **** 	LCD_WR_DATA8(0x05); //fps = 67.9
 228:lcd.c         **** 	LCD_WR_DATA8(0x3A);
 229:lcd.c         **** 	LCD_WR_DATA8(0x3A);
 230:lcd.c         **** 
 231:lcd.c         **** 	LCD_WR_REG(0xB3);   //Partial mode
 232:lcd.c         **** 	LCD_WR_DATA8(0x05);  
 233:lcd.c         **** 	LCD_WR_DATA8(0x3A);
 234:lcd.c         **** 	LCD_WR_DATA8(0x3A);
 235:lcd.c         **** 	LCD_WR_DATA8(0x05);
 236:lcd.c         **** 	LCD_WR_DATA8(0x3A);
 237:lcd.c         **** 	LCD_WR_DATA8(0x3A);
 238:lcd.c         **** 
 239:lcd.c         **** 	LCD_WR_REG(0xB4);  //INVCTR - Inversion control
 240:lcd.c         **** 	LCD_WR_DATA8(0x03);//Line inversion(full color) | Frame inversion
 241:lcd.c         **** 
GAS LISTING /tmp/ccIfjRGV.s 			page 33


 242:lcd.c         **** 	LCD_WR_REG(0xC0);  //PWRCTR1 - Set GVDD voltage
 243:lcd.c         **** 	LCD_WR_DATA8(0x62);//
 244:lcd.c         **** 	LCD_WR_DATA8(0x02);//
 245:lcd.c         **** 	LCD_WR_DATA8(0x04);//
 246:lcd.c         **** 
 247:lcd.c         **** 	LCD_WR_REG(0xC1); //More power regulation
 248:lcd.c         **** 	LCD_WR_DATA8(0xC0);
 249:lcd.c         **** 
 250:lcd.c         **** 	LCD_WR_REG(0xC2); //Same
 251:lcd.c         **** 	LCD_WR_DATA8(0x0D);
 252:lcd.c         **** 	LCD_WR_DATA8(0x00);
 253:lcd.c         **** 
 254:lcd.c         **** 	LCD_WR_REG(0xC3); //same
 255:lcd.c         **** 	LCD_WR_DATA8(0x8D);
 256:lcd.c         **** 	LCD_WR_DATA8(0x6A);   
 257:lcd.c         **** 
 258:lcd.c         **** 	LCD_WR_REG(0xC4);
 259:lcd.c         **** 	LCD_WR_DATA8(0x8D); 
 260:lcd.c         **** 	LCD_WR_DATA8(0xEE); 
 261:lcd.c         **** 
 262:lcd.c         **** 	LCD_WR_REG(0xC5);  /*VCOM*/
 263:lcd.c         **** 	LCD_WR_DATA8(0x0E);    
 264:lcd.c         **** 
 265:lcd.c         **** 	LCD_WR_REG(0xE0);  //Gamma correction
 266:lcd.c         **** 	LCD_WR_DATA8(0x10);
 267:lcd.c         **** 	LCD_WR_DATA8(0x0E);
 268:lcd.c         **** 	LCD_WR_DATA8(0x02);
 269:lcd.c         **** 	LCD_WR_DATA8(0x03);
 270:lcd.c         **** 	LCD_WR_DATA8(0x0E);
 271:lcd.c         **** 	LCD_WR_DATA8(0x07);
 272:lcd.c         **** 	LCD_WR_DATA8(0x02);
 273:lcd.c         **** 	LCD_WR_DATA8(0x07);
 274:lcd.c         **** 	LCD_WR_DATA8(0x0A);
 275:lcd.c         **** 	LCD_WR_DATA8(0x12);
 276:lcd.c         **** 	LCD_WR_DATA8(0x27);
 277:lcd.c         **** 	LCD_WR_DATA8(0x37);
 278:lcd.c         **** 	LCD_WR_DATA8(0x00);
 279:lcd.c         **** 	LCD_WR_DATA8(0x0D);
 280:lcd.c         **** 	LCD_WR_DATA8(0x0E);
 281:lcd.c         **** 	LCD_WR_DATA8(0x10);
 282:lcd.c         **** 
 283:lcd.c         **** 	LCD_WR_REG(0xE1);
 284:lcd.c         **** 	LCD_WR_DATA8(0x10);
 285:lcd.c         **** 	LCD_WR_DATA8(0x0E);
 286:lcd.c         **** 	LCD_WR_DATA8(0x03);
 287:lcd.c         **** 	LCD_WR_DATA8(0x03);
 288:lcd.c         **** 	LCD_WR_DATA8(0x0F);
 289:lcd.c         **** 	LCD_WR_DATA8(0x06);
 290:lcd.c         **** 	LCD_WR_DATA8(0x02);
 291:lcd.c         **** 	LCD_WR_DATA8(0x08);
 292:lcd.c         **** 	LCD_WR_DATA8(0x0A);
 293:lcd.c         **** 	LCD_WR_DATA8(0x13);
 294:lcd.c         **** 	LCD_WR_DATA8(0x26);
 295:lcd.c         **** 	LCD_WR_DATA8(0x36);
 296:lcd.c         **** 	LCD_WR_DATA8(0x00);
 297:lcd.c         **** 	LCD_WR_DATA8(0x0D);
 298:lcd.c         **** 	LCD_WR_DATA8(0x0E);
GAS LISTING /tmp/ccIfjRGV.s 			page 34


 299:lcd.c         **** 	LCD_WR_DATA8(0x10);
 300:lcd.c         **** 
 301:lcd.c         **** 	LCD_WR_REG(0x3A);  //Set color resolution
 302:lcd.c         **** 	LCD_WR_DATA8(0x05);//16 bit color
 303:lcd.c         **** 
 304:lcd.c         **** 	LCD_WR_REG(0x36); //Data access mode
 305:lcd.c         **** 	LCD_WR_DATA8(0x78);
 306:lcd.c         **** 	LCD_WR_REG(0x29); 
 307:lcd.c         **** } 
 308:lcd.c         **** 
 309:lcd.c         **** 
 310:lcd.c         **** /*
 311:lcd.c         **** Function description: LCD clear screen function
 312:lcd.c         **** Entry data: Color: color to set as background
 313:lcd.c         **** Return value: None
 314:lcd.c         **** */
 315:lcd.c         **** void LCD_Clear(u16 Color)
 316:lcd.c         **** {
 317:lcd.c         **** 	u16 i,j;  	
 318:lcd.c         **** 	LCD_Address_Set(0,0,LCD_W-1,LCD_H-1);
 319:lcd.c         ****     for(i=0;i<LCD_W;i++)
 320:lcd.c         **** 	  {
 321:lcd.c         **** 			for (j=0;j<LCD_H;j++)
 322:lcd.c         **** 				{
 323:lcd.c         **** 					LCD_WR_DATA(Color);
 324:lcd.c         **** 				}
 325:lcd.c         **** 	  }
 326:lcd.c         **** }
 327:lcd.c         **** 
 328:lcd.c         **** 
 329:lcd.c         **** /*
 330:lcd.c         **** Function description: LCD display Chinese characters
 331:lcd.c         **** Entry data:  x, y: start coordinates
 332:lcd.c         ****   index: Chinese character number
 333:lcd.c         ****   size: font size
 334:lcd.c         **** Return value: None
 335:lcd.c         **** */
 336:lcd.c         **** void LCD_ShowChinese(u16 x,u16 y,u8 index,u8 size,u16 color)	
 337:lcd.c         **** {  
 338:lcd.c         **** 	u8 i,j;
 339:lcd.c         **** 	u8 *temp,size1;
 340:lcd.c         **** 	if(size==16){temp=Hzk16;}               // Choose a font size
 341:lcd.c         **** 	if(size==32){temp=Hzk32;}
 342:lcd.c         ****     LCD_Address_Set(x,y,x+size-1,y+size-1); // Set a region of Chinese characters
 343:lcd.c         ****     size1=size*size/8;                      // The bytes occupied by a Chinese character
 344:lcd.c         **** 	temp+=index*size1;                      // Start of writing
 345:lcd.c         **** 	for(j=0;j<size1;j++)
 346:lcd.c         **** 	{
 347:lcd.c         **** 		for(i=0;i<8;i++)
 348:lcd.c         **** 		{
 349:lcd.c         **** 		 	if((*temp&(1<<i))!=0) {         // Read from the lower bit of the data
 350:lcd.c         **** 				LCD_WR_DATA(color);         // set dot color
 351:lcd.c         **** 			}
 352:lcd.c         **** 			else
 353:lcd.c         **** 			{
 354:lcd.c         **** 				LCD_WR_DATA(BACK_COLOR);    // set dot color to background
 355:lcd.c         **** 			}
GAS LISTING /tmp/ccIfjRGV.s 			page 35


 356:lcd.c         **** 		}
 357:lcd.c         **** 		temp++;
 358:lcd.c         **** 	 }
 359:lcd.c         **** }
 360:lcd.c         **** 
 361:lcd.c         **** 
 362:lcd.c         **** /*
 363:lcd.c         ****   Function description: LCD display Chinese characters
 364:lcd.c         ****   Entry data: x, y: start coordinates
 365:lcd.c         ****   Return value: None
 366:lcd.c         **** */
 367:lcd.c         **** void LCD_DrawPoint(u16 x,u16 y,u16 color)
 368:lcd.c         **** {
 369:lcd.c         **** 	LCD_Address_Set(x,y,x,y); // Set cursor position
 370:lcd.c         **** 	LCD_WR_DATA(color);
 371:lcd.c         **** } 
 372:lcd.c         **** 
 373:lcd.c         **** 
 374:lcd.c         **** /*
 375:lcd.c         ****   Function description: LCD draws a large dot
 376:lcd.c         **** Entry data: x, y: start coordinates
 377:lcd.c         **** Return value: None
 378:lcd.c         **** */
 379:lcd.c         **** void LCD_DrawPoint_big(u16 x,u16 y,u16 color)
 380:lcd.c         **** {
 381:lcd.c         **** 	LCD_Fill(x-1,y-1,x+1,y+1,color);
 382:lcd.c         **** } 
 383:lcd.c         **** 
 384:lcd.c         **** 
 385:lcd.c         **** /*
 386:lcd.c         ****   Function description: fill color in the specified area
 387:lcd.c         ****   Entry data: xsta, ysta:  start coordinates
 388:lcd.c         ****               xend, yend:  end coordinates
 389:lcd.c         ****   Return value: None
 390:lcd.c         **** */
 391:lcd.c         **** void LCD_Fill(u16 xsta,u16 ysta,u16 xend,u16 yend,u16 color)
 392:lcd.c         **** {          
 393:lcd.c         **** 	u16 i,j; 
 394:lcd.c         **** 	LCD_Address_Set(xsta,ysta,xend,yend);          //Set cursor position
 395:lcd.c         **** 	for(i=ysta;i<=yend;i++)
 396:lcd.c         **** 	{													   	 	
 397:lcd.c         **** 		for(j=xsta;j<=xend;j++)LCD_WR_DATA(color); //Set cursor position
 398:lcd.c         **** 	} 					  	    
 399:lcd.c         **** }
 400:lcd.c         **** 
 401:lcd.c         **** 
 402:lcd.c         **** /*
 403:lcd.c         ****   Function description: draw a line
 404:lcd.c         **** Entry data: x1, y1:  start coordinates
 405:lcd.c         **** x2, y2:  end coordinates
 406:lcd.c         **** Return value: None
 407:lcd.c         **** ******************************************************************************/
 408:lcd.c         **** void LCD_DrawLine(u16 x1,u16 y1,u16 x2,u16 y2,u16 color)
 409:lcd.c         **** {
 410:lcd.c         **** 	u16 t; 
 411:lcd.c         **** 	int xerr=0,yerr=0,delta_x,delta_y,distance;
 412:lcd.c         **** 	int incx,incy,uRow,uCol;
GAS LISTING /tmp/ccIfjRGV.s 			page 36


 413:lcd.c         **** 	delta_x=x2-x1;                       // Calculate coordinate increments
 414:lcd.c         **** 	delta_y=y2-y1;
 415:lcd.c         **** 	uRow=x1;                             // Coordinates of starting point of drawing
 416:lcd.c         **** 	uCol=y1;
 417:lcd.c         **** 	if(delta_x>0)incx=1;                 // Set single step direction
 418:lcd.c         **** 	else if (delta_x==0)incx=0;          // Vertical line
 419:lcd.c         **** 	else {incx=-1;delta_x=-delta_x;}
 420:lcd.c         **** 	if(delta_y>0)incy=1;
 421:lcd.c         **** 	else if (delta_y==0)incy=0;          // Horizontal line
 422:lcd.c         **** 	else {incy=-1;delta_y=-delta_y;}
 423:lcd.c         **** 	if(delta_x>delta_y)distance=delta_x; // Pick basic incremental axis
 424:lcd.c         **** 	else distance=delta_y;
 425:lcd.c         **** 	for(t=0;t<distance+1;t++)
 426:lcd.c         **** 	{
 427:lcd.c         **** 		LCD_DrawPoint(uRow,uCol,color);  // Dot
 428:lcd.c         **** 		xerr+=delta_x;
 429:lcd.c         **** 		yerr+=delta_y;
 430:lcd.c         **** 		if(xerr>distance)
 431:lcd.c         **** 		{
 432:lcd.c         **** 			xerr-=distance;
 433:lcd.c         **** 			uRow+=incx;
 434:lcd.c         **** 		}
 435:lcd.c         **** 		if(yerr>distance)
 436:lcd.c         **** 		{
 437:lcd.c         **** 			yerr-=distance;
 438:lcd.c         **** 			uCol+=incy;
 439:lcd.c         **** 		}
 440:lcd.c         **** 	}
 441:lcd.c         **** }
 442:lcd.c         **** 
 443:lcd.c         **** 
 444:lcd.c         **** /*
 445:lcd.c         ****   Function description: draw a rectangle
 446:lcd.c         **** Entry data: x1, y1:  start coordinates
 447:lcd.c         **** x2, y2:  end coordinates
 448:lcd.c         **** Return value: None
 449:lcd.c         **** */
 450:lcd.c         **** void LCD_DrawRectangle(u16 x1, u16 y1, u16 x2, u16 y2,u16 color)
 451:lcd.c         **** {
 452:lcd.c         **** 	LCD_DrawLine(x1,y1,x2,y1,color);
 453:lcd.c         **** 	LCD_DrawLine(x1,y1,x1,y2,color);
 454:lcd.c         **** 	LCD_DrawLine(x1,y2,x2,y2,color);
 455:lcd.c         **** 	LCD_DrawLine(x2,y1,x2,y2,color);
 456:lcd.c         **** }
 457:lcd.c         **** 
 458:lcd.c         **** 
 459:lcd.c         **** /*
 460:lcd.c         ****   Function description: draw circle
 461:lcd.c         **** Entry data: x0, y0:  center coordinates
 462:lcd.c         ****      r:  radius
 463:lcd.c         **** Return value: None
 464:lcd.c         **** */
 465:lcd.c         **** void Draw_Circle(u16 x0,u16 y0,u8 r,u16 color)
 466:lcd.c         **** {
 467:lcd.c         **** 	int a,b;
 468:lcd.c         **** 	// int di;
 469:lcd.c         **** 	a=0;b=r;	  
GAS LISTING /tmp/ccIfjRGV.s 			page 37


 470:lcd.c         **** 	while(a<=b)
 471:lcd.c         **** 	{
 472:lcd.c         **** 		LCD_DrawPoint(x0-b,y0-a,color);  //3           
 473:lcd.c         **** 		LCD_DrawPoint(x0+b,y0-a,color);  //0           
 474:lcd.c         **** 		LCD_DrawPoint(x0-a,y0+b,color);  //1                
 475:lcd.c         **** 		LCD_DrawPoint(x0-a,y0-b,color);  //2             
 476:lcd.c         **** 		LCD_DrawPoint(x0+b,y0+a,color);  //4               
 477:lcd.c         **** 		LCD_DrawPoint(x0+a,y0-b,color);  //5
 478:lcd.c         **** 		LCD_DrawPoint(x0+a,y0+b,color);             //6 
 479:lcd.c         **** 		LCD_DrawPoint(x0-b,y0+a,color);             //7
 480:lcd.c         **** 		a++;
 481:lcd.c         **** 		if((a*a+b*b)>(r*r)) // Determine whether the points to be drawn are too far away
 482:lcd.c         **** 		{
 483:lcd.c         **** 			b--;
 484:lcd.c         **** 		}
 485:lcd.c         **** 	}
 486:lcd.c         **** }
 487:lcd.c         **** 
 488:lcd.c         **** 
 489:lcd.c         **** /*
 490:lcd.c         ****   Function description: display characters
 491:lcd.c         **** Entry data: x, y:  start point coordinates
 492:lcd.c         ****  num:  characters to display
 493:lcd.c         **** mode:  1: transparent mode
 494:lcd.c         ****                      0: non-transparent mode
 495:lcd.c         **** Return value: None
 496:lcd.c         **** */
 497:lcd.c         **** void LCD_ShowChar(u16 x,u16 y,u8 num,u8 mode,u16 color)
 1360              		.loc 1 497 6 is_stmt 1
 1361              		.cfi_startproc
 1362              	.LVL73:
 1363 0000 7971     		addi	sp,sp,-48
 1364              	.LCFI23:
 1365              		.cfi_def_cfa_offset 48
 1366 0002 56CA     		sw	s5,20(sp)
 1367              		.cfi_offset 21, -28
 1368 0004 B28A     		mv	s5,a2
 498:lcd.c         **** {
 499:lcd.c         ****     u8 temp;
 500:lcd.c         ****     u8 pos,t;
 501:lcd.c         **** 	  u16 x0=x;    
 502:lcd.c         ****     if(x>LCD_W-8 || y>LCD_H-16)return;	// Outside of display area
 503:lcd.c         **** 	num=num-' ';                        // Get offset value
 1369              		.loc 1 503 5 is_stmt 0
 1370 0006 811A     		addi	s5,s5,-32
 497:lcd.c         **** {
 1371              		.loc 1 497 6
 1372 0008 26D2     		sw	s1,36(sp)
 504:lcd.c         **** 	LCD_Address_Set(x,y,x+8-1,y+16-1);  // Set cursor position
 1373              		.loc 1 504 2
 1374 000a 13067500 		addi	a2,a0,7
 1375              	.LVL74:
 1376              		.cfi_offset 9, -12
 497:lcd.c         **** {
 1377              		.loc 1 497 6
 1378 000e B684     		mv	s1,a3
 1379 0010 93FAFA0F 		andi	s5,s5,0xff
GAS LISTING /tmp/ccIfjRGV.s 			page 38


 1380              		.loc 1 504 2
 1381 0014 9386F500 		addi	a3,a1,15
 1382              	.LVL75:
 497:lcd.c         **** {
 1383              		.loc 1 497 6
 1384 0018 4AD0     		sw	s2,32(sp)
 1385 001a 5AC8     		sw	s6,16(sp)
 1386 001c 5EC6     		sw	s7,12(sp)
 1387 001e 06D6     		sw	ra,44(sp)
 1388 0020 22D4     		sw	s0,40(sp)
 1389 0022 4ECE     		sw	s3,28(sp)
 1390 0024 52CC     		sw	s4,24(sp)
 1391 0026 62C4     		sw	s8,8(sp)
 1392              		.cfi_offset 18, -16
 1393              		.cfi_offset 22, -32
 1394              		.cfi_offset 23, -36
 1395              		.cfi_offset 1, -4
 1396              		.cfi_offset 8, -8
 1397              		.cfi_offset 19, -20
 1398              		.cfi_offset 20, -24
 1399              		.cfi_offset 24, -40
 497:lcd.c         **** {
 1400              		.loc 1 497 6
 1401 0028 AA8B     		mv	s7,a0
 503:lcd.c         **** 	LCD_Address_Set(x,y,x+8-1,y+16-1);  // Set cursor position
 1402              		.loc 1 503 2 is_stmt 1
 1403              	.LVL76:
 1404              		.loc 1 504 2
 497:lcd.c         **** {
 1405              		.loc 1 497 6 is_stmt 0
 1406 002a 2E8B     		mv	s6,a1
 1407 002c 3A89     		mv	s2,a4
 1408 002e 920A     		slli	s5,s5,4
 1409              		.loc 1 504 2
 1410 0030 97000000 		call	LCD_Address_Set
 1410      E7800000 
 1411              	.LVL77:
 505:lcd.c         **** 	if(!mode)
 1412              		.loc 1 505 2 is_stmt 1
 1413              		.loc 1 505 4 is_stmt 0
 1414 0038 A1EC     		bne	s1,zero,.L67
 1415 003a B7090000 		lui	s3,%hi(.LANCHOR4)
 1416 003e 93890900 		addi	s3,s3,%lo(.LANCHOR4)
 1417 0042 93870901 		addi	a5,s3,16
 506:lcd.c         **** 	{
 507:lcd.c         **** 		// non-trasparent mode
 508:lcd.c         **** 		for(pos=0;pos<16;pos++)
 509:lcd.c         **** 		{ 
 510:lcd.c         **** 			temp=asc2_1608[(u16)num*16+pos];  // load 1608 font character
 511:lcd.c         **** 			for(t=0;t<8;t++)
 512:lcd.c         **** 		    {                 
 513:lcd.c         **** 		        if(temp&0x01)LCD_WR_DATA(color);
 514:lcd.c         **** 				else LCD_WR_DATA(BACK_COLOR);
 1418              		.loc 1 514 10
 1419 0046 370A0000 		lui	s4,%hi(BACK_COLOR)
 1420 004a D699     		add	s3,s3,s5
 1421 004c BE9A     		add	s5,a5,s5
GAS LISTING /tmp/ccIfjRGV.s 			page 39


 1422              	.LVL78:
 1423              	.L71:
 510:lcd.c         **** 			for(t=0;t<8;t++)
 1424              		.loc 1 510 4 is_stmt 1
 510:lcd.c         **** 			for(t=0;t<8;t++)
 1425              		.loc 1 510 8 is_stmt 0
 1426 004e 83C40900 		lbu	s1,0(s3)
 1427              	.LVL79:
 511:lcd.c         **** 		    {                 
 1428              		.loc 1 511 4 is_stmt 1
 510:lcd.c         **** 			for(t=0;t<8;t++)
 1429              		.loc 1 510 8 is_stmt 0
 1430 0052 2144     		li	s0,8
 1431              	.LVL80:
 1432              	.L70:
 513:lcd.c         **** 				else LCD_WR_DATA(BACK_COLOR);
 1433              		.loc 1 513 11 is_stmt 1
 513:lcd.c         **** 				else LCD_WR_DATA(BACK_COLOR);
 1434              		.loc 1 513 24
 1435              		.loc 1 514 10
 513:lcd.c         **** 				else LCD_WR_DATA(BACK_COLOR);
 1436              		.loc 1 513 13 is_stmt 0
 1437 0054 93F71400 		andi	a5,s1,1
 513:lcd.c         **** 				else LCD_WR_DATA(BACK_COLOR);
 1438              		.loc 1 513 24
 1439 0058 4A85     		mv	a0,s2
 513:lcd.c         **** 				else LCD_WR_DATA(BACK_COLOR);
 1440              		.loc 1 513 13
 1441 005a 99E3     		bne	a5,zero,.L84
 1442              	.LVL81:
 1443              		.loc 1 514 10
 1444 005c 03250A00 		lw	a0,%lo(BACK_COLOR)(s4)
 1445              	.LVL82:
 1446              	.L84:
 1447 0060 7D14     		addi	s0,s0,-1
 1448              	.LVL83:
 1449 0062 1374F40F 		andi	s0,s0,0xff
 1450 0066 97000000 		call	LCD_WR_DATA
 1450      E7800000 
 1451              	.LVL84:
 515:lcd.c         **** 				temp>>=1;
 1452              		.loc 1 515 5 is_stmt 1
 1453              		.loc 1 515 9 is_stmt 0
 1454 006e 8580     		srli	s1,s1,1
 1455              	.LVL85:
 516:lcd.c         **** 				x++;
 1456              		.loc 1 516 5 is_stmt 1
 511:lcd.c         **** 		    {                 
 1457              		.loc 1 511 4 is_stmt 0
 1458 0070 75F0     		bne	s0,zero,.L70
 517:lcd.c         **** 		    }
 518:lcd.c         **** 			x=x0;
 1459              		.loc 1 518 4 is_stmt 1
 1460              	.LVL86:
 519:lcd.c         **** 			y++;
 1461              		.loc 1 519 4
 1462 0072 8509     		addi	s3,s3,1
GAS LISTING /tmp/ccIfjRGV.s 			page 40


 508:lcd.c         **** 		{ 
 1463              		.loc 1 508 3 is_stmt 0
 1464 0074 E39D3AFD 		bne	s5,s3,.L71
 1465              	.LVL87:
 1466              	.L66:
 520:lcd.c         **** 		}	
 521:lcd.c         **** 	}else
 522:lcd.c         **** 	{
 523:lcd.c         **** 		// Transparent mode
 524:lcd.c         **** 		for(pos=0;pos<16;pos++)
 525:lcd.c         **** 		{
 526:lcd.c         **** 		    temp=asc2_1608[(u16)num*16+pos]; // load 1608 font character
 527:lcd.c         **** 			for(t=0;t<8;t++)
 528:lcd.c         **** 		    {                 
 529:lcd.c         **** 		        if(temp&0x01)LCD_DrawPoint(x+t,y+pos,color); //Draw a dot
 530:lcd.c         **** 		        temp>>=1; 
 531:lcd.c         **** 		    }
 532:lcd.c         **** 		}
 533:lcd.c         **** 	}   	   	 	  
 534:lcd.c         **** }
 1467              		.loc 1 534 1
 1468 0078 B250     		lw	ra,44(sp)
 1469              		.cfi_remember_state
 1470              		.cfi_restore 1
 1471 007a 2254     		lw	s0,40(sp)
 1472              		.cfi_restore 8
 1473 007c 9254     		lw	s1,36(sp)
 1474              		.cfi_restore 9
 1475              	.LVL88:
 1476 007e 0259     		lw	s2,32(sp)
 1477              		.cfi_restore 18
 1478              	.LVL89:
 1479 0080 F249     		lw	s3,28(sp)
 1480              		.cfi_restore 19
 1481 0082 624A     		lw	s4,24(sp)
 1482              		.cfi_restore 20
 1483 0084 D24A     		lw	s5,20(sp)
 1484              		.cfi_restore 21
 1485 0086 424B     		lw	s6,16(sp)
 1486              		.cfi_restore 22
 1487 0088 B24B     		lw	s7,12(sp)
 1488              		.cfi_restore 23
 1489 008a 224C     		lw	s8,8(sp)
 1490              		.cfi_restore 24
 1491 008c 4561     		addi	sp,sp,48
 1492              	.LCFI24:
 1493              		.cfi_def_cfa_offset 0
 1494 008e 8280     		jr	ra
 1495              	.LVL90:
 1496              	.L67:
 1497              	.LCFI25:
 1498              		.cfi_restore_state
 505:lcd.c         **** 	{
 1499              		.loc 1 505 4
 1500 0090 DA89     		mv	s3,s6
 1501 0092 370C0000 		lui	s8,%hi(.LANCHOR4)
 1502 0096 410B     		addi	s6,s6,16
GAS LISTING /tmp/ccIfjRGV.s 			page 41


 1503              	.LVL91:
 1504 0098 130C0C00 		addi	s8,s8,%lo(.LANCHOR4)
 1505 009c B38A3A41 		sub	s5,s5,s3
 1506 00a0 138A8B00 		addi	s4,s7,8
 1507              	.LVL92:
 1508              	.L74:
 526:lcd.c         **** 			for(t=0;t<8;t++)
 1509              		.loc 1 526 7 is_stmt 1
 526:lcd.c         **** 			for(t=0;t<8;t++)
 1510              		.loc 1 526 11 is_stmt 0
 1511 00a4 B3873A01 		add	a5,s5,s3
 1512 00a8 E297     		add	a5,s8,a5
 1513 00aa 83C40700 		lbu	s1,0(a5)
 1514              	.LVL93:
 527:lcd.c         **** 		    {                 
 1515              		.loc 1 527 4 is_stmt 1
 526:lcd.c         **** 			for(t=0;t<8;t++)
 1516              		.loc 1 526 11 is_stmt 0
 1517 00ae 5E84     		mv	s0,s7
 1518 00b0 29A0     		j	.L73
 1519              	.LVL94:
 1520              	.L72:
 530:lcd.c         **** 		    }
 1521              		.loc 1 530 11 is_stmt 1
 1522 00b2 0504     		addi	s0,s0,1
 1523              	.LVL95:
 530:lcd.c         **** 		    }
 1524              		.loc 1 530 15 is_stmt 0
 1525 00b4 8580     		srli	s1,s1,1
 1526              	.LVL96:
 527:lcd.c         **** 		    {                 
 1527              		.loc 1 527 4
 1528 00b6 63068A02 		beq	s4,s0,.L85
 1529              	.L73:
 1530              	.LVL97:
 529:lcd.c         **** 		        temp>>=1; 
 1531              		.loc 1 529 11 is_stmt 1
 529:lcd.c         **** 		        temp>>=1; 
 1532              		.loc 1 529 13 is_stmt 0
 1533 00ba 93F71400 		andi	a5,s1,1
 1534 00be F5DB     		beq	a5,zero,.L72
 529:lcd.c         **** 		        temp>>=1; 
 1535              		.loc 1 529 24 is_stmt 1
 1536              	.LVL98:
 1537              	.LBB500:
 1538              	.LBB501:
 369:lcd.c         **** 	LCD_WR_DATA(color);
 1539              		.loc 1 369 2
 1540 00c0 2286     		mv	a2,s0
 1541 00c2 2285     		mv	a0,s0
 1542 00c4 CE86     		mv	a3,s3
 1543 00c6 CE85     		mv	a1,s3
 1544 00c8 97000000 		call	LCD_Address_Set
 1544      E7800000 
 1545              	.LVL99:
 370:lcd.c         **** } 
 1546              		.loc 1 370 2
GAS LISTING /tmp/ccIfjRGV.s 			page 42


 1547 00d0 4A85     		mv	a0,s2
 1548 00d2 0504     		addi	s0,s0,1
 1549              	.LVL100:
 1550 00d4 97000000 		call	LCD_WR_DATA
 1550      E7800000 
 1551              	.LVL101:
 1552              	.LBE501:
 1553              	.LBE500:
 530:lcd.c         **** 		    }
 1554              		.loc 1 530 11
 530:lcd.c         **** 		    }
 1555              		.loc 1 530 15 is_stmt 0
 1556 00dc 8580     		srli	s1,s1,1
 1557              	.LVL102:
 527:lcd.c         **** 		    {                 
 1558              		.loc 1 527 4
 1559 00de E31E8AFC 		bne	s4,s0,.L73
 1560              	.LVL103:
 1561              	.L85:
 1562 00e2 8509     		addi	s3,s3,1
 1563              	.LVL104:
 524:lcd.c         **** 		{
 1564              		.loc 1 524 3
 1565 00e4 E39069FD 		bne	s3,s6,.L74
 1566 00e8 41BF     		j	.L66
 1567              		.cfi_endproc
 1568              	.LFE32:
 1570              		.section	.text.spi_config,"ax",@progbits
 1571              		.align	1
 1572              		.globl	spi_config
 1574              	spi_config:
 1575              	.LFB11:
 149:lcd.c         ****     spi_parameter_struct spi_init_struct;
 1576              		.loc 1 149 1 is_stmt 1
 1577              		.cfi_startproc
 150:lcd.c         ****     /* deinitilize SPI and the parameters */
 1578              		.loc 1 150 5
 152:lcd.c         ****     spi_struct_para_init(&spi_init_struct);
 1579              		.loc 1 152 5
 149:lcd.c         ****     spi_parameter_struct spi_init_struct;
 1580              		.loc 1 149 1 is_stmt 0
 1581 0000 7971     		addi	sp,sp,-48
 1582              	.LCFI26:
 1583              		.cfi_def_cfa_offset 48
 152:lcd.c         ****     spi_struct_para_init(&spi_init_struct);
 1584              		.loc 1 152 5
 1585 0002 8965     		li	a1,8192
 1586 0004 37150140 		li	a0,1073811456
 149:lcd.c         ****     spi_parameter_struct spi_init_struct;
 1587              		.loc 1 149 1
 1588 0008 06D6     		sw	ra,44(sp)
 1589 000a 22D4     		sw	s0,40(sp)
 1590              		.cfi_offset 1, -4
 1591              		.cfi_offset 8, -8
 152:lcd.c         ****     spi_struct_para_init(&spi_init_struct);
 1592              		.loc 1 152 5
 1593 000c 97000000 		call	gpio_bit_set
GAS LISTING /tmp/ccIfjRGV.s 			page 43


 1593      E7800000 
 1594              	.LVL105:
 153:lcd.c         **** 
 1595              		.loc 1 153 5 is_stmt 1
 1596 0014 4800     		addi	a0,sp,4
 1597 0016 97000000 		call	spi_struct_para_init
 1597      E7800000 
 1598              	.LVL106:
 156:lcd.c         ****     spi_init_struct.device_mode          = SPI_MASTER;
 1599              		.loc 1 156 5
 157:lcd.c         ****     spi_init_struct.frame_size           = SPI_FRAMESIZE_8BIT;
 1600              		.loc 1 157 42 is_stmt 0
 1601 001e 93074010 		li	a5,260
 1602 0022 3EC2     		sw	a5,4(sp)
 159:lcd.c         ****     spi_init_struct.nss                  = SPI_NSS_SOFT;
 1603              		.loc 1 159 42
 1604 0024 8D47     		li	a5,3
 163:lcd.c         **** 
 1605              		.loc 1 163 5
 1606 0026 37440040 		li	s0,1073758208
 159:lcd.c         ****     spi_init_struct.nss                  = SPI_NSS_SOFT;
 1607              		.loc 1 159 42
 1608 002a 3ECC     		sw	a5,24(sp)
 160:lcd.c         ****     spi_init_struct.prescale             = SPI_PSC_4;
 1609              		.loc 1 160 42
 1610 002c 93070020 		li	a5,512
 163:lcd.c         **** 
 1611              		.loc 1 163 5
 1612 0030 4C00     		addi	a1,sp,4
 1613 0032 13050480 		addi	a0,s0,-2048
 160:lcd.c         ****     spi_init_struct.prescale             = SPI_PSC_4;
 1614              		.loc 1 160 42
 1615 0036 3EC8     		sw	a5,16(sp)
 161:lcd.c         ****     spi_init_struct.endian               = SPI_ENDIAN_MSB;
 1616              		.loc 1 161 42
 1617 0038 A147     		li	a5,8
 1618 003a 3ECE     		sw	a5,28(sp)
 156:lcd.c         ****     spi_init_struct.device_mode          = SPI_MASTER;
 1619              		.loc 1 156 42
 1620 003c 02C4     		sw	zero,8(sp)
 157:lcd.c         ****     spi_init_struct.frame_size           = SPI_FRAMESIZE_8BIT;
 1621              		.loc 1 157 5 is_stmt 1
 158:lcd.c         ****     spi_init_struct.clock_polarity_phase = SPI_CK_PL_HIGH_PH_2EDGE;
 1622              		.loc 1 158 5
 158:lcd.c         ****     spi_init_struct.clock_polarity_phase = SPI_CK_PL_HIGH_PH_2EDGE;
 1623              		.loc 1 158 42 is_stmt 0
 1624 003e 02C6     		sw	zero,12(sp)
 159:lcd.c         ****     spi_init_struct.nss                  = SPI_NSS_SOFT;
 1625              		.loc 1 159 5 is_stmt 1
 160:lcd.c         ****     spi_init_struct.prescale             = SPI_PSC_4;
 1626              		.loc 1 160 5
 161:lcd.c         ****     spi_init_struct.endian               = SPI_ENDIAN_MSB;
 1627              		.loc 1 161 5
 162:lcd.c         ****     spi_init(SPI1, &spi_init_struct);
 1628              		.loc 1 162 5
 162:lcd.c         ****     spi_init(SPI1, &spi_init_struct);
 1629              		.loc 1 162 42 is_stmt 0
GAS LISTING /tmp/ccIfjRGV.s 			page 44


 1630 0040 02CA     		sw	zero,20(sp)
 163:lcd.c         **** 
 1631              		.loc 1 163 5 is_stmt 1
 1632 0042 97000000 		call	spi_init
 1632      E7800000 
 1633              	.LVL107:
 165:lcd.c         **** 	spi_enable(SPI1);
 1634              		.loc 1 165 2
 1635 004a 13050480 		addi	a0,s0,-2048
 1636 004e 9D45     		li	a1,7
 1637 0050 97000000 		call	spi_crc_polynomial_set
 1637      E7800000 
 1638              	.LVL108:
 166:lcd.c         **** }
 1639              		.loc 1 166 2
 1640 0058 13050480 		addi	a0,s0,-2048
 1641 005c 97000000 		call	spi_enable
 1641      E7800000 
 1642              	.LVL109:
 167:lcd.c         **** 
 1643              		.loc 1 167 1 is_stmt 0
 1644 0064 B250     		lw	ra,44(sp)
 1645              		.cfi_restore 1
 1646 0066 2254     		lw	s0,40(sp)
 1647              		.cfi_restore 8
 1648 0068 4561     		addi	sp,sp,48
 1649              	.LCFI27:
 1650              		.cfi_def_cfa_offset 0
 1651 006a 8280     		jr	ra
 1652              		.cfi_endproc
 1653              	.LFE11:
 1655              		.section	.text.Lcd_SetType,"ax",@progbits
 1656              		.align	1
 1657              		.globl	Lcd_SetType
 1659              	Lcd_SetType:
 1660              	.LFB12:
 169:lcd.c         **** 	if(type == LCD_NORMAL){
 1661              		.loc 1 169 27 is_stmt 1
 1662              		.cfi_startproc
 1663              	.LVL110:
 170:lcd.c         **** 		lcd_conf.configured = 1;
 1664              		.loc 1 170 2
 170:lcd.c         **** 		lcd_conf.configured = 1;
 1665              		.loc 1 170 4 is_stmt 0
 1666 0000 09E9     		bne	a0,zero,.L89
 171:lcd.c         **** 		lcd_conf.offset_x = 1;
 1667              		.loc 1 171 3 is_stmt 1
 172:lcd.c         **** 		lcd_conf.offset_y = 26;
 1668              		.loc 1 172 3
 173:lcd.c         **** 		lcd_conf.inverted = 0;
 1669              		.loc 1 173 3
 174:lcd.c         **** 	}
 1670              		.loc 1 174 3
 171:lcd.c         **** 		lcd_conf.offset_x = 1;
 1671              		.loc 1 171 23 is_stmt 0
 1672 0002 B707011A 		li	a5,436273152
 1673 0006 37070000 		lui	a4,%hi(.LANCHOR3)
GAS LISTING /tmp/ccIfjRGV.s 			page 45


 1674 000a 8507     		addi	a5,a5,1
 1675 000c 2320F700 		sw	a5,%lo(.LANCHOR3)(a4)
 176:lcd.c         **** 		lcd_conf.configured = 1;
 1676              		.loc 1 176 2 is_stmt 1
 1677 0010 8280     		ret
 1678              	.L89:
 176:lcd.c         **** 		lcd_conf.configured = 1;
 1679              		.loc 1 176 2
 176:lcd.c         **** 		lcd_conf.configured = 1;
 1680              		.loc 1 176 4 is_stmt 0
 1681 0012 8547     		li	a5,1
 1682 0014 631AF500 		bne	a0,a5,.L88
 1683              	.LVL111:
 1684              	.LBB504:
 1685              	.LBB505:
 177:lcd.c         **** 		lcd_conf.offset_x = 0;
 1686              		.loc 1 177 3 is_stmt 1
 178:lcd.c         **** 		lcd_conf.offset_y = 24;
 1687              		.loc 1 178 3
 179:lcd.c         **** 		lcd_conf.inverted = 1;
 1688              		.loc 1 179 3
 180:lcd.c         **** 	}
 1689              		.loc 1 180 3
 177:lcd.c         **** 		lcd_conf.offset_x = 0;
 1690              		.loc 1 177 23 is_stmt 0
 1691 0018 B7070018 		li	a5,402653184
 1692 001c 37070000 		lui	a4,%hi(.LANCHOR3)
 1693 0020 93871710 		addi	a5,a5,257
 1694 0024 2320F700 		sw	a5,%lo(.LANCHOR3)(a4)
 1695              	.LVL112:
 1696              	.L88:
 1697              	.LBE505:
 1698              	.LBE504:
 182:lcd.c         **** 
 1699              		.loc 1 182 1
 1700 0028 8280     		ret
 1701              		.cfi_endproc
 1702              	.LFE12:
 1704              		.section	.text.Lcd_Init,"ax",@progbits
 1705              		.align	1
 1706              		.globl	Lcd_Init
 1708              	Lcd_Init:
 1709              	.LFB13:
 191:lcd.c         **** 	if(!lcd_conf.configured) Lcd_SetType(LCD_NORMAL);
 1710              		.loc 1 191 1 is_stmt 1
 1711              		.cfi_startproc
 192:lcd.c         **** 	rcu_periph_clock_enable(RCU_GPIOB);
 1712              		.loc 1 192 2
 191:lcd.c         **** 	if(!lcd_conf.configured) Lcd_SetType(LCD_NORMAL);
 1713              		.loc 1 191 1 is_stmt 0
 1714 0000 0111     		addi	sp,sp,-32
 1715              	.LCFI28:
 1716              		.cfi_def_cfa_offset 32
 1717 0002 4EC6     		sw	s3,12(sp)
 1718              		.cfi_offset 19, -20
 192:lcd.c         **** 	rcu_periph_clock_enable(RCU_GPIOB);
 1719              		.loc 1 192 14
GAS LISTING /tmp/ccIfjRGV.s 			page 46


 1720 0004 B7090000 		lui	s3,%hi(.LANCHOR3)
 1721 0008 93890900 		addi	s3,s3,%lo(.LANCHOR3)
 192:lcd.c         **** 	rcu_periph_clock_enable(RCU_GPIOB);
 1722              		.loc 1 192 4
 1723 000c 83C70900 		lbu	a5,0(s3)
 191:lcd.c         **** 	if(!lcd_conf.configured) Lcd_SetType(LCD_NORMAL);
 1724              		.loc 1 191 1
 1725 0010 06CE     		sw	ra,28(sp)
 1726 0012 22CC     		sw	s0,24(sp)
 1727 0014 26CA     		sw	s1,20(sp)
 1728 0016 4AC8     		sw	s2,16(sp)
 1729              		.cfi_offset 1, -4
 1730              		.cfi_offset 8, -8
 1731              		.cfi_offset 9, -12
 1732              		.cfi_offset 18, -16
 192:lcd.c         **** 	rcu_periph_clock_enable(RCU_GPIOB);
 1733              		.loc 1 192 4
 1734 0018 91E7     		bne	a5,zero,.L92
 192:lcd.c         **** 	rcu_periph_clock_enable(RCU_GPIOB);
 1735              		.loc 1 192 27 is_stmt 1
 1736              	.LVL113:
 1737              	.LBB506:
 1738              	.LBB507:
 170:lcd.c         **** 		lcd_conf.configured = 1;
 1739              		.loc 1 170 2
 171:lcd.c         **** 		lcd_conf.offset_x = 1;
 1740              		.loc 1 171 3
 172:lcd.c         **** 		lcd_conf.offset_y = 26;
 1741              		.loc 1 172 3
 173:lcd.c         **** 		lcd_conf.inverted = 0;
 1742              		.loc 1 173 3
 174:lcd.c         **** 	}
 1743              		.loc 1 174 3
 171:lcd.c         **** 		lcd_conf.offset_x = 1;
 1744              		.loc 1 171 23 is_stmt 0
 1745 001a B707011A 		li	a5,436273152
 1746 001e 8507     		addi	a5,a5,1
 1747 0020 23A0F900 		sw	a5,0(s3)
 176:lcd.c         **** 		lcd_conf.configured = 1;
 1748              		.loc 1 176 2 is_stmt 1
 1749              	.LVL114:
 1750              	.L92:
 1751              	.LBE507:
 1752              	.LBE506:
 193:lcd.c         **** 	rcu_periph_clock_enable(RCU_GPIOC);
 1753              		.loc 1 193 2
 1754 0024 13053060 		li	a0,1539
 1755 0028 97000000 		call	rcu_periph_clock_enable
 1755      E7800000 
 1756              	.LVL115:
 194:lcd.c         **** 
 1757              		.loc 1 194 2
 1758 0030 13054060 		li	a0,1540
 1759 0034 97000000 		call	rcu_periph_clock_enable
 1759      E7800000 
 1760              	.LVL116:
 196:lcd.c         **** 	rcu_periph_clock_enable(RCU_SPI1);
GAS LISTING /tmp/ccIfjRGV.s 			page 47


 1761              		.loc 1 196 3
 1762 003c 13050060 		li	a0,1536
 1763 0040 97000000 		call	rcu_periph_clock_enable
 1763      E7800000 
 1764              	.LVL117:
 197:lcd.c         **** 	
 1765              		.loc 1 197 2
 1766 0048 1305E070 		li	a0,1806
 1767 004c 97000000 		call	rcu_periph_clock_enable
 1767      E7800000 
 1768              	.LVL118:
 199:lcd.c         **** 	gpio_init(GPIOC, GPIO_MODE_OUT_PP, GPIO_OSPEED_50MHZ, GPIO_PIN_13 | GPIO_PIN_15); //CS
 1769              		.loc 1 199 5
 1770 0054 37150140 		li	a0,1073811456
 1771 0058 B966     		li	a3,57344
 1772 005a 0D46     		li	a2,3
 1773 005c E145     		li	a1,24
 1774 005e 130505C0 		addi	a0,a0,-1024
 1775 0062 97000000 		call	gpio_init
 1775      E7800000 
 1776              	.LVL119:
 200:lcd.c         **** 
 1777              		.loc 1 200 2
 1778 006a A966     		li	a3,40960
 1779 006c 0D46     		li	a2,3
 1780 006e C145     		li	a1,16
 1781 0070 37150140 		li	a0,1073811456
 1782 0074 97000000 		call	gpio_init
 1782      E7800000 
 1783              	.LVL120:
 202:lcd.c         **** 
 1784              		.loc 1 202 2
 1785 007c 97000000 		call	spi_config
 1785      E7800000 
 1786              	.LVL121:
 204:lcd.c         **** 	LCD_Wait_On_Queue();
 1787              		.loc 1 204 2
 1788 0084 A965     		li	a1,40960
 1789 0086 37150140 		li	a0,1073811456
 1790              	.LBB508:
 1791              	.LBB509:
  40:lcd.c         **** }
 1792              		.loc 1 40 10 is_stmt 0
 1793 008a B7040000 		lui	s1,%hi(.LANCHOR0)
 1794 008e 37040000 		lui	s0,%hi(.LANCHOR1)
 1795              	.LBE509:
 1796              	.LBE508:
 204:lcd.c         **** 	LCD_Wait_On_Queue();
 1797              		.loc 1 204 2
 1798 0092 97000000 		call	gpio_bit_reset
 1798      E7800000 
 1799              	.LVL122:
 205:lcd.c         **** 	lcd_delay_1ms(100);
 1800              		.loc 1 205 2 is_stmt 1
 1801              	.LBB511:
 1802              	.LBB510:
  40:lcd.c         **** }
GAS LISTING /tmp/ccIfjRGV.s 			page 48


 1803              		.loc 1 40 2
  40:lcd.c         **** }
 1804              		.loc 1 40 10 is_stmt 0
 1805 009a 93840400 		addi	s1,s1,%lo(.LANCHOR0)
 1806 009e 13040400 		addi	s0,s0,%lo(.LANCHOR1)
  40:lcd.c         **** }
 1807              		.loc 1 40 7
 1808 00a2 9840     		lw	a4,0(s1)
 1809 00a4 1C40     		lw	a5,0(s0)
 1810 00a6 630AF700 		beq	a4,a5,.L96
 1811              	.L93:
  40:lcd.c         **** }
 1812              		.loc 1 40 16 is_stmt 1
 1813 00aa 97000000 		call	LCD_WR_Queue
 1813      E7800000 
 1814              	.LVL123:
  40:lcd.c         **** }
 1815              		.loc 1 40 7 is_stmt 0
 1816 00b2 9840     		lw	a4,0(s1)
 1817 00b4 1C40     		lw	a5,0(s0)
 1818 00b6 E31AF7FE 		bne	a4,a5,.L93
 1819              	.L96:
 1820              	.LBE510:
 1821              	.LBE511:
 206:lcd.c         **** 	
 1822              		.loc 1 206 2 is_stmt 1
 1823 00ba 13054006 		li	a0,100
 1824 00be 97000000 		call	lcd_delay_1ms
 1824      E7800000 
 1825              	.LVL124:
 209:lcd.c         **** 	LCD_Wait_On_Queue();
 1826              		.loc 1 209 2
 120:lcd.c         **** }
 1827              		.loc 1 120 5
 1828              	.LBB512:
 1829              	.LBB513:
 1830              	.LBB514:
  57:lcd.c         ****    queue[w++]=dat;                        //...If/when not then store data...
 1831              		.loc 1 57 4
  57:lcd.c         ****    queue[w++]=dat;                        //...If/when not then store data...
 1832              		.loc 1 57 14 is_stmt 0
 1833 00c6 1440     		lw	a3,0(s0)
  57:lcd.c         ****    queue[w++]=dat;                        //...If/when not then store data...
 1834              		.loc 1 57 10
 1835 00c8 8C40     		lw	a1,0(s1)
  57:lcd.c         ****    queue[w++]=dat;                        //...If/when not then store data...
 1836              		.loc 1 57 14
 1837 00ca 13871600 		addi	a4,a3,1
  57:lcd.c         ****    queue[w++]=dat;                        //...If/when not then store data...
 1838              		.loc 1 57 17
 1839 00ce 9357F741 		srai	a5,a4,31
 1840 00d2 13D68701 		srli	a2,a5,24
 1841 00d6 B307C700 		add	a5,a4,a2
 1842 00da 93F7F70F 		andi	a5,a5,255
 1843 00de 918F     		sub	a5,a5,a2
  57:lcd.c         ****    queue[w++]=dat;                        //...If/when not then store data...
 1844              		.loc 1 57 10
GAS LISTING /tmp/ccIfjRGV.s 			page 49


 1845 00e0 6393B702 		bne	a5,a1,.L95
 1846              	.L94:
  57:lcd.c         ****    queue[w++]=dat;                        //...If/when not then store data...
 1847              		.loc 1 57 27 is_stmt 1
 1848 00e4 97000000 		call	LCD_WR_Queue
 1848      E7800000 
 1849              	.LVL125:
  57:lcd.c         ****    queue[w++]=dat;                        //...If/when not then store data...
 1850              		.loc 1 57 14 is_stmt 0
 1851 00ec 1440     		lw	a3,0(s0)
  57:lcd.c         ****    queue[w++]=dat;                        //...If/when not then store data...
 1852              		.loc 1 57 10
 1853 00ee 9040     		lw	a2,0(s1)
  57:lcd.c         ****    queue[w++]=dat;                        //...If/when not then store data...
 1854              		.loc 1 57 14
 1855 00f0 93871600 		addi	a5,a3,1
  57:lcd.c         ****    queue[w++]=dat;                        //...If/when not then store data...
 1856              		.loc 1 57 17
 1857 00f4 13D7F741 		srai	a4,a5,31
 1858 00f8 6183     		srli	a4,a4,24
 1859 00fa BA97     		add	a5,a5,a4
 1860 00fc 93F7F70F 		andi	a5,a5,255
 1861 0100 998F     		sub	a5,a5,a4
  57:lcd.c         ****    queue[w++]=dat;                        //...If/when not then store data...
 1862              		.loc 1 57 10
 1863 0102 E381C7FE 		beq	a5,a2,.L94
 1864              	.L95:
  58:lcd.c         ****    w%=256;                                //...and advance write index!
 1865              		.loc 1 58 4 is_stmt 1
  58:lcd.c         ****    w%=256;                                //...and advance write index!
 1866              		.loc 1 58 14 is_stmt 0
 1867 0106 37070000 		lui	a4,%hi(.LANCHOR2)
 1868 010a 13090700 		addi	s2,a4,%lo(.LANCHOR2)
 1869 010e 8A06     		slli	a3,a3,2
 1870 0110 CA96     		add	a3,s2,a3
 1871 0112 0547     		li	a4,1
 1872 0114 98C2     		sw	a4,0(a3)
  59:lcd.c         **** }
 1873              		.loc 1 59 4 is_stmt 1
  59:lcd.c         **** }
 1874              		.loc 1 59 5 is_stmt 0
 1875 0116 1CC0     		sw	a5,0(s0)
 1876              	.LVL126:
 1877              	.L99:
 1878              	.LBE514:
 1879              	.LBE513:
 1880              	.LBE512:
 1881              	.LBB515:
 1882              	.LBB516:
  40:lcd.c         **** }
 1883              		.loc 1 40 16 is_stmt 1
 1884 0118 97000000 		call	LCD_WR_Queue
 1884      E7800000 
 1885              	.LVL127:
  40:lcd.c         **** }
 1886              		.loc 1 40 7 is_stmt 0
 1887 0120 9840     		lw	a4,0(s1)
GAS LISTING /tmp/ccIfjRGV.s 			page 50


 1888 0122 1C40     		lw	a5,0(s0)
 1889 0124 E31AF7FE 		bne	a4,a5,.L99
 1890              	.LBE516:
 1891              	.LBE515:
 211:lcd.c         **** 	
 1892              		.loc 1 211 2 is_stmt 1
 1893 0128 13058007 		li	a0,120
 1894 012c 97000000 		call	lcd_delay_1ms
 1894      E7800000 
 1895              	.LVL128:
 214:lcd.c         **** 	LCD_Wait_On_Queue();
 1896              		.loc 1 214 2
 120:lcd.c         **** }
 1897              		.loc 1 120 5
 1898              	.LBB517:
 1899              	.LBB518:
 1900              	.LBB519:
  57:lcd.c         ****    queue[w++]=dat;                        //...If/when not then store data...
 1901              		.loc 1 57 4
  57:lcd.c         ****    queue[w++]=dat;                        //...If/when not then store data...
 1902              		.loc 1 57 14 is_stmt 0
 1903 0134 1440     		lw	a3,0(s0)
  57:lcd.c         ****    queue[w++]=dat;                        //...If/when not then store data...
 1904              		.loc 1 57 10
 1905 0136 8C40     		lw	a1,0(s1)
  57:lcd.c         ****    queue[w++]=dat;                        //...If/when not then store data...
 1906              		.loc 1 57 14
 1907 0138 13871600 		addi	a4,a3,1
  57:lcd.c         ****    queue[w++]=dat;                        //...If/when not then store data...
 1908              		.loc 1 57 17
 1909 013c 9357F741 		srai	a5,a4,31
 1910 0140 13D68701 		srli	a2,a5,24
 1911 0144 B307C700 		add	a5,a4,a2
 1912 0148 93F7F70F 		andi	a5,a5,255
 1913 014c 918F     		sub	a5,a5,a2
  57:lcd.c         ****    queue[w++]=dat;                        //...If/when not then store data...
 1914              		.loc 1 57 10
 1915 014e 6393B702 		bne	a5,a1,.L98
 1916              	.L97:
  57:lcd.c         ****    queue[w++]=dat;                        //...If/when not then store data...
 1917              		.loc 1 57 27 is_stmt 1
 1918 0152 97000000 		call	LCD_WR_Queue
 1918      E7800000 
 1919              	.LVL129:
  57:lcd.c         ****    queue[w++]=dat;                        //...If/when not then store data...
 1920              		.loc 1 57 14 is_stmt 0
 1921 015a 1440     		lw	a3,0(s0)
  57:lcd.c         ****    queue[w++]=dat;                        //...If/when not then store data...
 1922              		.loc 1 57 10
 1923 015c 9040     		lw	a2,0(s1)
  57:lcd.c         ****    queue[w++]=dat;                        //...If/when not then store data...
 1924              		.loc 1 57 14
 1925 015e 93871600 		addi	a5,a3,1
  57:lcd.c         ****    queue[w++]=dat;                        //...If/when not then store data...
 1926              		.loc 1 57 17
 1927 0162 13D7F741 		srai	a4,a5,31
 1928 0166 6183     		srli	a4,a4,24
GAS LISTING /tmp/ccIfjRGV.s 			page 51


 1929 0168 BA97     		add	a5,a5,a4
 1930 016a 93F7F70F 		andi	a5,a5,255
 1931 016e 998F     		sub	a5,a5,a4
  57:lcd.c         ****    queue[w++]=dat;                        //...If/when not then store data...
 1932              		.loc 1 57 10
 1933 0170 E381C7FE 		beq	a5,a2,.L97
 1934              	.L98:
  58:lcd.c         ****    w%=256;                                //...and advance write index!
 1935              		.loc 1 58 4 is_stmt 1
  58:lcd.c         ****    w%=256;                                //...and advance write index!
 1936              		.loc 1 58 14 is_stmt 0
 1937 0174 8A06     		slli	a3,a3,2
 1938 0176 CA96     		add	a3,s2,a3
 1939 0178 4547     		li	a4,17
 1940 017a 98C2     		sw	a4,0(a3)
  59:lcd.c         **** }
 1941              		.loc 1 59 4 is_stmt 1
  59:lcd.c         **** }
 1942              		.loc 1 59 5 is_stmt 0
 1943 017c 1CC0     		sw	a5,0(s0)
 1944              	.LVL130:
 1945              	.L103:
 1946              	.LBE519:
 1947              	.LBE518:
 1948              	.LBE517:
 1949              	.LBB520:
 1950              	.LBB521:
  40:lcd.c         **** }
 1951              		.loc 1 40 16 is_stmt 1
 1952 017e 97000000 		call	LCD_WR_Queue
 1952      E7800000 
 1953              	.LVL131:
  40:lcd.c         **** }
 1954              		.loc 1 40 7 is_stmt 0
 1955 0186 9840     		lw	a4,0(s1)
 1956 0188 1C40     		lw	a5,0(s0)
 1957 018a E31AF7FE 		bne	a4,a5,.L103
 1958              	.LBE521:
 1959              	.LBE520:
 216:lcd.c         **** 
 1960              		.loc 1 216 2 is_stmt 1
 1961 018e 13054006 		li	a0,100
 1962 0192 97000000 		call	lcd_delay_1ms
 1962      E7800000 
 1963              	.LVL132:
 218:lcd.c         **** 	else				  LCD_WR_REG(0x21); 	//INVON
 1964              		.loc 1 218 2
 218:lcd.c         **** 	else				  LCD_WR_REG(0x21); 	//INVON
 1965              		.loc 1 218 4 is_stmt 0
 1966 019a 83C71900 		lbu	a5,1(s3)
 1967 019e 99E7     		bne	a5,zero,.L101
 1968 01a0 6F10605D 		j	.L346
 1969              	.L348:
 1970              	.LBB522:
 1971              	.LBB523:
 1972              	.LBB524:
  57:lcd.c         ****    queue[w++]=dat;                        //...If/when not then store data...
GAS LISTING /tmp/ccIfjRGV.s 			page 52


 1973              		.loc 1 57 27 is_stmt 1
 1974 01a4 97000000 		call	LCD_WR_Queue
 1974      E7800000 
 1975              	.LVL133:
 1976              	.L101:
  57:lcd.c         ****    queue[w++]=dat;                        //...If/when not then store data...
 1977              		.loc 1 57 14 is_stmt 0
 1978 01ac 0C40     		lw	a1,0(s0)
  57:lcd.c         ****    queue[w++]=dat;                        //...If/when not then store data...
 1979              		.loc 1 57 22
 1980 01ae 9C40     		lw	a5,0(s1)
  57:lcd.c         ****    queue[w++]=dat;                        //...If/when not then store data...
 1981              		.loc 1 57 14
 1982 01b0 13871500 		addi	a4,a1,1
  57:lcd.c         ****    queue[w++]=dat;                        //...If/when not then store data...
 1983              		.loc 1 57 17
 1984 01b4 9356F741 		srai	a3,a4,31
 1985 01b8 13D68601 		srli	a2,a3,24
 1986 01bc B306C700 		add	a3,a4,a2
 1987 01c0 93F6F60F 		andi	a3,a3,255
 1988 01c4 918E     		sub	a3,a3,a2
  57:lcd.c         ****    queue[w++]=dat;                        //...If/when not then store data...
 1989              		.loc 1 57 10
 1990 01c6 E38FF6FC 		beq	a3,a5,.L348
  58:lcd.c         ****    w%=256;                                //...and advance write index!
 1991              		.loc 1 58 4 is_stmt 1
  58:lcd.c         ****    w%=256;                                //...and advance write index!
 1992              		.loc 1 58 14 is_stmt 0
 1993 01ca 8A05     		slli	a1,a1,2
 1994 01cc CA95     		add	a1,s2,a1
 1995 01ce 13072002 		li	a4,34
 1996 01d2 98C1     		sw	a4,0(a1)
  59:lcd.c         **** }
 1997              		.loc 1 59 4 is_stmt 1
 1998              	.LBE524:
 1999              	.LBE523:
 2000              	.LBE522:
 2001              	.LBB527:
 2002              	.LBB528:
 2003              	.LBB529:
  57:lcd.c         ****    queue[w++]=dat;                        //...If/when not then store data...
 2004              		.loc 1 57 14 is_stmt 0
 2005 01d4 13871600 		addi	a4,a3,1
  57:lcd.c         ****    queue[w++]=dat;                        //...If/when not then store data...
 2006              		.loc 1 57 17
 2007 01d8 9355F741 		srai	a1,a4,31
 2008 01dc 13D68501 		srli	a2,a1,24
 2009 01e0 B305C700 		add	a1,a4,a2
 2010 01e4 93F5F50F 		andi	a1,a1,255
 2011              	.LBE529:
 2012              	.LBE528:
 2013              	.LBE527:
 2014              	.LBB538:
 2015              	.LBB526:
 2016              	.LBB525:
  59:lcd.c         **** }
 2017              		.loc 1 59 5
GAS LISTING /tmp/ccIfjRGV.s 			page 53


 2018 01e8 14C0     		sw	a3,0(s0)
 2019              	.LBE525:
 2020              	.LBE526:
 2021              	.LBE538:
 2022              	.LBB539:
 2023              	.LBB534:
 2024              	.LBB530:
  57:lcd.c         ****    queue[w++]=dat;                        //...If/when not then store data...
 2025              		.loc 1 57 17
 2026 01ea 918D     		sub	a1,a1,a2
  57:lcd.c         ****    queue[w++]=dat;                        //...If/when not then store data...
 2027              		.loc 1 57 10
 2028 01ec 6394F500 		beq	a1,a5,.L109
 2028      6F10205B 
 2029              	.L349:
  58:lcd.c         ****    w%=256;                                //...and advance write index!
 2030              		.loc 1 58 4 is_stmt 1
 2031              	.LBE530:
 2032              	.LBE534:
 2033              	.LBE539:
 2034              	.LBB540:
 2035              	.LBB541:
 2036              	.LBB542:
  57:lcd.c         ****    queue[w++]=dat;                        //...If/when not then store data...
 2037              		.loc 1 57 14 is_stmt 0
 2038 01f4 13871500 		addi	a4,a1,1
  57:lcd.c         ****    queue[w++]=dat;                        //...If/when not then store data...
 2039              		.loc 1 57 17
 2040 01f8 1356F741 		srai	a2,a4,31
 2041 01fc 13558601 		srli	a0,a2,24
 2042 0200 3306A700 		add	a2,a4,a0
 2043              	.LBE542:
 2044              	.LBE541:
 2045              	.LBE540:
 2046              	.LBB551:
 2047              	.LBB535:
 2048              	.LBB531:
  58:lcd.c         ****    w%=256;                                //...and advance write index!
 2049              		.loc 1 58 14
 2050 0204 8A06     		slli	a3,a3,2
 2051 0206 CA96     		add	a3,s2,a3
 2052              	.LBE531:
 2053              	.LBE535:
 2054              	.LBE551:
 2055              	.LBB552:
 2056              	.LBB547:
 2057              	.LBB543:
  57:lcd.c         ****    queue[w++]=dat;                        //...If/when not then store data...
 2058              		.loc 1 57 17
 2059 0208 1376F60F 		andi	a2,a2,255
 2060              	.LBE543:
 2061              	.LBE547:
 2062              	.LBE552:
 2063              	.LBB553:
 2064              	.LBB536:
 2065              	.LBB532:
  58:lcd.c         ****    w%=256;                                //...and advance write index!
GAS LISTING /tmp/ccIfjRGV.s 			page 54


 2066              		.loc 1 58 14
 2067 020c 1307100B 		li	a4,177
 2068 0210 98C2     		sw	a4,0(a3)
  59:lcd.c         **** }
 2069              		.loc 1 59 4 is_stmt 1
  59:lcd.c         **** }
 2070              		.loc 1 59 5 is_stmt 0
 2071 0212 0CC0     		sw	a1,0(s0)
 2072              	.LBE532:
 2073              	.LBE536:
 2074              	.LBE553:
 222:lcd.c         **** 	LCD_WR_DATA8(0x3A);
 2075              		.loc 1 222 2 is_stmt 1
 2076              	.LVL134:
  92:lcd.c         **** }
 2077              		.loc 1 92 5
 2078              	.LBB554:
 2079              	.LBB548:
 2080              	.LBB544:
  57:lcd.c         ****    queue[w++]=dat;                        //...If/when not then store data...
 2081              		.loc 1 57 4
  57:lcd.c         ****    queue[w++]=dat;                        //...If/when not then store data...
 2082              		.loc 1 57 17 is_stmt 0
 2083 0214 098E     		sub	a2,a2,a0
  57:lcd.c         ****    queue[w++]=dat;                        //...If/when not then store data...
 2084              		.loc 1 57 10
 2085 0216 6395C702 		bne	a5,a2,.L112
 2086              	.L113:
  57:lcd.c         ****    queue[w++]=dat;                        //...If/when not then store data...
 2087              		.loc 1 57 27 is_stmt 1
 2088 021a 97000000 		call	LCD_WR_Queue
 2088      E7800000 
 2089              	.LVL135:
  57:lcd.c         ****    queue[w++]=dat;                        //...If/when not then store data...
 2090              		.loc 1 57 14 is_stmt 0
 2091 0222 0C40     		lw	a1,0(s0)
  57:lcd.c         ****    queue[w++]=dat;                        //...If/when not then store data...
 2092              		.loc 1 57 22
 2093 0224 9C40     		lw	a5,0(s1)
  57:lcd.c         ****    queue[w++]=dat;                        //...If/when not then store data...
 2094              		.loc 1 57 14
 2095 0226 13871500 		addi	a4,a1,1
  57:lcd.c         ****    queue[w++]=dat;                        //...If/when not then store data...
 2096              		.loc 1 57 17
 2097 022a 1356F741 		srai	a2,a4,31
 2098 022e 93568601 		srli	a3,a2,24
 2099 0232 3306D700 		add	a2,a4,a3
 2100 0236 1376F60F 		andi	a2,a2,255
 2101 023a 158E     		sub	a2,a2,a3
  57:lcd.c         ****    queue[w++]=dat;                        //...If/when not then store data...
 2102              		.loc 1 57 10
 2103 023c E30FF6FC 		beq	a2,a5,.L113
 2104              	.L112:
  58:lcd.c         ****    w%=256;                                //...and advance write index!
 2105              		.loc 1 58 4 is_stmt 1
 2106              	.LBE544:
 2107              	.LBE548:
GAS LISTING /tmp/ccIfjRGV.s 			page 55


 2108              	.LBE554:
 2109              	.LBB555:
 2110              	.LBB556:
 2111              	.LBB557:
  57:lcd.c         ****    queue[w++]=dat;                        //...If/when not then store data...
 2112              		.loc 1 57 14 is_stmt 0
 2113 0240 13071600 		addi	a4,a2,1
  57:lcd.c         ****    queue[w++]=dat;                        //...If/when not then store data...
 2114              		.loc 1 57 17
 2115 0244 9356F741 		srai	a3,a4,31
 2116 0248 13D58601 		srli	a0,a3,24
 2117 024c B306A700 		add	a3,a4,a0
 2118              	.LBE557:
 2119              	.LBE556:
 2120              	.LBE555:
 2121              	.LBB566:
 2122              	.LBB549:
 2123              	.LBB545:
  58:lcd.c         ****    w%=256;                                //...and advance write index!
 2124              		.loc 1 58 14
 2125 0250 8A05     		slli	a1,a1,2
 2126 0252 CA95     		add	a1,s2,a1
 2127              	.LBE545:
 2128              	.LBE549:
 2129              	.LBE566:
 2130              	.LBB567:
 2131              	.LBB562:
 2132              	.LBB558:
  57:lcd.c         ****    queue[w++]=dat;                        //...If/when not then store data...
 2133              		.loc 1 57 17
 2134 0254 93F6F60F 		andi	a3,a3,255
 2135              	.LBE558:
 2136              	.LBE562:
 2137              	.LBE567:
 2138              	.LBB568:
 2139              	.LBB550:
 2140              	.LBB546:
  58:lcd.c         ****    w%=256;                                //...and advance write index!
 2141              		.loc 1 58 14
 2142 0258 13075010 		li	a4,261
 2143 025c 98C1     		sw	a4,0(a1)
  59:lcd.c         **** }
 2144              		.loc 1 59 4 is_stmt 1
  59:lcd.c         **** }
 2145              		.loc 1 59 5 is_stmt 0
 2146 025e 10C0     		sw	a2,0(s0)
 2147              	.LVL136:
 2148              	.LBE546:
 2149              	.LBE550:
 2150              	.LBE568:
 223:lcd.c         **** 	LCD_WR_DATA8(0x3A);
 2151              		.loc 1 223 2 is_stmt 1
  92:lcd.c         **** }
 2152              		.loc 1 92 5
 2153              	.LBB569:
 2154              	.LBB563:
 2155              	.LBB559:
GAS LISTING /tmp/ccIfjRGV.s 			page 56


  57:lcd.c         ****    queue[w++]=dat;                        //...If/when not then store data...
 2156              		.loc 1 57 4
  57:lcd.c         ****    queue[w++]=dat;                        //...If/when not then store data...
 2157              		.loc 1 57 17 is_stmt 0
 2158 0260 898E     		sub	a3,a3,a0
  57:lcd.c         ****    queue[w++]=dat;                        //...If/when not then store data...
 2159              		.loc 1 57 10
 2160 0262 6395D702 		bne	a5,a3,.L114
 2161              	.L115:
  57:lcd.c         ****    queue[w++]=dat;                        //...If/when not then store data...
 2162              		.loc 1 57 27 is_stmt 1
 2163 0266 97000000 		call	LCD_WR_Queue
 2163      E7800000 
 2164              	.LVL137:
  57:lcd.c         ****    queue[w++]=dat;                        //...If/when not then store data...
 2165              		.loc 1 57 14 is_stmt 0
 2166 026e 1040     		lw	a2,0(s0)
  57:lcd.c         ****    queue[w++]=dat;                        //...If/when not then store data...
 2167              		.loc 1 57 22
 2168 0270 9C40     		lw	a5,0(s1)
  57:lcd.c         ****    queue[w++]=dat;                        //...If/when not then store data...
 2169              		.loc 1 57 14
 2170 0272 13071600 		addi	a4,a2,1
  57:lcd.c         ****    queue[w++]=dat;                        //...If/when not then store data...
 2171              		.loc 1 57 17
 2172 0276 9356F741 		srai	a3,a4,31
 2173 027a 93D58601 		srli	a1,a3,24
 2174 027e B306B700 		add	a3,a4,a1
 2175 0282 93F6F60F 		andi	a3,a3,255
 2176 0286 8D8E     		sub	a3,a3,a1
  57:lcd.c         ****    queue[w++]=dat;                        //...If/when not then store data...
 2177              		.loc 1 57 10
 2178 0288 E38FF6FC 		beq	a3,a5,.L115
 2179              	.L114:
  58:lcd.c         ****    w%=256;                                //...and advance write index!
 2180              		.loc 1 58 4 is_stmt 1
 2181              	.LBE559:
 2182              	.LBE563:
 2183              	.LBE569:
 2184              	.LBB570:
 2185              	.LBB571:
 2186              	.LBB572:
  57:lcd.c         ****    queue[w++]=dat;                        //...If/when not then store data...
 2187              		.loc 1 57 14 is_stmt 0
 2188 028c 13871600 		addi	a4,a3,1
  57:lcd.c         ****    queue[w++]=dat;                        //...If/when not then store data...
 2189              		.loc 1 57 17
 2190 0290 9355F741 		srai	a1,a4,31
 2191 0294 13D58501 		srli	a0,a1,24
 2192 0298 B305A700 		add	a1,a4,a0
 2193              	.LBE572:
 2194              	.LBE571:
 2195              	.LBE570:
 2196              	.LBB581:
 2197              	.LBB564:
 2198              	.LBB560:
  58:lcd.c         ****    w%=256;                                //...and advance write index!
GAS LISTING /tmp/ccIfjRGV.s 			page 57


 2199              		.loc 1 58 14
 2200 029c 0A06     		slli	a2,a2,2
 2201 029e 4A96     		add	a2,s2,a2
 2202              	.LBE560:
 2203              	.LBE564:
 2204              	.LBE581:
 2205              	.LBB582:
 2206              	.LBB577:
 2207              	.LBB573:
  57:lcd.c         ****    queue[w++]=dat;                        //...If/when not then store data...
 2208              		.loc 1 57 17
 2209 02a0 93F5F50F 		andi	a1,a1,255
 2210              	.LBE573:
 2211              	.LBE577:
 2212              	.LBE582:
 2213              	.LBB583:
 2214              	.LBB565:
 2215              	.LBB561:
  58:lcd.c         ****    w%=256;                                //...and advance write index!
 2216              		.loc 1 58 14
 2217 02a4 1307A013 		li	a4,314
 2218 02a8 18C2     		sw	a4,0(a2)
  59:lcd.c         **** }
 2219              		.loc 1 59 4 is_stmt 1
  59:lcd.c         **** }
 2220              		.loc 1 59 5 is_stmt 0
 2221 02aa 14C0     		sw	a3,0(s0)
 2222              	.LVL138:
 2223              	.LBE561:
 2224              	.LBE565:
 2225              	.LBE583:
 224:lcd.c         **** 
 2226              		.loc 1 224 2 is_stmt 1
  92:lcd.c         **** }
 2227              		.loc 1 92 5
 2228              	.LBB584:
 2229              	.LBB578:
 2230              	.LBB574:
  57:lcd.c         ****    queue[w++]=dat;                        //...If/when not then store data...
 2231              		.loc 1 57 4
  57:lcd.c         ****    queue[w++]=dat;                        //...If/when not then store data...
 2232              		.loc 1 57 17 is_stmt 0
 2233 02ac 898D     		sub	a1,a1,a0
  57:lcd.c         ****    queue[w++]=dat;                        //...If/when not then store data...
 2234              		.loc 1 57 10
 2235 02ae 6395B702 		bne	a5,a1,.L116
 2236              	.L117:
  57:lcd.c         ****    queue[w++]=dat;                        //...If/when not then store data...
 2237              		.loc 1 57 27 is_stmt 1
 2238 02b2 97000000 		call	LCD_WR_Queue
 2238      E7800000 
 2239              	.LVL139:
  57:lcd.c         ****    queue[w++]=dat;                        //...If/when not then store data...
 2240              		.loc 1 57 14 is_stmt 0
 2241 02ba 1440     		lw	a3,0(s0)
  57:lcd.c         ****    queue[w++]=dat;                        //...If/when not then store data...
 2242              		.loc 1 57 22
GAS LISTING /tmp/ccIfjRGV.s 			page 58


 2243 02bc 9C40     		lw	a5,0(s1)
  57:lcd.c         ****    queue[w++]=dat;                        //...If/when not then store data...
 2244              		.loc 1 57 14
 2245 02be 13871600 		addi	a4,a3,1
  57:lcd.c         ****    queue[w++]=dat;                        //...If/when not then store data...
 2246              		.loc 1 57 17
 2247 02c2 9355F741 		srai	a1,a4,31
 2248 02c6 13D68501 		srli	a2,a1,24
 2249 02ca B305C700 		add	a1,a4,a2
 2250 02ce 93F5F50F 		andi	a1,a1,255
 2251 02d2 918D     		sub	a1,a1,a2
  57:lcd.c         ****    queue[w++]=dat;                        //...If/when not then store data...
 2252              		.loc 1 57 10
 2253 02d4 E38FF5FC 		beq	a1,a5,.L117
 2254              	.L116:
  58:lcd.c         ****    w%=256;                                //...and advance write index!
 2255              		.loc 1 58 4 is_stmt 1
 2256              	.LBE574:
 2257              	.LBE578:
 2258              	.LBE584:
 2259              	.LBB585:
 2260              	.LBB586:
 2261              	.LBB587:
  57:lcd.c         ****    queue[w++]=dat;                        //...If/when not then store data...
 2262              		.loc 1 57 14 is_stmt 0
 2263 02d8 13871500 		addi	a4,a1,1
  57:lcd.c         ****    queue[w++]=dat;                        //...If/when not then store data...
 2264              		.loc 1 57 17
 2265 02dc 1356F741 		srai	a2,a4,31
 2266 02e0 13558601 		srli	a0,a2,24
 2267 02e4 3306A700 		add	a2,a4,a0
 2268              	.LBE587:
 2269              	.LBE586:
 2270              	.LBE585:
 2271              	.LBB596:
 2272              	.LBB579:
 2273              	.LBB575:
  58:lcd.c         ****    w%=256;                                //...and advance write index!
 2274              		.loc 1 58 14
 2275 02e8 8A06     		slli	a3,a3,2
 2276 02ea CA96     		add	a3,s2,a3
 2277              	.LBE575:
 2278              	.LBE579:
 2279              	.LBE596:
 2280              	.LBB597:
 2281              	.LBB592:
 2282              	.LBB588:
  57:lcd.c         ****    queue[w++]=dat;                        //...If/when not then store data...
 2283              		.loc 1 57 17
 2284 02ec 1376F60F 		andi	a2,a2,255
 2285              	.LBE588:
 2286              	.LBE592:
 2287              	.LBE597:
 2288              	.LBB598:
 2289              	.LBB580:
 2290              	.LBB576:
  58:lcd.c         ****    w%=256;                                //...and advance write index!
GAS LISTING /tmp/ccIfjRGV.s 			page 59


 2291              		.loc 1 58 14
 2292 02f0 1307A013 		li	a4,314
 2293 02f4 98C2     		sw	a4,0(a3)
  59:lcd.c         **** }
 2294              		.loc 1 59 4 is_stmt 1
  59:lcd.c         **** }
 2295              		.loc 1 59 5 is_stmt 0
 2296 02f6 0CC0     		sw	a1,0(s0)
 2297              	.LVL140:
 2298              	.LBE576:
 2299              	.LBE580:
 2300              	.LBE598:
 226:lcd.c         **** 	LCD_WR_DATA8(0x05); //fps = 67.9
 2301              		.loc 1 226 2 is_stmt 1
 120:lcd.c         **** }
 2302              		.loc 1 120 5
 2303              	.LBB599:
 2304              	.LBB593:
 2305              	.LBB589:
  57:lcd.c         ****    queue[w++]=dat;                        //...If/when not then store data...
 2306              		.loc 1 57 4
  57:lcd.c         ****    queue[w++]=dat;                        //...If/when not then store data...
 2307              		.loc 1 57 17 is_stmt 0
 2308 02f8 098E     		sub	a2,a2,a0
  57:lcd.c         ****    queue[w++]=dat;                        //...If/when not then store data...
 2309              		.loc 1 57 10
 2310 02fa 6395C702 		bne	a5,a2,.L118
 2311              	.L119:
  57:lcd.c         ****    queue[w++]=dat;                        //...If/when not then store data...
 2312              		.loc 1 57 27 is_stmt 1
 2313 02fe 97000000 		call	LCD_WR_Queue
 2313      E7800000 
 2314              	.LVL141:
  57:lcd.c         ****    queue[w++]=dat;                        //...If/when not then store data...
 2315              		.loc 1 57 14 is_stmt 0
 2316 0306 0C40     		lw	a1,0(s0)
  57:lcd.c         ****    queue[w++]=dat;                        //...If/when not then store data...
 2317              		.loc 1 57 22
 2318 0308 9C40     		lw	a5,0(s1)
  57:lcd.c         ****    queue[w++]=dat;                        //...If/when not then store data...
 2319              		.loc 1 57 14
 2320 030a 13871500 		addi	a4,a1,1
  57:lcd.c         ****    queue[w++]=dat;                        //...If/when not then store data...
 2321              		.loc 1 57 17
 2322 030e 1356F741 		srai	a2,a4,31
 2323 0312 93568601 		srli	a3,a2,24
 2324 0316 3306D700 		add	a2,a4,a3
 2325 031a 1376F60F 		andi	a2,a2,255
 2326 031e 158E     		sub	a2,a2,a3
  57:lcd.c         ****    queue[w++]=dat;                        //...If/when not then store data...
 2327              		.loc 1 57 10
 2328 0320 E30FF6FC 		beq	a2,a5,.L119
 2329              	.L118:
  58:lcd.c         ****    w%=256;                                //...and advance write index!
 2330              		.loc 1 58 4 is_stmt 1
 2331              	.LBE589:
 2332              	.LBE593:
GAS LISTING /tmp/ccIfjRGV.s 			page 60


 2333              	.LBE599:
 2334              	.LBB600:
 2335              	.LBB601:
 2336              	.LBB602:
  57:lcd.c         ****    queue[w++]=dat;                        //...If/when not then store data...
 2337              		.loc 1 57 14 is_stmt 0
 2338 0324 13071600 		addi	a4,a2,1
  57:lcd.c         ****    queue[w++]=dat;                        //...If/when not then store data...
 2339              		.loc 1 57 17
 2340 0328 9356F741 		srai	a3,a4,31
 2341 032c 13D58601 		srli	a0,a3,24
 2342 0330 B306A700 		add	a3,a4,a0
 2343              	.LBE602:
 2344              	.LBE601:
 2345              	.LBE600:
 2346              	.LBB611:
 2347              	.LBB594:
 2348              	.LBB590:
  58:lcd.c         ****    w%=256;                                //...and advance write index!
 2349              		.loc 1 58 14
 2350 0334 8A05     		slli	a1,a1,2
 2351 0336 CA95     		add	a1,s2,a1
 2352              	.LBE590:
 2353              	.LBE594:
 2354              	.LBE611:
 2355              	.LBB612:
 2356              	.LBB607:
 2357              	.LBB603:
  57:lcd.c         ****    queue[w++]=dat;                        //...If/when not then store data...
 2358              		.loc 1 57 17
 2359 0338 93F6F60F 		andi	a3,a3,255
 2360              	.LBE603:
 2361              	.LBE607:
 2362              	.LBE612:
 2363              	.LBB613:
 2364              	.LBB595:
 2365              	.LBB591:
  58:lcd.c         ****    w%=256;                                //...and advance write index!
 2366              		.loc 1 58 14
 2367 033c 1307200B 		li	a4,178
 2368 0340 98C1     		sw	a4,0(a1)
  59:lcd.c         **** }
 2369              		.loc 1 59 4 is_stmt 1
  59:lcd.c         **** }
 2370              		.loc 1 59 5 is_stmt 0
 2371 0342 10C0     		sw	a2,0(s0)
 2372              	.LVL142:
 2373              	.LBE591:
 2374              	.LBE595:
 2375              	.LBE613:
 227:lcd.c         **** 	LCD_WR_DATA8(0x3A);
 2376              		.loc 1 227 2 is_stmt 1
  92:lcd.c         **** }
 2377              		.loc 1 92 5
 2378              	.LBB614:
 2379              	.LBB608:
 2380              	.LBB604:
GAS LISTING /tmp/ccIfjRGV.s 			page 61


  57:lcd.c         ****    queue[w++]=dat;                        //...If/when not then store data...
 2381              		.loc 1 57 4
  57:lcd.c         ****    queue[w++]=dat;                        //...If/when not then store data...
 2382              		.loc 1 57 17 is_stmt 0
 2383 0344 898E     		sub	a3,a3,a0
  57:lcd.c         ****    queue[w++]=dat;                        //...If/when not then store data...
 2384              		.loc 1 57 10
 2385 0346 6395D702 		bne	a5,a3,.L120
 2386              	.L121:
  57:lcd.c         ****    queue[w++]=dat;                        //...If/when not then store data...
 2387              		.loc 1 57 27 is_stmt 1
 2388 034a 97000000 		call	LCD_WR_Queue
 2388      E7800000 
 2389              	.LVL143:
  57:lcd.c         ****    queue[w++]=dat;                        //...If/when not then store data...
 2390              		.loc 1 57 14 is_stmt 0
 2391 0352 1040     		lw	a2,0(s0)
  57:lcd.c         ****    queue[w++]=dat;                        //...If/when not then store data...
 2392              		.loc 1 57 22
 2393 0354 9C40     		lw	a5,0(s1)
  57:lcd.c         ****    queue[w++]=dat;                        //...If/when not then store data...
 2394              		.loc 1 57 14
 2395 0356 13071600 		addi	a4,a2,1
  57:lcd.c         ****    queue[w++]=dat;                        //...If/when not then store data...
 2396              		.loc 1 57 17
 2397 035a 9356F741 		srai	a3,a4,31
 2398 035e 93D58601 		srli	a1,a3,24
 2399 0362 B306B700 		add	a3,a4,a1
 2400 0366 93F6F60F 		andi	a3,a3,255
 2401 036a 8D8E     		sub	a3,a3,a1
  57:lcd.c         ****    queue[w++]=dat;                        //...If/when not then store data...
 2402              		.loc 1 57 10
 2403 036c E38FF6FC 		beq	a3,a5,.L121
 2404              	.L120:
  58:lcd.c         ****    w%=256;                                //...and advance write index!
 2405              		.loc 1 58 4 is_stmt 1
 2406              	.LBE604:
 2407              	.LBE608:
 2408              	.LBE614:
 2409              	.LBB615:
 2410              	.LBB616:
 2411              	.LBB617:
  57:lcd.c         ****    queue[w++]=dat;                        //...If/when not then store data...
 2412              		.loc 1 57 14 is_stmt 0
 2413 0370 13871600 		addi	a4,a3,1
  57:lcd.c         ****    queue[w++]=dat;                        //...If/when not then store data...
 2414              		.loc 1 57 17
 2415 0374 9355F741 		srai	a1,a4,31
 2416 0378 13D58501 		srli	a0,a1,24
 2417 037c B305A700 		add	a1,a4,a0
 2418              	.LBE617:
 2419              	.LBE616:
 2420              	.LBE615:
 2421              	.LBB626:
 2422              	.LBB609:
 2423              	.LBB605:
  58:lcd.c         ****    w%=256;                                //...and advance write index!
GAS LISTING /tmp/ccIfjRGV.s 			page 62


 2424              		.loc 1 58 14
 2425 0380 0A06     		slli	a2,a2,2
 2426 0382 4A96     		add	a2,s2,a2
 2427              	.LBE605:
 2428              	.LBE609:
 2429              	.LBE626:
 2430              	.LBB627:
 2431              	.LBB622:
 2432              	.LBB618:
  57:lcd.c         ****    queue[w++]=dat;                        //...If/when not then store data...
 2433              		.loc 1 57 17
 2434 0384 93F5F50F 		andi	a1,a1,255
 2435              	.LBE618:
 2436              	.LBE622:
 2437              	.LBE627:
 2438              	.LBB628:
 2439              	.LBB610:
 2440              	.LBB606:
  58:lcd.c         ****    w%=256;                                //...and advance write index!
 2441              		.loc 1 58 14
 2442 0388 13075010 		li	a4,261
 2443 038c 18C2     		sw	a4,0(a2)
  59:lcd.c         **** }
 2444              		.loc 1 59 4 is_stmt 1
  59:lcd.c         **** }
 2445              		.loc 1 59 5 is_stmt 0
 2446 038e 14C0     		sw	a3,0(s0)
 2447              	.LVL144:
 2448              	.LBE606:
 2449              	.LBE610:
 2450              	.LBE628:
 228:lcd.c         **** 	LCD_WR_DATA8(0x3A);
 2451              		.loc 1 228 2 is_stmt 1
  92:lcd.c         **** }
 2452              		.loc 1 92 5
 2453              	.LBB629:
 2454              	.LBB623:
 2455              	.LBB619:
  57:lcd.c         ****    queue[w++]=dat;                        //...If/when not then store data...
 2456              		.loc 1 57 4
  57:lcd.c         ****    queue[w++]=dat;                        //...If/when not then store data...
 2457              		.loc 1 57 17 is_stmt 0
 2458 0390 898D     		sub	a1,a1,a0
  57:lcd.c         ****    queue[w++]=dat;                        //...If/when not then store data...
 2459              		.loc 1 57 10
 2460 0392 6395B702 		bne	a5,a1,.L122
 2461              	.L123:
  57:lcd.c         ****    queue[w++]=dat;                        //...If/when not then store data...
 2462              		.loc 1 57 27 is_stmt 1
 2463 0396 97000000 		call	LCD_WR_Queue
 2463      E7800000 
 2464              	.LVL145:
  57:lcd.c         ****    queue[w++]=dat;                        //...If/when not then store data...
 2465              		.loc 1 57 14 is_stmt 0
 2466 039e 1440     		lw	a3,0(s0)
  57:lcd.c         ****    queue[w++]=dat;                        //...If/when not then store data...
 2467              		.loc 1 57 22
GAS LISTING /tmp/ccIfjRGV.s 			page 63


 2468 03a0 9C40     		lw	a5,0(s1)
  57:lcd.c         ****    queue[w++]=dat;                        //...If/when not then store data...
 2469              		.loc 1 57 14
 2470 03a2 13871600 		addi	a4,a3,1
  57:lcd.c         ****    queue[w++]=dat;                        //...If/when not then store data...
 2471              		.loc 1 57 17
 2472 03a6 9355F741 		srai	a1,a4,31
 2473 03aa 13D68501 		srli	a2,a1,24
 2474 03ae B305C700 		add	a1,a4,a2
 2475 03b2 93F5F50F 		andi	a1,a1,255
 2476 03b6 918D     		sub	a1,a1,a2
  57:lcd.c         ****    queue[w++]=dat;                        //...If/when not then store data...
 2477              		.loc 1 57 10
 2478 03b8 E38FF5FC 		beq	a1,a5,.L123
 2479              	.L122:
  58:lcd.c         ****    w%=256;                                //...and advance write index!
 2480              		.loc 1 58 4 is_stmt 1
 2481              	.LBE619:
 2482              	.LBE623:
 2483              	.LBE629:
 2484              	.LBB630:
 2485              	.LBB631:
 2486              	.LBB632:
  57:lcd.c         ****    queue[w++]=dat;                        //...If/when not then store data...
 2487              		.loc 1 57 14 is_stmt 0
 2488 03bc 13871500 		addi	a4,a1,1
  57:lcd.c         ****    queue[w++]=dat;                        //...If/when not then store data...
 2489              		.loc 1 57 17
 2490 03c0 1356F741 		srai	a2,a4,31
 2491 03c4 13558601 		srli	a0,a2,24
 2492 03c8 3306A700 		add	a2,a4,a0
 2493              	.LBE632:
 2494              	.LBE631:
 2495              	.LBE630:
 2496              	.LBB641:
 2497              	.LBB624:
 2498              	.LBB620:
  58:lcd.c         ****    w%=256;                                //...and advance write index!
 2499              		.loc 1 58 14
 2500 03cc 8A06     		slli	a3,a3,2
 2501 03ce CA96     		add	a3,s2,a3
 2502              	.LBE620:
 2503              	.LBE624:
 2504              	.LBE641:
 2505              	.LBB642:
 2506              	.LBB637:
 2507              	.LBB633:
  57:lcd.c         ****    queue[w++]=dat;                        //...If/when not then store data...
 2508              		.loc 1 57 17
 2509 03d0 1376F60F 		andi	a2,a2,255
 2510              	.LBE633:
 2511              	.LBE637:
 2512              	.LBE642:
 2513              	.LBB643:
 2514              	.LBB625:
 2515              	.LBB621:
  58:lcd.c         ****    w%=256;                                //...and advance write index!
GAS LISTING /tmp/ccIfjRGV.s 			page 64


 2516              		.loc 1 58 14
 2517 03d4 1307A013 		li	a4,314
 2518 03d8 98C2     		sw	a4,0(a3)
  59:lcd.c         **** }
 2519              		.loc 1 59 4 is_stmt 1
  59:lcd.c         **** }
 2520              		.loc 1 59 5 is_stmt 0
 2521 03da 0CC0     		sw	a1,0(s0)
 2522              	.LVL146:
 2523              	.LBE621:
 2524              	.LBE625:
 2525              	.LBE643:
 229:lcd.c         **** 
 2526              		.loc 1 229 2 is_stmt 1
  92:lcd.c         **** }
 2527              		.loc 1 92 5
 2528              	.LBB644:
 2529              	.LBB638:
 2530              	.LBB634:
  57:lcd.c         ****    queue[w++]=dat;                        //...If/when not then store data...
 2531              		.loc 1 57 4
  57:lcd.c         ****    queue[w++]=dat;                        //...If/when not then store data...
 2532              		.loc 1 57 17 is_stmt 0
 2533 03dc 098E     		sub	a2,a2,a0
  57:lcd.c         ****    queue[w++]=dat;                        //...If/when not then store data...
 2534              		.loc 1 57 10
 2535 03de 6395C702 		bne	a5,a2,.L124
 2536              	.L125:
  57:lcd.c         ****    queue[w++]=dat;                        //...If/when not then store data...
 2537              		.loc 1 57 27 is_stmt 1
 2538 03e2 97000000 		call	LCD_WR_Queue
 2538      E7800000 
 2539              	.LVL147:
  57:lcd.c         ****    queue[w++]=dat;                        //...If/when not then store data...
 2540              		.loc 1 57 14 is_stmt 0
 2541 03ea 0C40     		lw	a1,0(s0)
  57:lcd.c         ****    queue[w++]=dat;                        //...If/when not then store data...
 2542              		.loc 1 57 22
 2543 03ec 9C40     		lw	a5,0(s1)
  57:lcd.c         ****    queue[w++]=dat;                        //...If/when not then store data...
 2544              		.loc 1 57 14
 2545 03ee 13871500 		addi	a4,a1,1
  57:lcd.c         ****    queue[w++]=dat;                        //...If/when not then store data...
 2546              		.loc 1 57 17
 2547 03f2 1356F741 		srai	a2,a4,31
 2548 03f6 93568601 		srli	a3,a2,24
 2549 03fa 3306D700 		add	a2,a4,a3
 2550 03fe 1376F60F 		andi	a2,a2,255
 2551 0402 158E     		sub	a2,a2,a3
  57:lcd.c         ****    queue[w++]=dat;                        //...If/when not then store data...
 2552              		.loc 1 57 10
 2553 0404 E30FF6FC 		beq	a2,a5,.L125
 2554              	.L124:
  58:lcd.c         ****    w%=256;                                //...and advance write index!
 2555              		.loc 1 58 4 is_stmt 1
 2556              	.LBE634:
 2557              	.LBE638:
GAS LISTING /tmp/ccIfjRGV.s 			page 65


 2558              	.LBE644:
 2559              	.LBB645:
 2560              	.LBB646:
 2561              	.LBB647:
  57:lcd.c         ****    queue[w++]=dat;                        //...If/when not then store data...
 2562              		.loc 1 57 14 is_stmt 0
 2563 0408 13071600 		addi	a4,a2,1
  57:lcd.c         ****    queue[w++]=dat;                        //...If/when not then store data...
 2564              		.loc 1 57 17
 2565 040c 9356F741 		srai	a3,a4,31
 2566 0410 13D58601 		srli	a0,a3,24
 2567 0414 B306A700 		add	a3,a4,a0
 2568              	.LBE647:
 2569              	.LBE646:
 2570              	.LBE645:
 2571              	.LBB656:
 2572              	.LBB639:
 2573              	.LBB635:
  58:lcd.c         ****    w%=256;                                //...and advance write index!
 2574              		.loc 1 58 14
 2575 0418 8A05     		slli	a1,a1,2
 2576 041a CA95     		add	a1,s2,a1
 2577              	.LBE635:
 2578              	.LBE639:
 2579              	.LBE656:
 2580              	.LBB657:
 2581              	.LBB652:
 2582              	.LBB648:
  57:lcd.c         ****    queue[w++]=dat;                        //...If/when not then store data...
 2583              		.loc 1 57 17
 2584 041c 93F6F60F 		andi	a3,a3,255
 2585              	.LBE648:
 2586              	.LBE652:
 2587              	.LBE657:
 2588              	.LBB658:
 2589              	.LBB640:
 2590              	.LBB636:
  58:lcd.c         ****    w%=256;                                //...and advance write index!
 2591              		.loc 1 58 14
 2592 0420 1307A013 		li	a4,314
 2593 0424 98C1     		sw	a4,0(a1)
  59:lcd.c         **** }
 2594              		.loc 1 59 4 is_stmt 1
  59:lcd.c         **** }
 2595              		.loc 1 59 5 is_stmt 0
 2596 0426 10C0     		sw	a2,0(s0)
 2597              	.LVL148:
 2598              	.LBE636:
 2599              	.LBE640:
 2600              	.LBE658:
 231:lcd.c         **** 	LCD_WR_DATA8(0x05);  
 2601              		.loc 1 231 2 is_stmt 1
 120:lcd.c         **** }
 2602              		.loc 1 120 5
 2603              	.LBB659:
 2604              	.LBB653:
 2605              	.LBB649:
GAS LISTING /tmp/ccIfjRGV.s 			page 66


  57:lcd.c         ****    queue[w++]=dat;                        //...If/when not then store data...
 2606              		.loc 1 57 4
  57:lcd.c         ****    queue[w++]=dat;                        //...If/when not then store data...
 2607              		.loc 1 57 17 is_stmt 0
 2608 0428 898E     		sub	a3,a3,a0
  57:lcd.c         ****    queue[w++]=dat;                        //...If/when not then store data...
 2609              		.loc 1 57 10
 2610 042a 6395D702 		bne	a5,a3,.L126
 2611              	.L127:
  57:lcd.c         ****    queue[w++]=dat;                        //...If/when not then store data...
 2612              		.loc 1 57 27 is_stmt 1
 2613 042e 97000000 		call	LCD_WR_Queue
 2613      E7800000 
 2614              	.LVL149:
  57:lcd.c         ****    queue[w++]=dat;                        //...If/when not then store data...
 2615              		.loc 1 57 14 is_stmt 0
 2616 0436 1040     		lw	a2,0(s0)
  57:lcd.c         ****    queue[w++]=dat;                        //...If/when not then store data...
 2617              		.loc 1 57 22
 2618 0438 9C40     		lw	a5,0(s1)
  57:lcd.c         ****    queue[w++]=dat;                        //...If/when not then store data...
 2619              		.loc 1 57 14
 2620 043a 13071600 		addi	a4,a2,1
  57:lcd.c         ****    queue[w++]=dat;                        //...If/when not then store data...
 2621              		.loc 1 57 17
 2622 043e 9356F741 		srai	a3,a4,31
 2623 0442 93D58601 		srli	a1,a3,24
 2624 0446 B306B700 		add	a3,a4,a1
 2625 044a 93F6F60F 		andi	a3,a3,255
 2626 044e 8D8E     		sub	a3,a3,a1
  57:lcd.c         ****    queue[w++]=dat;                        //...If/when not then store data...
 2627              		.loc 1 57 10
 2628 0450 E38FF6FC 		beq	a3,a5,.L127
 2629              	.L126:
  58:lcd.c         ****    w%=256;                                //...and advance write index!
 2630              		.loc 1 58 4 is_stmt 1
 2631              	.LBE649:
 2632              	.LBE653:
 2633              	.LBE659:
 2634              	.LBB660:
 2635              	.LBB661:
 2636              	.LBB662:
  57:lcd.c         ****    queue[w++]=dat;                        //...If/when not then store data...
 2637              		.loc 1 57 14 is_stmt 0
 2638 0454 13871600 		addi	a4,a3,1
  57:lcd.c         ****    queue[w++]=dat;                        //...If/when not then store data...
 2639              		.loc 1 57 17
 2640 0458 9355F741 		srai	a1,a4,31
 2641 045c 13D58501 		srli	a0,a1,24
 2642 0460 B305A700 		add	a1,a4,a0
 2643              	.LBE662:
 2644              	.LBE661:
 2645              	.LBE660:
 2646              	.LBB671:
 2647              	.LBB654:
 2648              	.LBB650:
  58:lcd.c         ****    w%=256;                                //...and advance write index!
GAS LISTING /tmp/ccIfjRGV.s 			page 67


 2649              		.loc 1 58 14
 2650 0464 0A06     		slli	a2,a2,2
 2651 0466 4A96     		add	a2,s2,a2
 2652              	.LBE650:
 2653              	.LBE654:
 2654              	.LBE671:
 2655              	.LBB672:
 2656              	.LBB667:
 2657              	.LBB663:
  57:lcd.c         ****    queue[w++]=dat;                        //...If/when not then store data...
 2658              		.loc 1 57 17
 2659 0468 93F5F50F 		andi	a1,a1,255
 2660              	.LBE663:
 2661              	.LBE667:
 2662              	.LBE672:
 2663              	.LBB673:
 2664              	.LBB655:
 2665              	.LBB651:
  58:lcd.c         ****    w%=256;                                //...and advance write index!
 2666              		.loc 1 58 14
 2667 046c 1307300B 		li	a4,179
 2668 0470 18C2     		sw	a4,0(a2)
  59:lcd.c         **** }
 2669              		.loc 1 59 4 is_stmt 1
  59:lcd.c         **** }
 2670              		.loc 1 59 5 is_stmt 0
 2671 0472 14C0     		sw	a3,0(s0)
 2672              	.LVL150:
 2673              	.LBE651:
 2674              	.LBE655:
 2675              	.LBE673:
 232:lcd.c         **** 	LCD_WR_DATA8(0x3A);
 2676              		.loc 1 232 2 is_stmt 1
  92:lcd.c         **** }
 2677              		.loc 1 92 5
 2678              	.LBB674:
 2679              	.LBB668:
 2680              	.LBB664:
  57:lcd.c         ****    queue[w++]=dat;                        //...If/when not then store data...
 2681              		.loc 1 57 4
  57:lcd.c         ****    queue[w++]=dat;                        //...If/when not then store data...
 2682              		.loc 1 57 17 is_stmt 0
 2683 0474 898D     		sub	a1,a1,a0
  57:lcd.c         ****    queue[w++]=dat;                        //...If/when not then store data...
 2684              		.loc 1 57 10
 2685 0476 6395B702 		bne	a5,a1,.L128
 2686              	.L129:
  57:lcd.c         ****    queue[w++]=dat;                        //...If/when not then store data...
 2687              		.loc 1 57 27 is_stmt 1
 2688 047a 97000000 		call	LCD_WR_Queue
 2688      E7800000 
 2689              	.LVL151:
  57:lcd.c         ****    queue[w++]=dat;                        //...If/when not then store data...
 2690              		.loc 1 57 14 is_stmt 0
 2691 0482 1440     		lw	a3,0(s0)
  57:lcd.c         ****    queue[w++]=dat;                        //...If/when not then store data...
 2692              		.loc 1 57 22
GAS LISTING /tmp/ccIfjRGV.s 			page 68


 2693 0484 9C40     		lw	a5,0(s1)
  57:lcd.c         ****    queue[w++]=dat;                        //...If/when not then store data...
 2694              		.loc 1 57 14
 2695 0486 13871600 		addi	a4,a3,1
  57:lcd.c         ****    queue[w++]=dat;                        //...If/when not then store data...
 2696              		.loc 1 57 17
 2697 048a 9355F741 		srai	a1,a4,31
 2698 048e 13D68501 		srli	a2,a1,24
 2699 0492 B305C700 		add	a1,a4,a2
 2700 0496 93F5F50F 		andi	a1,a1,255
 2701 049a 918D     		sub	a1,a1,a2
  57:lcd.c         ****    queue[w++]=dat;                        //...If/when not then store data...
 2702              		.loc 1 57 10
 2703 049c E38FF5FC 		beq	a1,a5,.L129
 2704              	.L128:
  58:lcd.c         ****    w%=256;                                //...and advance write index!
 2705              		.loc 1 58 4 is_stmt 1
 2706              	.LBE664:
 2707              	.LBE668:
 2708              	.LBE674:
 2709              	.LBB675:
 2710              	.LBB676:
 2711              	.LBB677:
  57:lcd.c         ****    queue[w++]=dat;                        //...If/when not then store data...
 2712              		.loc 1 57 14 is_stmt 0
 2713 04a0 13871500 		addi	a4,a1,1
  57:lcd.c         ****    queue[w++]=dat;                        //...If/when not then store data...
 2714              		.loc 1 57 17
 2715 04a4 1356F741 		srai	a2,a4,31
 2716 04a8 13558601 		srli	a0,a2,24
 2717 04ac 3306A700 		add	a2,a4,a0
 2718              	.LBE677:
 2719              	.LBE676:
 2720              	.LBE675:
 2721              	.LBB686:
 2722              	.LBB669:
 2723              	.LBB665:
  58:lcd.c         ****    w%=256;                                //...and advance write index!
 2724              		.loc 1 58 14
 2725 04b0 8A06     		slli	a3,a3,2
 2726 04b2 CA96     		add	a3,s2,a3
 2727              	.LBE665:
 2728              	.LBE669:
 2729              	.LBE686:
 2730              	.LBB687:
 2731              	.LBB682:
 2732              	.LBB678:
  57:lcd.c         ****    queue[w++]=dat;                        //...If/when not then store data...
 2733              		.loc 1 57 17
 2734 04b4 1376F60F 		andi	a2,a2,255
 2735              	.LBE678:
 2736              	.LBE682:
 2737              	.LBE687:
 2738              	.LBB688:
 2739              	.LBB670:
 2740              	.LBB666:
  58:lcd.c         ****    w%=256;                                //...and advance write index!
GAS LISTING /tmp/ccIfjRGV.s 			page 69


 2741              		.loc 1 58 14
 2742 04b8 13075010 		li	a4,261
 2743 04bc 98C2     		sw	a4,0(a3)
  59:lcd.c         **** }
 2744              		.loc 1 59 4 is_stmt 1
  59:lcd.c         **** }
 2745              		.loc 1 59 5 is_stmt 0
 2746 04be 0CC0     		sw	a1,0(s0)
 2747              	.LVL152:
 2748              	.LBE666:
 2749              	.LBE670:
 2750              	.LBE688:
 233:lcd.c         **** 	LCD_WR_DATA8(0x3A);
 2751              		.loc 1 233 2 is_stmt 1
  92:lcd.c         **** }
 2752              		.loc 1 92 5
 2753              	.LBB689:
 2754              	.LBB683:
 2755              	.LBB679:
  57:lcd.c         ****    queue[w++]=dat;                        //...If/when not then store data...
 2756              		.loc 1 57 4
  57:lcd.c         ****    queue[w++]=dat;                        //...If/when not then store data...
 2757              		.loc 1 57 17 is_stmt 0
 2758 04c0 098E     		sub	a2,a2,a0
  57:lcd.c         ****    queue[w++]=dat;                        //...If/when not then store data...
 2759              		.loc 1 57 10
 2760 04c2 6395C702 		bne	a5,a2,.L130
 2761              	.L131:
  57:lcd.c         ****    queue[w++]=dat;                        //...If/when not then store data...
 2762              		.loc 1 57 27 is_stmt 1
 2763 04c6 97000000 		call	LCD_WR_Queue
 2763      E7800000 
 2764              	.LVL153:
  57:lcd.c         ****    queue[w++]=dat;                        //...If/when not then store data...
 2765              		.loc 1 57 14 is_stmt 0
 2766 04ce 0C40     		lw	a1,0(s0)
  57:lcd.c         ****    queue[w++]=dat;                        //...If/when not then store data...
 2767              		.loc 1 57 22
 2768 04d0 9C40     		lw	a5,0(s1)
  57:lcd.c         ****    queue[w++]=dat;                        //...If/when not then store data...
 2769              		.loc 1 57 14
 2770 04d2 13871500 		addi	a4,a1,1
  57:lcd.c         ****    queue[w++]=dat;                        //...If/when not then store data...
 2771              		.loc 1 57 17
 2772 04d6 1356F741 		srai	a2,a4,31
 2773 04da 93568601 		srli	a3,a2,24
 2774 04de 3306D700 		add	a2,a4,a3
 2775 04e2 1376F60F 		andi	a2,a2,255
 2776 04e6 158E     		sub	a2,a2,a3
  57:lcd.c         ****    queue[w++]=dat;                        //...If/when not then store data...
 2777              		.loc 1 57 10
 2778 04e8 E30FF6FC 		beq	a2,a5,.L131
 2779              	.L130:
  58:lcd.c         ****    w%=256;                                //...and advance write index!
 2780              		.loc 1 58 4 is_stmt 1
 2781              	.LBE679:
 2782              	.LBE683:
GAS LISTING /tmp/ccIfjRGV.s 			page 70


 2783              	.LBE689:
 2784              	.LBB690:
 2785              	.LBB691:
 2786              	.LBB692:
  57:lcd.c         ****    queue[w++]=dat;                        //...If/when not then store data...
 2787              		.loc 1 57 14 is_stmt 0
 2788 04ec 13071600 		addi	a4,a2,1
  57:lcd.c         ****    queue[w++]=dat;                        //...If/when not then store data...
 2789              		.loc 1 57 17
 2790 04f0 9356F741 		srai	a3,a4,31
 2791 04f4 13D58601 		srli	a0,a3,24
 2792 04f8 B306A700 		add	a3,a4,a0
 2793              	.LBE692:
 2794              	.LBE691:
 2795              	.LBE690:
 2796              	.LBB701:
 2797              	.LBB684:
 2798              	.LBB680:
  58:lcd.c         ****    w%=256;                                //...and advance write index!
 2799              		.loc 1 58 14
 2800 04fc 8A05     		slli	a1,a1,2
 2801 04fe CA95     		add	a1,s2,a1
 2802              	.LBE680:
 2803              	.LBE684:
 2804              	.LBE701:
 2805              	.LBB702:
 2806              	.LBB697:
 2807              	.LBB693:
  57:lcd.c         ****    queue[w++]=dat;                        //...If/when not then store data...
 2808              		.loc 1 57 17
 2809 0500 93F6F60F 		andi	a3,a3,255
 2810              	.LBE693:
 2811              	.LBE697:
 2812              	.LBE702:
 2813              	.LBB703:
 2814              	.LBB685:
 2815              	.LBB681:
  58:lcd.c         ****    w%=256;                                //...and advance write index!
 2816              		.loc 1 58 14
 2817 0504 1307A013 		li	a4,314
 2818 0508 98C1     		sw	a4,0(a1)
  59:lcd.c         **** }
 2819              		.loc 1 59 4 is_stmt 1
  59:lcd.c         **** }
 2820              		.loc 1 59 5 is_stmt 0
 2821 050a 10C0     		sw	a2,0(s0)
 2822              	.LVL154:
 2823              	.LBE681:
 2824              	.LBE685:
 2825              	.LBE703:
 234:lcd.c         **** 	LCD_WR_DATA8(0x05);
 2826              		.loc 1 234 2 is_stmt 1
  92:lcd.c         **** }
 2827              		.loc 1 92 5
 2828              	.LBB704:
 2829              	.LBB698:
 2830              	.LBB694:
GAS LISTING /tmp/ccIfjRGV.s 			page 71


  57:lcd.c         ****    queue[w++]=dat;                        //...If/when not then store data...
 2831              		.loc 1 57 4
  57:lcd.c         ****    queue[w++]=dat;                        //...If/when not then store data...
 2832              		.loc 1 57 17 is_stmt 0
 2833 050c 898E     		sub	a3,a3,a0
  57:lcd.c         ****    queue[w++]=dat;                        //...If/when not then store data...
 2834              		.loc 1 57 10
 2835 050e 6395D702 		bne	a5,a3,.L132
 2836              	.L133:
  57:lcd.c         ****    queue[w++]=dat;                        //...If/when not then store data...
 2837              		.loc 1 57 27 is_stmt 1
 2838 0512 97000000 		call	LCD_WR_Queue
 2838      E7800000 
 2839              	.LVL155:
  57:lcd.c         ****    queue[w++]=dat;                        //...If/when not then store data...
 2840              		.loc 1 57 14 is_stmt 0
 2841 051a 1040     		lw	a2,0(s0)
  57:lcd.c         ****    queue[w++]=dat;                        //...If/when not then store data...
 2842              		.loc 1 57 22
 2843 051c 9C40     		lw	a5,0(s1)
  57:lcd.c         ****    queue[w++]=dat;                        //...If/when not then store data...
 2844              		.loc 1 57 14
 2845 051e 13071600 		addi	a4,a2,1
  57:lcd.c         ****    queue[w++]=dat;                        //...If/when not then store data...
 2846              		.loc 1 57 17
 2847 0522 9356F741 		srai	a3,a4,31
 2848 0526 93D58601 		srli	a1,a3,24
 2849 052a B306B700 		add	a3,a4,a1
 2850 052e 93F6F60F 		andi	a3,a3,255
 2851 0532 8D8E     		sub	a3,a3,a1
  57:lcd.c         ****    queue[w++]=dat;                        //...If/when not then store data...
 2852              		.loc 1 57 10
 2853 0534 E38FF6FC 		beq	a3,a5,.L133
 2854              	.L132:
  58:lcd.c         ****    w%=256;                                //...and advance write index!
 2855              		.loc 1 58 4 is_stmt 1
 2856              	.LBE694:
 2857              	.LBE698:
 2858              	.LBE704:
 2859              	.LBB705:
 2860              	.LBB706:
 2861              	.LBB707:
  57:lcd.c         ****    queue[w++]=dat;                        //...If/when not then store data...
 2862              		.loc 1 57 14 is_stmt 0
 2863 0538 13871600 		addi	a4,a3,1
  57:lcd.c         ****    queue[w++]=dat;                        //...If/when not then store data...
 2864              		.loc 1 57 17
 2865 053c 9355F741 		srai	a1,a4,31
 2866 0540 13D58501 		srli	a0,a1,24
 2867 0544 B305A700 		add	a1,a4,a0
 2868              	.LBE707:
 2869              	.LBE706:
 2870              	.LBE705:
 2871              	.LBB716:
 2872              	.LBB699:
 2873              	.LBB695:
  58:lcd.c         ****    w%=256;                                //...and advance write index!
GAS LISTING /tmp/ccIfjRGV.s 			page 72


 2874              		.loc 1 58 14
 2875 0548 0A06     		slli	a2,a2,2
 2876 054a 4A96     		add	a2,s2,a2
 2877              	.LBE695:
 2878              	.LBE699:
 2879              	.LBE716:
 2880              	.LBB717:
 2881              	.LBB712:
 2882              	.LBB708:
  57:lcd.c         ****    queue[w++]=dat;                        //...If/when not then store data...
 2883              		.loc 1 57 17
 2884 054c 93F5F50F 		andi	a1,a1,255
 2885              	.LBE708:
 2886              	.LBE712:
 2887              	.LBE717:
 2888              	.LBB718:
 2889              	.LBB700:
 2890              	.LBB696:
  58:lcd.c         ****    w%=256;                                //...and advance write index!
 2891              		.loc 1 58 14
 2892 0550 1307A013 		li	a4,314
 2893 0554 18C2     		sw	a4,0(a2)
  59:lcd.c         **** }
 2894              		.loc 1 59 4 is_stmt 1
  59:lcd.c         **** }
 2895              		.loc 1 59 5 is_stmt 0
 2896 0556 14C0     		sw	a3,0(s0)
 2897              	.LVL156:
 2898              	.LBE696:
 2899              	.LBE700:
 2900              	.LBE718:
 235:lcd.c         **** 	LCD_WR_DATA8(0x3A);
 2901              		.loc 1 235 2 is_stmt 1
  92:lcd.c         **** }
 2902              		.loc 1 92 5
 2903              	.LBB719:
 2904              	.LBB713:
 2905              	.LBB709:
  57:lcd.c         ****    queue[w++]=dat;                        //...If/when not then store data...
 2906              		.loc 1 57 4
  57:lcd.c         ****    queue[w++]=dat;                        //...If/when not then store data...
 2907              		.loc 1 57 17 is_stmt 0
 2908 0558 898D     		sub	a1,a1,a0
  57:lcd.c         ****    queue[w++]=dat;                        //...If/when not then store data...
 2909              		.loc 1 57 10
 2910 055a 6395B702 		bne	a5,a1,.L134
 2911              	.L135:
  57:lcd.c         ****    queue[w++]=dat;                        //...If/when not then store data...
 2912              		.loc 1 57 27 is_stmt 1
 2913 055e 97000000 		call	LCD_WR_Queue
 2913      E7800000 
 2914              	.LVL157:
  57:lcd.c         ****    queue[w++]=dat;                        //...If/when not then store data...
 2915              		.loc 1 57 14 is_stmt 0
 2916 0566 1440     		lw	a3,0(s0)
  57:lcd.c         ****    queue[w++]=dat;                        //...If/when not then store data...
 2917              		.loc 1 57 22
GAS LISTING /tmp/ccIfjRGV.s 			page 73


 2918 0568 9C40     		lw	a5,0(s1)
  57:lcd.c         ****    queue[w++]=dat;                        //...If/when not then store data...
 2919              		.loc 1 57 14
 2920 056a 13871600 		addi	a4,a3,1
  57:lcd.c         ****    queue[w++]=dat;                        //...If/when not then store data...
 2921              		.loc 1 57 17
 2922 056e 9355F741 		srai	a1,a4,31
 2923 0572 13D68501 		srli	a2,a1,24
 2924 0576 B305C700 		add	a1,a4,a2
 2925 057a 93F5F50F 		andi	a1,a1,255
 2926 057e 918D     		sub	a1,a1,a2
  57:lcd.c         ****    queue[w++]=dat;                        //...If/when not then store data...
 2927              		.loc 1 57 10
 2928 0580 E38FF5FC 		beq	a1,a5,.L135
 2929              	.L134:
  58:lcd.c         ****    w%=256;                                //...and advance write index!
 2930              		.loc 1 58 4 is_stmt 1
 2931              	.LBE709:
 2932              	.LBE713:
 2933              	.LBE719:
 2934              	.LBB720:
 2935              	.LBB721:
 2936              	.LBB722:
  57:lcd.c         ****    queue[w++]=dat;                        //...If/when not then store data...
 2937              		.loc 1 57 14 is_stmt 0
 2938 0584 13871500 		addi	a4,a1,1
  57:lcd.c         ****    queue[w++]=dat;                        //...If/when not then store data...
 2939              		.loc 1 57 17
 2940 0588 1356F741 		srai	a2,a4,31
 2941 058c 13558601 		srli	a0,a2,24
 2942 0590 3306A700 		add	a2,a4,a0
 2943              	.LBE722:
 2944              	.LBE721:
 2945              	.LBE720:
 2946              	.LBB731:
 2947              	.LBB714:
 2948              	.LBB710:
  58:lcd.c         ****    w%=256;                                //...and advance write index!
 2949              		.loc 1 58 14
 2950 0594 8A06     		slli	a3,a3,2
 2951 0596 CA96     		add	a3,s2,a3
 2952              	.LBE710:
 2953              	.LBE714:
 2954              	.LBE731:
 2955              	.LBB732:
 2956              	.LBB727:
 2957              	.LBB723:
  57:lcd.c         ****    queue[w++]=dat;                        //...If/when not then store data...
 2958              		.loc 1 57 17
 2959 0598 1376F60F 		andi	a2,a2,255
 2960              	.LBE723:
 2961              	.LBE727:
 2962              	.LBE732:
 2963              	.LBB733:
 2964              	.LBB715:
 2965              	.LBB711:
  58:lcd.c         ****    w%=256;                                //...and advance write index!
GAS LISTING /tmp/ccIfjRGV.s 			page 74


 2966              		.loc 1 58 14
 2967 059c 13075010 		li	a4,261
 2968 05a0 98C2     		sw	a4,0(a3)
  59:lcd.c         **** }
 2969              		.loc 1 59 4 is_stmt 1
  59:lcd.c         **** }
 2970              		.loc 1 59 5 is_stmt 0
 2971 05a2 0CC0     		sw	a1,0(s0)
 2972              	.LVL158:
 2973              	.LBE711:
 2974              	.LBE715:
 2975              	.LBE733:
 236:lcd.c         **** 	LCD_WR_DATA8(0x3A);
 2976              		.loc 1 236 2 is_stmt 1
  92:lcd.c         **** }
 2977              		.loc 1 92 5
 2978              	.LBB734:
 2979              	.LBB728:
 2980              	.LBB724:
  57:lcd.c         ****    queue[w++]=dat;                        //...If/when not then store data...
 2981              		.loc 1 57 4
  57:lcd.c         ****    queue[w++]=dat;                        //...If/when not then store data...
 2982              		.loc 1 57 17 is_stmt 0
 2983 05a4 098E     		sub	a2,a2,a0
  57:lcd.c         ****    queue[w++]=dat;                        //...If/when not then store data...
 2984              		.loc 1 57 10
 2985 05a6 6395C702 		bne	a5,a2,.L136
 2986              	.L137:
  57:lcd.c         ****    queue[w++]=dat;                        //...If/when not then store data...
 2987              		.loc 1 57 27 is_stmt 1
 2988 05aa 97000000 		call	LCD_WR_Queue
 2988      E7800000 
 2989              	.LVL159:
  57:lcd.c         ****    queue[w++]=dat;                        //...If/when not then store data...
 2990              		.loc 1 57 14 is_stmt 0
 2991 05b2 0C40     		lw	a1,0(s0)
  57:lcd.c         ****    queue[w++]=dat;                        //...If/when not then store data...
 2992              		.loc 1 57 22
 2993 05b4 9C40     		lw	a5,0(s1)
  57:lcd.c         ****    queue[w++]=dat;                        //...If/when not then store data...
 2994              		.loc 1 57 14
 2995 05b6 13871500 		addi	a4,a1,1
  57:lcd.c         ****    queue[w++]=dat;                        //...If/when not then store data...
 2996              		.loc 1 57 17
 2997 05ba 1356F741 		srai	a2,a4,31
 2998 05be 93568601 		srli	a3,a2,24
 2999 05c2 3306D700 		add	a2,a4,a3
 3000 05c6 1376F60F 		andi	a2,a2,255
 3001 05ca 158E     		sub	a2,a2,a3
  57:lcd.c         ****    queue[w++]=dat;                        //...If/when not then store data...
 3002              		.loc 1 57 10
 3003 05cc E30FF6FC 		beq	a2,a5,.L137
 3004              	.L136:
  58:lcd.c         ****    w%=256;                                //...and advance write index!
 3005              		.loc 1 58 4 is_stmt 1
 3006              	.LBE724:
 3007              	.LBE728:
GAS LISTING /tmp/ccIfjRGV.s 			page 75


 3008              	.LBE734:
 3009              	.LBB735:
 3010              	.LBB736:
 3011              	.LBB737:
  57:lcd.c         ****    queue[w++]=dat;                        //...If/when not then store data...
 3012              		.loc 1 57 14 is_stmt 0
 3013 05d0 13071600 		addi	a4,a2,1
  57:lcd.c         ****    queue[w++]=dat;                        //...If/when not then store data...
 3014              		.loc 1 57 17
 3015 05d4 9356F741 		srai	a3,a4,31
 3016 05d8 13D58601 		srli	a0,a3,24
 3017 05dc B306A700 		add	a3,a4,a0
 3018              	.LBE737:
 3019              	.LBE736:
 3020              	.LBE735:
 3021              	.LBB746:
 3022              	.LBB729:
 3023              	.LBB725:
  58:lcd.c         ****    w%=256;                                //...and advance write index!
 3024              		.loc 1 58 14
 3025 05e0 8A05     		slli	a1,a1,2
 3026 05e2 CA95     		add	a1,s2,a1
 3027              	.LBE725:
 3028              	.LBE729:
 3029              	.LBE746:
 3030              	.LBB747:
 3031              	.LBB742:
 3032              	.LBB738:
  57:lcd.c         ****    queue[w++]=dat;                        //...If/when not then store data...
 3033              		.loc 1 57 17
 3034 05e4 93F6F60F 		andi	a3,a3,255
 3035              	.LBE738:
 3036              	.LBE742:
 3037              	.LBE747:
 3038              	.LBB748:
 3039              	.LBB730:
 3040              	.LBB726:
  58:lcd.c         ****    w%=256;                                //...and advance write index!
 3041              		.loc 1 58 14
 3042 05e8 1307A013 		li	a4,314
 3043 05ec 98C1     		sw	a4,0(a1)
  59:lcd.c         **** }
 3044              		.loc 1 59 4 is_stmt 1
  59:lcd.c         **** }
 3045              		.loc 1 59 5 is_stmt 0
 3046 05ee 10C0     		sw	a2,0(s0)
 3047              	.LVL160:
 3048              	.LBE726:
 3049              	.LBE730:
 3050              	.LBE748:
 237:lcd.c         **** 
 3051              		.loc 1 237 2 is_stmt 1
  92:lcd.c         **** }
 3052              		.loc 1 92 5
 3053              	.LBB749:
 3054              	.LBB743:
 3055              	.LBB739:
GAS LISTING /tmp/ccIfjRGV.s 			page 76


  57:lcd.c         ****    queue[w++]=dat;                        //...If/when not then store data...
 3056              		.loc 1 57 4
  57:lcd.c         ****    queue[w++]=dat;                        //...If/when not then store data...
 3057              		.loc 1 57 17 is_stmt 0
 3058 05f0 898E     		sub	a3,a3,a0
  57:lcd.c         ****    queue[w++]=dat;                        //...If/when not then store data...
 3059              		.loc 1 57 10
 3060 05f2 6395D702 		bne	a5,a3,.L138
 3061              	.L139:
  57:lcd.c         ****    queue[w++]=dat;                        //...If/when not then store data...
 3062              		.loc 1 57 27 is_stmt 1
 3063 05f6 97000000 		call	LCD_WR_Queue
 3063      E7800000 
 3064              	.LVL161:
  57:lcd.c         ****    queue[w++]=dat;                        //...If/when not then store data...
 3065              		.loc 1 57 14 is_stmt 0
 3066 05fe 1040     		lw	a2,0(s0)
  57:lcd.c         ****    queue[w++]=dat;                        //...If/when not then store data...
 3067              		.loc 1 57 22
 3068 0600 9C40     		lw	a5,0(s1)
  57:lcd.c         ****    queue[w++]=dat;                        //...If/when not then store data...
 3069              		.loc 1 57 14
 3070 0602 13071600 		addi	a4,a2,1
  57:lcd.c         ****    queue[w++]=dat;                        //...If/when not then store data...
 3071              		.loc 1 57 17
 3072 0606 9356F741 		srai	a3,a4,31
 3073 060a 93D58601 		srli	a1,a3,24
 3074 060e B306B700 		add	a3,a4,a1
 3075 0612 93F6F60F 		andi	a3,a3,255
 3076 0616 8D8E     		sub	a3,a3,a1
  57:lcd.c         ****    queue[w++]=dat;                        //...If/when not then store data...
 3077              		.loc 1 57 10
 3078 0618 E38FF6FC 		beq	a3,a5,.L139
 3079              	.L138:
  58:lcd.c         ****    w%=256;                                //...and advance write index!
 3080              		.loc 1 58 4 is_stmt 1
 3081              	.LBE739:
 3082              	.LBE743:
 3083              	.LBE749:
 3084              	.LBB750:
 3085              	.LBB751:
 3086              	.LBB752:
  57:lcd.c         ****    queue[w++]=dat;                        //...If/when not then store data...
 3087              		.loc 1 57 14 is_stmt 0
 3088 061c 13871600 		addi	a4,a3,1
  57:lcd.c         ****    queue[w++]=dat;                        //...If/when not then store data...
 3089              		.loc 1 57 17
 3090 0620 9355F741 		srai	a1,a4,31
 3091 0624 13D58501 		srli	a0,a1,24
 3092 0628 B305A700 		add	a1,a4,a0
 3093              	.LBE752:
 3094              	.LBE751:
 3095              	.LBE750:
 3096              	.LBB761:
 3097              	.LBB744:
 3098              	.LBB740:
  58:lcd.c         ****    w%=256;                                //...and advance write index!
GAS LISTING /tmp/ccIfjRGV.s 			page 77


 3099              		.loc 1 58 14
 3100 062c 0A06     		slli	a2,a2,2
 3101 062e 4A96     		add	a2,s2,a2
 3102              	.LBE740:
 3103              	.LBE744:
 3104              	.LBE761:
 3105              	.LBB762:
 3106              	.LBB757:
 3107              	.LBB753:
  57:lcd.c         ****    queue[w++]=dat;                        //...If/when not then store data...
 3108              		.loc 1 57 17
 3109 0630 93F5F50F 		andi	a1,a1,255
 3110              	.LBE753:
 3111              	.LBE757:
 3112              	.LBE762:
 3113              	.LBB763:
 3114              	.LBB745:
 3115              	.LBB741:
  58:lcd.c         ****    w%=256;                                //...and advance write index!
 3116              		.loc 1 58 14
 3117 0634 1307A013 		li	a4,314
 3118 0638 18C2     		sw	a4,0(a2)
  59:lcd.c         **** }
 3119              		.loc 1 59 4 is_stmt 1
  59:lcd.c         **** }
 3120              		.loc 1 59 5 is_stmt 0
 3121 063a 14C0     		sw	a3,0(s0)
 3122              	.LVL162:
 3123              	.LBE741:
 3124              	.LBE745:
 3125              	.LBE763:
 239:lcd.c         **** 	LCD_WR_DATA8(0x03);//Line inversion(full color) | Frame inversion
 3126              		.loc 1 239 2 is_stmt 1
 120:lcd.c         **** }
 3127              		.loc 1 120 5
 3128              	.LBB764:
 3129              	.LBB758:
 3130              	.LBB754:
  57:lcd.c         ****    queue[w++]=dat;                        //...If/when not then store data...
 3131              		.loc 1 57 4
  57:lcd.c         ****    queue[w++]=dat;                        //...If/when not then store data...
 3132              		.loc 1 57 17 is_stmt 0
 3133 063c 898D     		sub	a1,a1,a0
  57:lcd.c         ****    queue[w++]=dat;                        //...If/when not then store data...
 3134              		.loc 1 57 10
 3135 063e 6395B702 		bne	a5,a1,.L140
 3136              	.L141:
  57:lcd.c         ****    queue[w++]=dat;                        //...If/when not then store data...
 3137              		.loc 1 57 27 is_stmt 1
 3138 0642 97000000 		call	LCD_WR_Queue
 3138      E7800000 
 3139              	.LVL163:
  57:lcd.c         ****    queue[w++]=dat;                        //...If/when not then store data...
 3140              		.loc 1 57 14 is_stmt 0
 3141 064a 1440     		lw	a3,0(s0)
  57:lcd.c         ****    queue[w++]=dat;                        //...If/when not then store data...
 3142              		.loc 1 57 22
GAS LISTING /tmp/ccIfjRGV.s 			page 78


 3143 064c 9C40     		lw	a5,0(s1)
  57:lcd.c         ****    queue[w++]=dat;                        //...If/when not then store data...
 3144              		.loc 1 57 14
 3145 064e 13871600 		addi	a4,a3,1
  57:lcd.c         ****    queue[w++]=dat;                        //...If/when not then store data...
 3146              		.loc 1 57 17
 3147 0652 9355F741 		srai	a1,a4,31
 3148 0656 13D68501 		srli	a2,a1,24
 3149 065a B305C700 		add	a1,a4,a2
 3150 065e 93F5F50F 		andi	a1,a1,255
 3151 0662 918D     		sub	a1,a1,a2
  57:lcd.c         ****    queue[w++]=dat;                        //...If/when not then store data...
 3152              		.loc 1 57 10
 3153 0664 E38FF5FC 		beq	a1,a5,.L141
 3154              	.L140:
  58:lcd.c         ****    w%=256;                                //...and advance write index!
 3155              		.loc 1 58 4 is_stmt 1
 3156              	.LBE754:
 3157              	.LBE758:
 3158              	.LBE764:
 3159              	.LBB765:
 3160              	.LBB766:
 3161              	.LBB767:
  57:lcd.c         ****    queue[w++]=dat;                        //...If/when not then store data...
 3162              		.loc 1 57 14 is_stmt 0
 3163 0668 13871500 		addi	a4,a1,1
  57:lcd.c         ****    queue[w++]=dat;                        //...If/when not then store data...
 3164              		.loc 1 57 17
 3165 066c 1356F741 		srai	a2,a4,31
 3166 0670 13558601 		srli	a0,a2,24
 3167 0674 3306A700 		add	a2,a4,a0
 3168              	.LBE767:
 3169              	.LBE766:
 3170              	.LBE765:
 3171              	.LBB776:
 3172              	.LBB759:
 3173              	.LBB755:
  58:lcd.c         ****    w%=256;                                //...and advance write index!
 3174              		.loc 1 58 14
 3175 0678 8A06     		slli	a3,a3,2
 3176 067a CA96     		add	a3,s2,a3
 3177              	.LBE755:
 3178              	.LBE759:
 3179              	.LBE776:
 3180              	.LBB777:
 3181              	.LBB772:
 3182              	.LBB768:
  57:lcd.c         ****    queue[w++]=dat;                        //...If/when not then store data...
 3183              		.loc 1 57 17
 3184 067c 1376F60F 		andi	a2,a2,255
 3185              	.LBE768:
 3186              	.LBE772:
 3187              	.LBE777:
 3188              	.LBB778:
 3189              	.LBB760:
 3190              	.LBB756:
  58:lcd.c         ****    w%=256;                                //...and advance write index!
GAS LISTING /tmp/ccIfjRGV.s 			page 79


 3191              		.loc 1 58 14
 3192 0680 1307400B 		li	a4,180
 3193 0684 98C2     		sw	a4,0(a3)
  59:lcd.c         **** }
 3194              		.loc 1 59 4 is_stmt 1
  59:lcd.c         **** }
 3195              		.loc 1 59 5 is_stmt 0
 3196 0686 0CC0     		sw	a1,0(s0)
 3197              	.LVL164:
 3198              	.LBE756:
 3199              	.LBE760:
 3200              	.LBE778:
 240:lcd.c         **** 
 3201              		.loc 1 240 2 is_stmt 1
  92:lcd.c         **** }
 3202              		.loc 1 92 5
 3203              	.LBB779:
 3204              	.LBB773:
 3205              	.LBB769:
  57:lcd.c         ****    queue[w++]=dat;                        //...If/when not then store data...
 3206              		.loc 1 57 4
  57:lcd.c         ****    queue[w++]=dat;                        //...If/when not then store data...
 3207              		.loc 1 57 17 is_stmt 0
 3208 0688 098E     		sub	a2,a2,a0
  57:lcd.c         ****    queue[w++]=dat;                        //...If/when not then store data...
 3209              		.loc 1 57 10
 3210 068a 6395C702 		bne	a5,a2,.L142
 3211              	.L143:
  57:lcd.c         ****    queue[w++]=dat;                        //...If/when not then store data...
 3212              		.loc 1 57 27 is_stmt 1
 3213 068e 97000000 		call	LCD_WR_Queue
 3213      E7800000 
 3214              	.LVL165:
  57:lcd.c         ****    queue[w++]=dat;                        //...If/when not then store data...
 3215              		.loc 1 57 14 is_stmt 0
 3216 0696 0C40     		lw	a1,0(s0)
  57:lcd.c         ****    queue[w++]=dat;                        //...If/when not then store data...
 3217              		.loc 1 57 22
 3218 0698 9C40     		lw	a5,0(s1)
  57:lcd.c         ****    queue[w++]=dat;                        //...If/when not then store data...
 3219              		.loc 1 57 14
 3220 069a 13871500 		addi	a4,a1,1
  57:lcd.c         ****    queue[w++]=dat;                        //...If/when not then store data...
 3221              		.loc 1 57 17
 3222 069e 1356F741 		srai	a2,a4,31
 3223 06a2 93568601 		srli	a3,a2,24
 3224 06a6 3306D700 		add	a2,a4,a3
 3225 06aa 1376F60F 		andi	a2,a2,255
 3226 06ae 158E     		sub	a2,a2,a3
  57:lcd.c         ****    queue[w++]=dat;                        //...If/when not then store data...
 3227              		.loc 1 57 10
 3228 06b0 E30FF6FC 		beq	a2,a5,.L143
 3229              	.L142:
  58:lcd.c         ****    w%=256;                                //...and advance write index!
 3230              		.loc 1 58 4 is_stmt 1
 3231              	.LBE769:
 3232              	.LBE773:
GAS LISTING /tmp/ccIfjRGV.s 			page 80


 3233              	.LBE779:
 3234              	.LBB780:
 3235              	.LBB781:
 3236              	.LBB782:
  57:lcd.c         ****    queue[w++]=dat;                        //...If/when not then store data...
 3237              		.loc 1 57 14 is_stmt 0
 3238 06b4 13071600 		addi	a4,a2,1
  57:lcd.c         ****    queue[w++]=dat;                        //...If/when not then store data...
 3239              		.loc 1 57 17
 3240 06b8 9356F741 		srai	a3,a4,31
 3241 06bc 13D58601 		srli	a0,a3,24
 3242 06c0 B306A700 		add	a3,a4,a0
 3243              	.LBE782:
 3244              	.LBE781:
 3245              	.LBE780:
 3246              	.LBB791:
 3247              	.LBB774:
 3248              	.LBB770:
  58:lcd.c         ****    w%=256;                                //...and advance write index!
 3249              		.loc 1 58 14
 3250 06c4 8A05     		slli	a1,a1,2
 3251 06c6 CA95     		add	a1,s2,a1
 3252              	.LBE770:
 3253              	.LBE774:
 3254              	.LBE791:
 3255              	.LBB792:
 3256              	.LBB787:
 3257              	.LBB783:
  57:lcd.c         ****    queue[w++]=dat;                        //...If/when not then store data...
 3258              		.loc 1 57 17
 3259 06c8 93F6F60F 		andi	a3,a3,255
 3260              	.LBE783:
 3261              	.LBE787:
 3262              	.LBE792:
 3263              	.LBB793:
 3264              	.LBB775:
 3265              	.LBB771:
  58:lcd.c         ****    w%=256;                                //...and advance write index!
 3266              		.loc 1 58 14
 3267 06cc 13073010 		li	a4,259
 3268 06d0 98C1     		sw	a4,0(a1)
  59:lcd.c         **** }
 3269              		.loc 1 59 4 is_stmt 1
  59:lcd.c         **** }
 3270              		.loc 1 59 5 is_stmt 0
 3271 06d2 10C0     		sw	a2,0(s0)
 3272              	.LVL166:
 3273              	.LBE771:
 3274              	.LBE775:
 3275              	.LBE793:
 242:lcd.c         **** 	LCD_WR_DATA8(0x62);//
 3276              		.loc 1 242 2 is_stmt 1
 120:lcd.c         **** }
 3277              		.loc 1 120 5
 3278              	.LBB794:
 3279              	.LBB788:
 3280              	.LBB784:
GAS LISTING /tmp/ccIfjRGV.s 			page 81


  57:lcd.c         ****    queue[w++]=dat;                        //...If/when not then store data...
 3281              		.loc 1 57 4
  57:lcd.c         ****    queue[w++]=dat;                        //...If/when not then store data...
 3282              		.loc 1 57 17 is_stmt 0
 3283 06d4 898E     		sub	a3,a3,a0
  57:lcd.c         ****    queue[w++]=dat;                        //...If/when not then store data...
 3284              		.loc 1 57 10
 3285 06d6 6395D702 		bne	a5,a3,.L144
 3286              	.L145:
  57:lcd.c         ****    queue[w++]=dat;                        //...If/when not then store data...
 3287              		.loc 1 57 27 is_stmt 1
 3288 06da 97000000 		call	LCD_WR_Queue
 3288      E7800000 
 3289              	.LVL167:
  57:lcd.c         ****    queue[w++]=dat;                        //...If/when not then store data...
 3290              		.loc 1 57 14 is_stmt 0
 3291 06e2 1040     		lw	a2,0(s0)
  57:lcd.c         ****    queue[w++]=dat;                        //...If/when not then store data...
 3292              		.loc 1 57 22
 3293 06e4 9C40     		lw	a5,0(s1)
  57:lcd.c         ****    queue[w++]=dat;                        //...If/when not then store data...
 3294              		.loc 1 57 14
 3295 06e6 13071600 		addi	a4,a2,1
  57:lcd.c         ****    queue[w++]=dat;                        //...If/when not then store data...
 3296              		.loc 1 57 17
 3297 06ea 9356F741 		srai	a3,a4,31
 3298 06ee 93D58601 		srli	a1,a3,24
 3299 06f2 B306B700 		add	a3,a4,a1
 3300 06f6 93F6F60F 		andi	a3,a3,255
 3301 06fa 8D8E     		sub	a3,a3,a1
  57:lcd.c         ****    queue[w++]=dat;                        //...If/when not then store data...
 3302              		.loc 1 57 10
 3303 06fc E38FF6FC 		beq	a3,a5,.L145
 3304              	.L144:
  58:lcd.c         ****    w%=256;                                //...and advance write index!
 3305              		.loc 1 58 4 is_stmt 1
 3306              	.LBE784:
 3307              	.LBE788:
 3308              	.LBE794:
 3309              	.LBB795:
 3310              	.LBB796:
 3311              	.LBB797:
  57:lcd.c         ****    queue[w++]=dat;                        //...If/when not then store data...
 3312              		.loc 1 57 14 is_stmt 0
 3313 0700 13871600 		addi	a4,a3,1
  57:lcd.c         ****    queue[w++]=dat;                        //...If/when not then store data...
 3314              		.loc 1 57 17
 3315 0704 9355F741 		srai	a1,a4,31
 3316 0708 13D58501 		srli	a0,a1,24
 3317 070c B305A700 		add	a1,a4,a0
 3318              	.LBE797:
 3319              	.LBE796:
 3320              	.LBE795:
 3321              	.LBB806:
 3322              	.LBB789:
 3323              	.LBB785:
  58:lcd.c         ****    w%=256;                                //...and advance write index!
GAS LISTING /tmp/ccIfjRGV.s 			page 82


 3324              		.loc 1 58 14
 3325 0710 0A06     		slli	a2,a2,2
 3326 0712 4A96     		add	a2,s2,a2
 3327              	.LBE785:
 3328              	.LBE789:
 3329              	.LBE806:
 3330              	.LBB807:
 3331              	.LBB802:
 3332              	.LBB798:
  57:lcd.c         ****    queue[w++]=dat;                        //...If/when not then store data...
 3333              		.loc 1 57 17
 3334 0714 93F5F50F 		andi	a1,a1,255
 3335              	.LBE798:
 3336              	.LBE802:
 3337              	.LBE807:
 3338              	.LBB808:
 3339              	.LBB790:
 3340              	.LBB786:
  58:lcd.c         ****    w%=256;                                //...and advance write index!
 3341              		.loc 1 58 14
 3342 0718 1307000C 		li	a4,192
 3343 071c 18C2     		sw	a4,0(a2)
  59:lcd.c         **** }
 3344              		.loc 1 59 4 is_stmt 1
  59:lcd.c         **** }
 3345              		.loc 1 59 5 is_stmt 0
 3346 071e 14C0     		sw	a3,0(s0)
 3347              	.LVL168:
 3348              	.LBE786:
 3349              	.LBE790:
 3350              	.LBE808:
 243:lcd.c         **** 	LCD_WR_DATA8(0x02);//
 3351              		.loc 1 243 2 is_stmt 1
  92:lcd.c         **** }
 3352              		.loc 1 92 5
 3353              	.LBB809:
 3354              	.LBB803:
 3355              	.LBB799:
  57:lcd.c         ****    queue[w++]=dat;                        //...If/when not then store data...
 3356              		.loc 1 57 4
  57:lcd.c         ****    queue[w++]=dat;                        //...If/when not then store data...
 3357              		.loc 1 57 17 is_stmt 0
 3358 0720 898D     		sub	a1,a1,a0
  57:lcd.c         ****    queue[w++]=dat;                        //...If/when not then store data...
 3359              		.loc 1 57 10
 3360 0722 6395B702 		bne	a5,a1,.L146
 3361              	.L147:
  57:lcd.c         ****    queue[w++]=dat;                        //...If/when not then store data...
 3362              		.loc 1 57 27 is_stmt 1
 3363 0726 97000000 		call	LCD_WR_Queue
 3363      E7800000 
 3364              	.LVL169:
  57:lcd.c         ****    queue[w++]=dat;                        //...If/when not then store data...
 3365              		.loc 1 57 14 is_stmt 0
 3366 072e 1440     		lw	a3,0(s0)
  57:lcd.c         ****    queue[w++]=dat;                        //...If/when not then store data...
 3367              		.loc 1 57 22
GAS LISTING /tmp/ccIfjRGV.s 			page 83


 3368 0730 9C40     		lw	a5,0(s1)
  57:lcd.c         ****    queue[w++]=dat;                        //...If/when not then store data...
 3369              		.loc 1 57 14
 3370 0732 13871600 		addi	a4,a3,1
  57:lcd.c         ****    queue[w++]=dat;                        //...If/when not then store data...
 3371              		.loc 1 57 17
 3372 0736 9355F741 		srai	a1,a4,31
 3373 073a 13D68501 		srli	a2,a1,24
 3374 073e B305C700 		add	a1,a4,a2
 3375 0742 93F5F50F 		andi	a1,a1,255
 3376 0746 918D     		sub	a1,a1,a2
  57:lcd.c         ****    queue[w++]=dat;                        //...If/when not then store data...
 3377              		.loc 1 57 10
 3378 0748 E38FF5FC 		beq	a1,a5,.L147
 3379              	.L146:
  58:lcd.c         ****    w%=256;                                //...and advance write index!
 3380              		.loc 1 58 4 is_stmt 1
 3381              	.LBE799:
 3382              	.LBE803:
 3383              	.LBE809:
 3384              	.LBB810:
 3385              	.LBB811:
 3386              	.LBB812:
  57:lcd.c         ****    queue[w++]=dat;                        //...If/when not then store data...
 3387              		.loc 1 57 14 is_stmt 0
 3388 074c 13871500 		addi	a4,a1,1
  57:lcd.c         ****    queue[w++]=dat;                        //...If/when not then store data...
 3389              		.loc 1 57 17
 3390 0750 1356F741 		srai	a2,a4,31
 3391 0754 13558601 		srli	a0,a2,24
 3392 0758 3306A700 		add	a2,a4,a0
 3393              	.LBE812:
 3394              	.LBE811:
 3395              	.LBE810:
 3396              	.LBB821:
 3397              	.LBB804:
 3398              	.LBB800:
  58:lcd.c         ****    w%=256;                                //...and advance write index!
 3399              		.loc 1 58 14
 3400 075c 8A06     		slli	a3,a3,2
 3401 075e CA96     		add	a3,s2,a3
 3402              	.LBE800:
 3403              	.LBE804:
 3404              	.LBE821:
 3405              	.LBB822:
 3406              	.LBB817:
 3407              	.LBB813:
  57:lcd.c         ****    queue[w++]=dat;                        //...If/when not then store data...
 3408              		.loc 1 57 17
 3409 0760 1376F60F 		andi	a2,a2,255
 3410              	.LBE813:
 3411              	.LBE817:
 3412              	.LBE822:
 3413              	.LBB823:
 3414              	.LBB805:
 3415              	.LBB801:
  58:lcd.c         ****    w%=256;                                //...and advance write index!
GAS LISTING /tmp/ccIfjRGV.s 			page 84


 3416              		.loc 1 58 14
 3417 0764 13072016 		li	a4,354
 3418 0768 98C2     		sw	a4,0(a3)
  59:lcd.c         **** }
 3419              		.loc 1 59 4 is_stmt 1
  59:lcd.c         **** }
 3420              		.loc 1 59 5 is_stmt 0
 3421 076a 0CC0     		sw	a1,0(s0)
 3422              	.LVL170:
 3423              	.LBE801:
 3424              	.LBE805:
 3425              	.LBE823:
 244:lcd.c         **** 	LCD_WR_DATA8(0x04);//
 3426              		.loc 1 244 2 is_stmt 1
  92:lcd.c         **** }
 3427              		.loc 1 92 5
 3428              	.LBB824:
 3429              	.LBB818:
 3430              	.LBB814:
  57:lcd.c         ****    queue[w++]=dat;                        //...If/when not then store data...
 3431              		.loc 1 57 4
  57:lcd.c         ****    queue[w++]=dat;                        //...If/when not then store data...
 3432              		.loc 1 57 17 is_stmt 0
 3433 076c 098E     		sub	a2,a2,a0
  57:lcd.c         ****    queue[w++]=dat;                        //...If/when not then store data...
 3434              		.loc 1 57 10
 3435 076e 6395C702 		bne	a5,a2,.L148
 3436              	.L149:
  57:lcd.c         ****    queue[w++]=dat;                        //...If/when not then store data...
 3437              		.loc 1 57 27 is_stmt 1
 3438 0772 97000000 		call	LCD_WR_Queue
 3438      E7800000 
 3439              	.LVL171:
  57:lcd.c         ****    queue[w++]=dat;                        //...If/when not then store data...
 3440              		.loc 1 57 14 is_stmt 0
 3441 077a 0C40     		lw	a1,0(s0)
  57:lcd.c         ****    queue[w++]=dat;                        //...If/when not then store data...
 3442              		.loc 1 57 22
 3443 077c 9C40     		lw	a5,0(s1)
  57:lcd.c         ****    queue[w++]=dat;                        //...If/when not then store data...
 3444              		.loc 1 57 14
 3445 077e 13871500 		addi	a4,a1,1
  57:lcd.c         ****    queue[w++]=dat;                        //...If/when not then store data...
 3446              		.loc 1 57 17
 3447 0782 1356F741 		srai	a2,a4,31
 3448 0786 93568601 		srli	a3,a2,24
 3449 078a 3306D700 		add	a2,a4,a3
 3450 078e 1376F60F 		andi	a2,a2,255
 3451 0792 158E     		sub	a2,a2,a3
  57:lcd.c         ****    queue[w++]=dat;                        //...If/when not then store data...
 3452              		.loc 1 57 10
 3453 0794 E30FF6FC 		beq	a2,a5,.L149
 3454              	.L148:
  58:lcd.c         ****    w%=256;                                //...and advance write index!
 3455              		.loc 1 58 4 is_stmt 1
 3456              	.LBE814:
 3457              	.LBE818:
GAS LISTING /tmp/ccIfjRGV.s 			page 85


 3458              	.LBE824:
 3459              	.LBB825:
 3460              	.LBB826:
 3461              	.LBB827:
  57:lcd.c         ****    queue[w++]=dat;                        //...If/when not then store data...
 3462              		.loc 1 57 14 is_stmt 0
 3463 0798 13071600 		addi	a4,a2,1
  57:lcd.c         ****    queue[w++]=dat;                        //...If/when not then store data...
 3464              		.loc 1 57 17
 3465 079c 9356F741 		srai	a3,a4,31
 3466 07a0 13D58601 		srli	a0,a3,24
 3467 07a4 B306A700 		add	a3,a4,a0
 3468              	.LBE827:
 3469              	.LBE826:
 3470              	.LBE825:
 3471              	.LBB836:
 3472              	.LBB819:
 3473              	.LBB815:
  58:lcd.c         ****    w%=256;                                //...and advance write index!
 3474              		.loc 1 58 14
 3475 07a8 8A05     		slli	a1,a1,2
 3476 07aa CA95     		add	a1,s2,a1
 3477              	.LBE815:
 3478              	.LBE819:
 3479              	.LBE836:
 3480              	.LBB837:
 3481              	.LBB832:
 3482              	.LBB828:
  57:lcd.c         ****    queue[w++]=dat;                        //...If/when not then store data...
 3483              		.loc 1 57 17
 3484 07ac 93F6F60F 		andi	a3,a3,255
 3485              	.LBE828:
 3486              	.LBE832:
 3487              	.LBE837:
 3488              	.LBB838:
 3489              	.LBB820:
 3490              	.LBB816:
  58:lcd.c         ****    w%=256;                                //...and advance write index!
 3491              		.loc 1 58 14
 3492 07b0 13072010 		li	a4,258
 3493 07b4 98C1     		sw	a4,0(a1)
  59:lcd.c         **** }
 3494              		.loc 1 59 4 is_stmt 1
  59:lcd.c         **** }
 3495              		.loc 1 59 5 is_stmt 0
 3496 07b6 10C0     		sw	a2,0(s0)
 3497              	.LVL172:
 3498              	.LBE816:
 3499              	.LBE820:
 3500              	.LBE838:
 245:lcd.c         **** 
 3501              		.loc 1 245 2 is_stmt 1
  92:lcd.c         **** }
 3502              		.loc 1 92 5
 3503              	.LBB839:
 3504              	.LBB833:
 3505              	.LBB829:
GAS LISTING /tmp/ccIfjRGV.s 			page 86


  57:lcd.c         ****    queue[w++]=dat;                        //...If/when not then store data...
 3506              		.loc 1 57 4
  57:lcd.c         ****    queue[w++]=dat;                        //...If/when not then store data...
 3507              		.loc 1 57 17 is_stmt 0
 3508 07b8 898E     		sub	a3,a3,a0
  57:lcd.c         ****    queue[w++]=dat;                        //...If/when not then store data...
 3509              		.loc 1 57 10
 3510 07ba 6395D702 		bne	a5,a3,.L150
 3511              	.L151:
  57:lcd.c         ****    queue[w++]=dat;                        //...If/when not then store data...
 3512              		.loc 1 57 27 is_stmt 1
 3513 07be 97000000 		call	LCD_WR_Queue
 3513      E7800000 
 3514              	.LVL173:
  57:lcd.c         ****    queue[w++]=dat;                        //...If/when not then store data...
 3515              		.loc 1 57 14 is_stmt 0
 3516 07c6 1040     		lw	a2,0(s0)
  57:lcd.c         ****    queue[w++]=dat;                        //...If/when not then store data...
 3517              		.loc 1 57 22
 3518 07c8 9C40     		lw	a5,0(s1)
  57:lcd.c         ****    queue[w++]=dat;                        //...If/when not then store data...
 3519              		.loc 1 57 14
 3520 07ca 13071600 		addi	a4,a2,1
  57:lcd.c         ****    queue[w++]=dat;                        //...If/when not then store data...
 3521              		.loc 1 57 17
 3522 07ce 9356F741 		srai	a3,a4,31
 3523 07d2 93D58601 		srli	a1,a3,24
 3524 07d6 B306B700 		add	a3,a4,a1
 3525 07da 93F6F60F 		andi	a3,a3,255
 3526 07de 8D8E     		sub	a3,a3,a1
  57:lcd.c         ****    queue[w++]=dat;                        //...If/when not then store data...
 3527              		.loc 1 57 10
 3528 07e0 E38FF6FC 		beq	a3,a5,.L151
 3529              	.L150:
  58:lcd.c         ****    w%=256;                                //...and advance write index!
 3530              		.loc 1 58 4 is_stmt 1
 3531              	.LBE829:
 3532              	.LBE833:
 3533              	.LBE839:
 3534              	.LBB840:
 3535              	.LBB841:
 3536              	.LBB842:
  57:lcd.c         ****    queue[w++]=dat;                        //...If/when not then store data...
 3537              		.loc 1 57 14 is_stmt 0
 3538 07e4 13871600 		addi	a4,a3,1
  57:lcd.c         ****    queue[w++]=dat;                        //...If/when not then store data...
 3539              		.loc 1 57 17
 3540 07e8 9355F741 		srai	a1,a4,31
 3541 07ec 13D58501 		srli	a0,a1,24
 3542 07f0 B305A700 		add	a1,a4,a0
 3543              	.LBE842:
 3544              	.LBE841:
 3545              	.LBE840:
 3546              	.LBB851:
 3547              	.LBB834:
 3548              	.LBB830:
  58:lcd.c         ****    w%=256;                                //...and advance write index!
GAS LISTING /tmp/ccIfjRGV.s 			page 87


 3549              		.loc 1 58 14
 3550 07f4 0A06     		slli	a2,a2,2
 3551 07f6 4A96     		add	a2,s2,a2
 3552              	.LBE830:
 3553              	.LBE834:
 3554              	.LBE851:
 3555              	.LBB852:
 3556              	.LBB847:
 3557              	.LBB843:
  57:lcd.c         ****    queue[w++]=dat;                        //...If/when not then store data...
 3558              		.loc 1 57 17
 3559 07f8 93F5F50F 		andi	a1,a1,255
 3560              	.LBE843:
 3561              	.LBE847:
 3562              	.LBE852:
 3563              	.LBB853:
 3564              	.LBB835:
 3565              	.LBB831:
  58:lcd.c         ****    w%=256;                                //...and advance write index!
 3566              		.loc 1 58 14
 3567 07fc 13074010 		li	a4,260
 3568 0800 18C2     		sw	a4,0(a2)
  59:lcd.c         **** }
 3569              		.loc 1 59 4 is_stmt 1
  59:lcd.c         **** }
 3570              		.loc 1 59 5 is_stmt 0
 3571 0802 14C0     		sw	a3,0(s0)
 3572              	.LVL174:
 3573              	.LBE831:
 3574              	.LBE835:
 3575              	.LBE853:
 247:lcd.c         **** 	LCD_WR_DATA8(0xC0);
 3576              		.loc 1 247 2 is_stmt 1
 120:lcd.c         **** }
 3577              		.loc 1 120 5
 3578              	.LBB854:
 3579              	.LBB848:
 3580              	.LBB844:
  57:lcd.c         ****    queue[w++]=dat;                        //...If/when not then store data...
 3581              		.loc 1 57 4
  57:lcd.c         ****    queue[w++]=dat;                        //...If/when not then store data...
 3582              		.loc 1 57 17 is_stmt 0
 3583 0804 898D     		sub	a1,a1,a0
  57:lcd.c         ****    queue[w++]=dat;                        //...If/when not then store data...
 3584              		.loc 1 57 10
 3585 0806 6395B702 		bne	a5,a1,.L152
 3586              	.L153:
  57:lcd.c         ****    queue[w++]=dat;                        //...If/when not then store data...
 3587              		.loc 1 57 27 is_stmt 1
 3588 080a 97000000 		call	LCD_WR_Queue
 3588      E7800000 
 3589              	.LVL175:
  57:lcd.c         ****    queue[w++]=dat;                        //...If/when not then store data...
 3590              		.loc 1 57 14 is_stmt 0
 3591 0812 1440     		lw	a3,0(s0)
  57:lcd.c         ****    queue[w++]=dat;                        //...If/when not then store data...
 3592              		.loc 1 57 22
GAS LISTING /tmp/ccIfjRGV.s 			page 88


 3593 0814 9C40     		lw	a5,0(s1)
  57:lcd.c         ****    queue[w++]=dat;                        //...If/when not then store data...
 3594              		.loc 1 57 14
 3595 0816 13871600 		addi	a4,a3,1
  57:lcd.c         ****    queue[w++]=dat;                        //...If/when not then store data...
 3596              		.loc 1 57 17
 3597 081a 9355F741 		srai	a1,a4,31
 3598 081e 13D68501 		srli	a2,a1,24
 3599 0822 B305C700 		add	a1,a4,a2
 3600 0826 93F5F50F 		andi	a1,a1,255
 3601 082a 918D     		sub	a1,a1,a2
  57:lcd.c         ****    queue[w++]=dat;                        //...If/when not then store data...
 3602              		.loc 1 57 10
 3603 082c E38FF5FC 		beq	a1,a5,.L153
 3604              	.L152:
  58:lcd.c         ****    w%=256;                                //...and advance write index!
 3605              		.loc 1 58 4 is_stmt 1
 3606              	.LBE844:
 3607              	.LBE848:
 3608              	.LBE854:
 3609              	.LBB855:
 3610              	.LBB856:
 3611              	.LBB857:
  57:lcd.c         ****    queue[w++]=dat;                        //...If/when not then store data...
 3612              		.loc 1 57 14 is_stmt 0
 3613 0830 13871500 		addi	a4,a1,1
  57:lcd.c         ****    queue[w++]=dat;                        //...If/when not then store data...
 3614              		.loc 1 57 17
 3615 0834 1356F741 		srai	a2,a4,31
 3616 0838 13558601 		srli	a0,a2,24
 3617 083c 3306A700 		add	a2,a4,a0
 3618              	.LBE857:
 3619              	.LBE856:
 3620              	.LBE855:
 3621              	.LBB866:
 3622              	.LBB849:
 3623              	.LBB845:
  58:lcd.c         ****    w%=256;                                //...and advance write index!
 3624              		.loc 1 58 14
 3625 0840 8A06     		slli	a3,a3,2
 3626 0842 CA96     		add	a3,s2,a3
 3627              	.LBE845:
 3628              	.LBE849:
 3629              	.LBE866:
 3630              	.LBB867:
 3631              	.LBB862:
 3632              	.LBB858:
  57:lcd.c         ****    queue[w++]=dat;                        //...If/when not then store data...
 3633              		.loc 1 57 17
 3634 0844 1376F60F 		andi	a2,a2,255
 3635              	.LBE858:
 3636              	.LBE862:
 3637              	.LBE867:
 3638              	.LBB868:
 3639              	.LBB850:
 3640              	.LBB846:
  58:lcd.c         ****    w%=256;                                //...and advance write index!
GAS LISTING /tmp/ccIfjRGV.s 			page 89


 3641              		.loc 1 58 14
 3642 0848 1307100C 		li	a4,193
 3643 084c 98C2     		sw	a4,0(a3)
  59:lcd.c         **** }
 3644              		.loc 1 59 4 is_stmt 1
  59:lcd.c         **** }
 3645              		.loc 1 59 5 is_stmt 0
 3646 084e 0CC0     		sw	a1,0(s0)
 3647              	.LVL176:
 3648              	.LBE846:
 3649              	.LBE850:
 3650              	.LBE868:
 248:lcd.c         **** 
 3651              		.loc 1 248 2 is_stmt 1
  92:lcd.c         **** }
 3652              		.loc 1 92 5
 3653              	.LBB869:
 3654              	.LBB863:
 3655              	.LBB859:
  57:lcd.c         ****    queue[w++]=dat;                        //...If/when not then store data...
 3656              		.loc 1 57 4
  57:lcd.c         ****    queue[w++]=dat;                        //...If/when not then store data...
 3657              		.loc 1 57 17 is_stmt 0
 3658 0850 098E     		sub	a2,a2,a0
  57:lcd.c         ****    queue[w++]=dat;                        //...If/when not then store data...
 3659              		.loc 1 57 10
 3660 0852 6395C702 		bne	a5,a2,.L154
 3661              	.L155:
  57:lcd.c         ****    queue[w++]=dat;                        //...If/when not then store data...
 3662              		.loc 1 57 27 is_stmt 1
 3663 0856 97000000 		call	LCD_WR_Queue
 3663      E7800000 
 3664              	.LVL177:
  57:lcd.c         ****    queue[w++]=dat;                        //...If/when not then store data...
 3665              		.loc 1 57 14 is_stmt 0
 3666 085e 0C40     		lw	a1,0(s0)
  57:lcd.c         ****    queue[w++]=dat;                        //...If/when not then store data...
 3667              		.loc 1 57 22
 3668 0860 9C40     		lw	a5,0(s1)
  57:lcd.c         ****    queue[w++]=dat;                        //...If/when not then store data...
 3669              		.loc 1 57 14
 3670 0862 13871500 		addi	a4,a1,1
  57:lcd.c         ****    queue[w++]=dat;                        //...If/when not then store data...
 3671              		.loc 1 57 17
 3672 0866 1356F741 		srai	a2,a4,31
 3673 086a 93568601 		srli	a3,a2,24
 3674 086e 3306D700 		add	a2,a4,a3
 3675 0872 1376F60F 		andi	a2,a2,255
 3676 0876 158E     		sub	a2,a2,a3
  57:lcd.c         ****    queue[w++]=dat;                        //...If/when not then store data...
 3677              		.loc 1 57 10
 3678 0878 E30FF6FC 		beq	a2,a5,.L155
 3679              	.L154:
  58:lcd.c         ****    w%=256;                                //...and advance write index!
 3680              		.loc 1 58 4 is_stmt 1
 3681              	.LBE859:
 3682              	.LBE863:
GAS LISTING /tmp/ccIfjRGV.s 			page 90


 3683              	.LBE869:
 3684              	.LBB870:
 3685              	.LBB871:
 3686              	.LBB872:
  57:lcd.c         ****    queue[w++]=dat;                        //...If/when not then store data...
 3687              		.loc 1 57 14 is_stmt 0
 3688 087c 13071600 		addi	a4,a2,1
  57:lcd.c         ****    queue[w++]=dat;                        //...If/when not then store data...
 3689              		.loc 1 57 17
 3690 0880 9356F741 		srai	a3,a4,31
 3691 0884 13D58601 		srli	a0,a3,24
 3692 0888 B306A700 		add	a3,a4,a0
 3693              	.LBE872:
 3694              	.LBE871:
 3695              	.LBE870:
 3696              	.LBB881:
 3697              	.LBB864:
 3698              	.LBB860:
  58:lcd.c         ****    w%=256;                                //...and advance write index!
 3699              		.loc 1 58 14
 3700 088c 8A05     		slli	a1,a1,2
 3701 088e CA95     		add	a1,s2,a1
 3702              	.LBE860:
 3703              	.LBE864:
 3704              	.LBE881:
 3705              	.LBB882:
 3706              	.LBB877:
 3707              	.LBB873:
  57:lcd.c         ****    queue[w++]=dat;                        //...If/when not then store data...
 3708              		.loc 1 57 17
 3709 0890 93F6F60F 		andi	a3,a3,255
 3710              	.LBE873:
 3711              	.LBE877:
 3712              	.LBE882:
 3713              	.LBB883:
 3714              	.LBB865:
 3715              	.LBB861:
  58:lcd.c         ****    w%=256;                                //...and advance write index!
 3716              		.loc 1 58 14
 3717 0894 1307001C 		li	a4,448
 3718 0898 98C1     		sw	a4,0(a1)
  59:lcd.c         **** }
 3719              		.loc 1 59 4 is_stmt 1
  59:lcd.c         **** }
 3720              		.loc 1 59 5 is_stmt 0
 3721 089a 10C0     		sw	a2,0(s0)
 3722              	.LVL178:
 3723              	.LBE861:
 3724              	.LBE865:
 3725              	.LBE883:
 250:lcd.c         **** 	LCD_WR_DATA8(0x0D);
 3726              		.loc 1 250 2 is_stmt 1
 120:lcd.c         **** }
 3727              		.loc 1 120 5
 3728              	.LBB884:
 3729              	.LBB878:
 3730              	.LBB874:
GAS LISTING /tmp/ccIfjRGV.s 			page 91


  57:lcd.c         ****    queue[w++]=dat;                        //...If/when not then store data...
 3731              		.loc 1 57 4
  57:lcd.c         ****    queue[w++]=dat;                        //...If/when not then store data...
 3732              		.loc 1 57 17 is_stmt 0
 3733 089c 898E     		sub	a3,a3,a0
  57:lcd.c         ****    queue[w++]=dat;                        //...If/when not then store data...
 3734              		.loc 1 57 10
 3735 089e 6395D702 		bne	a5,a3,.L156
 3736              	.L157:
  57:lcd.c         ****    queue[w++]=dat;                        //...If/when not then store data...
 3737              		.loc 1 57 27 is_stmt 1
 3738 08a2 97000000 		call	LCD_WR_Queue
 3738      E7800000 
 3739              	.LVL179:
  57:lcd.c         ****    queue[w++]=dat;                        //...If/when not then store data...
 3740              		.loc 1 57 14 is_stmt 0
 3741 08aa 1040     		lw	a2,0(s0)
  57:lcd.c         ****    queue[w++]=dat;                        //...If/when not then store data...
 3742              		.loc 1 57 22
 3743 08ac 9C40     		lw	a5,0(s1)
  57:lcd.c         ****    queue[w++]=dat;                        //...If/when not then store data...
 3744              		.loc 1 57 14
 3745 08ae 13071600 		addi	a4,a2,1
  57:lcd.c         ****    queue[w++]=dat;                        //...If/when not then store data...
 3746              		.loc 1 57 17
 3747 08b2 9356F741 		srai	a3,a4,31
 3748 08b6 93D58601 		srli	a1,a3,24
 3749 08ba B306B700 		add	a3,a4,a1
 3750 08be 93F6F60F 		andi	a3,a3,255
 3751 08c2 8D8E     		sub	a3,a3,a1
  57:lcd.c         ****    queue[w++]=dat;                        //...If/when not then store data...
 3752              		.loc 1 57 10
 3753 08c4 E38FF6FC 		beq	a3,a5,.L157
 3754              	.L156:
  58:lcd.c         ****    w%=256;                                //...and advance write index!
 3755              		.loc 1 58 4 is_stmt 1
 3756              	.LBE874:
 3757              	.LBE878:
 3758              	.LBE884:
 3759              	.LBB885:
 3760              	.LBB886:
 3761              	.LBB887:
  57:lcd.c         ****    queue[w++]=dat;                        //...If/when not then store data...
 3762              		.loc 1 57 14 is_stmt 0
 3763 08c8 13871600 		addi	a4,a3,1
  57:lcd.c         ****    queue[w++]=dat;                        //...If/when not then store data...
 3764              		.loc 1 57 17
 3765 08cc 9355F741 		srai	a1,a4,31
 3766 08d0 13D58501 		srli	a0,a1,24
 3767 08d4 B305A700 		add	a1,a4,a0
 3768              	.LBE887:
 3769              	.LBE886:
 3770              	.LBE885:
 3771              	.LBB896:
 3772              	.LBB879:
 3773              	.LBB875:
  58:lcd.c         ****    w%=256;                                //...and advance write index!
GAS LISTING /tmp/ccIfjRGV.s 			page 92


 3774              		.loc 1 58 14
 3775 08d8 0A06     		slli	a2,a2,2
 3776 08da 4A96     		add	a2,s2,a2
 3777              	.LBE875:
 3778              	.LBE879:
 3779              	.LBE896:
 3780              	.LBB897:
 3781              	.LBB892:
 3782              	.LBB888:
  57:lcd.c         ****    queue[w++]=dat;                        //...If/when not then store data...
 3783              		.loc 1 57 17
 3784 08dc 93F5F50F 		andi	a1,a1,255
 3785              	.LBE888:
 3786              	.LBE892:
 3787              	.LBE897:
 3788              	.LBB898:
 3789              	.LBB880:
 3790              	.LBB876:
  58:lcd.c         ****    w%=256;                                //...and advance write index!
 3791              		.loc 1 58 14
 3792 08e0 1307200C 		li	a4,194
 3793 08e4 18C2     		sw	a4,0(a2)
  59:lcd.c         **** }
 3794              		.loc 1 59 4 is_stmt 1
  59:lcd.c         **** }
 3795              		.loc 1 59 5 is_stmt 0
 3796 08e6 14C0     		sw	a3,0(s0)
 3797              	.LVL180:
 3798              	.LBE876:
 3799              	.LBE880:
 3800              	.LBE898:
 251:lcd.c         **** 	LCD_WR_DATA8(0x00);
 3801              		.loc 1 251 2 is_stmt 1
  92:lcd.c         **** }
 3802              		.loc 1 92 5
 3803              	.LBB899:
 3804              	.LBB893:
 3805              	.LBB889:
  57:lcd.c         ****    queue[w++]=dat;                        //...If/when not then store data...
 3806              		.loc 1 57 4
  57:lcd.c         ****    queue[w++]=dat;                        //...If/when not then store data...
 3807              		.loc 1 57 17 is_stmt 0
 3808 08e8 898D     		sub	a1,a1,a0
  57:lcd.c         ****    queue[w++]=dat;                        //...If/when not then store data...
 3809              		.loc 1 57 10
 3810 08ea 6395F502 		bne	a1,a5,.L158
 3811              	.L159:
  57:lcd.c         ****    queue[w++]=dat;                        //...If/when not then store data...
 3812              		.loc 1 57 27 is_stmt 1
 3813 08ee 97000000 		call	LCD_WR_Queue
 3813      E7800000 
 3814              	.LVL181:
  57:lcd.c         ****    queue[w++]=dat;                        //...If/when not then store data...
 3815              		.loc 1 57 14 is_stmt 0
 3816 08f6 1440     		lw	a3,0(s0)
  57:lcd.c         ****    queue[w++]=dat;                        //...If/when not then store data...
 3817              		.loc 1 57 22
GAS LISTING /tmp/ccIfjRGV.s 			page 93


 3818 08f8 9C40     		lw	a5,0(s1)
  57:lcd.c         ****    queue[w++]=dat;                        //...If/when not then store data...
 3819              		.loc 1 57 14
 3820 08fa 13871600 		addi	a4,a3,1
  57:lcd.c         ****    queue[w++]=dat;                        //...If/when not then store data...
 3821              		.loc 1 57 17
 3822 08fe 9355F741 		srai	a1,a4,31
 3823 0902 13D68501 		srli	a2,a1,24
 3824 0906 B305C700 		add	a1,a4,a2
 3825 090a 93F5F50F 		andi	a1,a1,255
 3826 090e 918D     		sub	a1,a1,a2
  57:lcd.c         ****    queue[w++]=dat;                        //...If/when not then store data...
 3827              		.loc 1 57 10
 3828 0910 E38FF5FC 		beq	a1,a5,.L159
 3829              	.L158:
  58:lcd.c         ****    w%=256;                                //...and advance write index!
 3830              		.loc 1 58 4 is_stmt 1
 3831              	.LBE889:
 3832              	.LBE893:
 3833              	.LBE899:
 3834              	.LBB900:
 3835              	.LBB901:
 3836              	.LBB902:
  57:lcd.c         ****    queue[w++]=dat;                        //...If/when not then store data...
 3837              		.loc 1 57 14 is_stmt 0
 3838 0914 13871500 		addi	a4,a1,1
  57:lcd.c         ****    queue[w++]=dat;                        //...If/when not then store data...
 3839              		.loc 1 57 17
 3840 0918 1356F741 		srai	a2,a4,31
 3841 091c 13558601 		srli	a0,a2,24
 3842 0920 3306A700 		add	a2,a4,a0
 3843              	.LBE902:
 3844              	.LBE901:
 3845              	.LBE900:
 3846              	.LBB911:
 3847              	.LBB894:
 3848              	.LBB890:
  58:lcd.c         ****    w%=256;                                //...and advance write index!
 3849              		.loc 1 58 14
 3850 0924 8A06     		slli	a3,a3,2
 3851 0926 CA96     		add	a3,s2,a3
 3852              	.LBE890:
 3853              	.LBE894:
 3854              	.LBE911:
 3855              	.LBB912:
 3856              	.LBB907:
 3857              	.LBB903:
  57:lcd.c         ****    queue[w++]=dat;                        //...If/when not then store data...
 3858              		.loc 1 57 17
 3859 0928 1376F60F 		andi	a2,a2,255
 3860              	.LBE903:
 3861              	.LBE907:
 3862              	.LBE912:
 3863              	.LBB913:
 3864              	.LBB895:
 3865              	.LBB891:
  58:lcd.c         ****    w%=256;                                //...and advance write index!
GAS LISTING /tmp/ccIfjRGV.s 			page 94


 3866              		.loc 1 58 14
 3867 092c 1307D010 		li	a4,269
 3868 0930 98C2     		sw	a4,0(a3)
  59:lcd.c         **** }
 3869              		.loc 1 59 4 is_stmt 1
  59:lcd.c         **** }
 3870              		.loc 1 59 5 is_stmt 0
 3871 0932 0CC0     		sw	a1,0(s0)
 3872              	.LVL182:
 3873              	.LBE891:
 3874              	.LBE895:
 3875              	.LBE913:
 252:lcd.c         **** 
 3876              		.loc 1 252 2 is_stmt 1
  92:lcd.c         **** }
 3877              		.loc 1 92 5
 3878              	.LBB914:
 3879              	.LBB908:
 3880              	.LBB904:
  57:lcd.c         ****    queue[w++]=dat;                        //...If/when not then store data...
 3881              		.loc 1 57 4
  57:lcd.c         ****    queue[w++]=dat;                        //...If/when not then store data...
 3882              		.loc 1 57 17 is_stmt 0
 3883 0934 098E     		sub	a2,a2,a0
  57:lcd.c         ****    queue[w++]=dat;                        //...If/when not then store data...
 3884              		.loc 1 57 10
 3885 0936 6395C702 		bne	a5,a2,.L160
 3886              	.L161:
  57:lcd.c         ****    queue[w++]=dat;                        //...If/when not then store data...
 3887              		.loc 1 57 27 is_stmt 1
 3888 093a 97000000 		call	LCD_WR_Queue
 3888      E7800000 
 3889              	.LVL183:
  57:lcd.c         ****    queue[w++]=dat;                        //...If/when not then store data...
 3890              		.loc 1 57 14 is_stmt 0
 3891 0942 0C40     		lw	a1,0(s0)
  57:lcd.c         ****    queue[w++]=dat;                        //...If/when not then store data...
 3892              		.loc 1 57 22
 3893 0944 9C40     		lw	a5,0(s1)
  57:lcd.c         ****    queue[w++]=dat;                        //...If/when not then store data...
 3894              		.loc 1 57 14
 3895 0946 13871500 		addi	a4,a1,1
  57:lcd.c         ****    queue[w++]=dat;                        //...If/when not then store data...
 3896              		.loc 1 57 17
 3897 094a 1356F741 		srai	a2,a4,31
 3898 094e 93568601 		srli	a3,a2,24
 3899 0952 3306D700 		add	a2,a4,a3
 3900 0956 1376F60F 		andi	a2,a2,255
 3901 095a 158E     		sub	a2,a2,a3
  57:lcd.c         ****    queue[w++]=dat;                        //...If/when not then store data...
 3902              		.loc 1 57 10
 3903 095c E30FF6FC 		beq	a2,a5,.L161
 3904              	.L160:
  58:lcd.c         ****    w%=256;                                //...and advance write index!
 3905              		.loc 1 58 4 is_stmt 1
 3906              	.LBE904:
 3907              	.LBE908:
GAS LISTING /tmp/ccIfjRGV.s 			page 95


 3908              	.LBE914:
 3909              	.LBB915:
 3910              	.LBB916:
 3911              	.LBB917:
  57:lcd.c         ****    queue[w++]=dat;                        //...If/when not then store data...
 3912              		.loc 1 57 14 is_stmt 0
 3913 0960 13071600 		addi	a4,a2,1
  57:lcd.c         ****    queue[w++]=dat;                        //...If/when not then store data...
 3914              		.loc 1 57 17
 3915 0964 9356F741 		srai	a3,a4,31
 3916 0968 13D58601 		srli	a0,a3,24
 3917 096c B306A700 		add	a3,a4,a0
 3918              	.LBE917:
 3919              	.LBE916:
 3920              	.LBE915:
 3921              	.LBB926:
 3922              	.LBB909:
 3923              	.LBB905:
  58:lcd.c         ****    w%=256;                                //...and advance write index!
 3924              		.loc 1 58 14
 3925 0970 8A05     		slli	a1,a1,2
 3926 0972 CA95     		add	a1,s2,a1
 3927              	.LBE905:
 3928              	.LBE909:
 3929              	.LBE926:
 3930              	.LBB927:
 3931              	.LBB922:
 3932              	.LBB918:
  57:lcd.c         ****    queue[w++]=dat;                        //...If/when not then store data...
 3933              		.loc 1 57 17
 3934 0974 93F6F60F 		andi	a3,a3,255
 3935              	.LBE918:
 3936              	.LBE922:
 3937              	.LBE927:
 3938              	.LBB928:
 3939              	.LBB910:
 3940              	.LBB906:
  58:lcd.c         ****    w%=256;                                //...and advance write index!
 3941              		.loc 1 58 14
 3942 0978 13070010 		li	a4,256
 3943 097c 98C1     		sw	a4,0(a1)
  59:lcd.c         **** }
 3944              		.loc 1 59 4 is_stmt 1
  59:lcd.c         **** }
 3945              		.loc 1 59 5 is_stmt 0
 3946 097e 10C0     		sw	a2,0(s0)
 3947              	.LVL184:
 3948              	.LBE906:
 3949              	.LBE910:
 3950              	.LBE928:
 254:lcd.c         **** 	LCD_WR_DATA8(0x8D);
 3951              		.loc 1 254 2 is_stmt 1
 120:lcd.c         **** }
 3952              		.loc 1 120 5
 3953              	.LBB929:
 3954              	.LBB923:
 3955              	.LBB919:
GAS LISTING /tmp/ccIfjRGV.s 			page 96


  57:lcd.c         ****    queue[w++]=dat;                        //...If/when not then store data...
 3956              		.loc 1 57 4
  57:lcd.c         ****    queue[w++]=dat;                        //...If/when not then store data...
 3957              		.loc 1 57 17 is_stmt 0
 3958 0980 898E     		sub	a3,a3,a0
  57:lcd.c         ****    queue[w++]=dat;                        //...If/when not then store data...
 3959              		.loc 1 57 10
 3960 0982 6395F602 		bne	a3,a5,.L162
 3961              	.L163:
  57:lcd.c         ****    queue[w++]=dat;                        //...If/when not then store data...
 3962              		.loc 1 57 27 is_stmt 1
 3963 0986 97000000 		call	LCD_WR_Queue
 3963      E7800000 
 3964              	.LVL185:
  57:lcd.c         ****    queue[w++]=dat;                        //...If/when not then store data...
 3965              		.loc 1 57 14 is_stmt 0
 3966 098e 1040     		lw	a2,0(s0)
  57:lcd.c         ****    queue[w++]=dat;                        //...If/when not then store data...
 3967              		.loc 1 57 22
 3968 0990 9C40     		lw	a5,0(s1)
  57:lcd.c         ****    queue[w++]=dat;                        //...If/when not then store data...
 3969              		.loc 1 57 14
 3970 0992 13071600 		addi	a4,a2,1
  57:lcd.c         ****    queue[w++]=dat;                        //...If/when not then store data...
 3971              		.loc 1 57 17
 3972 0996 9356F741 		srai	a3,a4,31
 3973 099a 93D58601 		srli	a1,a3,24
 3974 099e B306B700 		add	a3,a4,a1
 3975 09a2 93F6F60F 		andi	a3,a3,255
 3976 09a6 8D8E     		sub	a3,a3,a1
  57:lcd.c         ****    queue[w++]=dat;                        //...If/when not then store data...
 3977              		.loc 1 57 10
 3978 09a8 E38FF6FC 		beq	a3,a5,.L163
 3979              	.L162:
  58:lcd.c         ****    w%=256;                                //...and advance write index!
 3980              		.loc 1 58 4 is_stmt 1
 3981              	.LBE919:
 3982              	.LBE923:
 3983              	.LBE929:
 3984              	.LBB930:
 3985              	.LBB931:
 3986              	.LBB932:
  57:lcd.c         ****    queue[w++]=dat;                        //...If/when not then store data...
 3987              		.loc 1 57 14 is_stmt 0
 3988 09ac 13871600 		addi	a4,a3,1
  57:lcd.c         ****    queue[w++]=dat;                        //...If/when not then store data...
 3989              		.loc 1 57 17
 3990 09b0 9355F741 		srai	a1,a4,31
 3991 09b4 13D58501 		srli	a0,a1,24
 3992 09b8 B305A700 		add	a1,a4,a0
 3993              	.LBE932:
 3994              	.LBE931:
 3995              	.LBE930:
 3996              	.LBB941:
 3997              	.LBB924:
 3998              	.LBB920:
  58:lcd.c         ****    w%=256;                                //...and advance write index!
GAS LISTING /tmp/ccIfjRGV.s 			page 97


 3999              		.loc 1 58 14
 4000 09bc 0A06     		slli	a2,a2,2
 4001 09be 4A96     		add	a2,s2,a2
 4002              	.LBE920:
 4003              	.LBE924:
 4004              	.LBE941:
 4005              	.LBB942:
 4006              	.LBB937:
 4007              	.LBB933:
  57:lcd.c         ****    queue[w++]=dat;                        //...If/when not then store data...
 4008              		.loc 1 57 17
 4009 09c0 93F5F50F 		andi	a1,a1,255
 4010              	.LBE933:
 4011              	.LBE937:
 4012              	.LBE942:
 4013              	.LBB943:
 4014              	.LBB925:
 4015              	.LBB921:
  58:lcd.c         ****    w%=256;                                //...and advance write index!
 4016              		.loc 1 58 14
 4017 09c4 1307300C 		li	a4,195
 4018 09c8 18C2     		sw	a4,0(a2)
  59:lcd.c         **** }
 4019              		.loc 1 59 4 is_stmt 1
  59:lcd.c         **** }
 4020              		.loc 1 59 5 is_stmt 0
 4021 09ca 14C0     		sw	a3,0(s0)
 4022              	.LVL186:
 4023              	.LBE921:
 4024              	.LBE925:
 4025              	.LBE943:
 255:lcd.c         **** 	LCD_WR_DATA8(0x6A);   
 4026              		.loc 1 255 2 is_stmt 1
  92:lcd.c         **** }
 4027              		.loc 1 92 5
 4028              	.LBB944:
 4029              	.LBB938:
 4030              	.LBB934:
  57:lcd.c         ****    queue[w++]=dat;                        //...If/when not then store data...
 4031              		.loc 1 57 4
  57:lcd.c         ****    queue[w++]=dat;                        //...If/when not then store data...
 4032              		.loc 1 57 17 is_stmt 0
 4033 09cc 898D     		sub	a1,a1,a0
  57:lcd.c         ****    queue[w++]=dat;                        //...If/when not then store data...
 4034              		.loc 1 57 10
 4035 09ce 6395B702 		bne	a5,a1,.L164
 4036              	.L165:
  57:lcd.c         ****    queue[w++]=dat;                        //...If/when not then store data...
 4037              		.loc 1 57 27 is_stmt 1
 4038 09d2 97000000 		call	LCD_WR_Queue
 4038      E7800000 
 4039              	.LVL187:
  57:lcd.c         ****    queue[w++]=dat;                        //...If/when not then store data...
 4040              		.loc 1 57 14 is_stmt 0
 4041 09da 1440     		lw	a3,0(s0)
  57:lcd.c         ****    queue[w++]=dat;                        //...If/when not then store data...
 4042              		.loc 1 57 22
GAS LISTING /tmp/ccIfjRGV.s 			page 98


 4043 09dc 9C40     		lw	a5,0(s1)
  57:lcd.c         ****    queue[w++]=dat;                        //...If/when not then store data...
 4044              		.loc 1 57 14
 4045 09de 13871600 		addi	a4,a3,1
  57:lcd.c         ****    queue[w++]=dat;                        //...If/when not then store data...
 4046              		.loc 1 57 17
 4047 09e2 9355F741 		srai	a1,a4,31
 4048 09e6 13D68501 		srli	a2,a1,24
 4049 09ea B305C700 		add	a1,a4,a2
 4050 09ee 93F5F50F 		andi	a1,a1,255
 4051 09f2 918D     		sub	a1,a1,a2
  57:lcd.c         ****    queue[w++]=dat;                        //...If/when not then store data...
 4052              		.loc 1 57 10
 4053 09f4 E38FF5FC 		beq	a1,a5,.L165
 4054              	.L164:
  58:lcd.c         ****    w%=256;                                //...and advance write index!
 4055              		.loc 1 58 4 is_stmt 1
 4056              	.LBE934:
 4057              	.LBE938:
 4058              	.LBE944:
 4059              	.LBB945:
 4060              	.LBB946:
 4061              	.LBB947:
  57:lcd.c         ****    queue[w++]=dat;                        //...If/when not then store data...
 4062              		.loc 1 57 14 is_stmt 0
 4063 09f8 13871500 		addi	a4,a1,1
  57:lcd.c         ****    queue[w++]=dat;                        //...If/when not then store data...
 4064              		.loc 1 57 17
 4065 09fc 1356F741 		srai	a2,a4,31
 4066 0a00 13558601 		srli	a0,a2,24
 4067 0a04 3306A700 		add	a2,a4,a0
 4068              	.LBE947:
 4069              	.LBE946:
 4070              	.LBE945:
 4071              	.LBB956:
 4072              	.LBB939:
 4073              	.LBB935:
  58:lcd.c         ****    w%=256;                                //...and advance write index!
 4074              		.loc 1 58 14
 4075 0a08 8A06     		slli	a3,a3,2
 4076 0a0a CA96     		add	a3,s2,a3
 4077              	.LBE935:
 4078              	.LBE939:
 4079              	.LBE956:
 4080              	.LBB957:
 4081              	.LBB952:
 4082              	.LBB948:
  57:lcd.c         ****    queue[w++]=dat;                        //...If/when not then store data...
 4083              		.loc 1 57 17
 4084 0a0c 1376F60F 		andi	a2,a2,255
 4085              	.LBE948:
 4086              	.LBE952:
 4087              	.LBE957:
 4088              	.LBB958:
 4089              	.LBB940:
 4090              	.LBB936:
  58:lcd.c         ****    w%=256;                                //...and advance write index!
GAS LISTING /tmp/ccIfjRGV.s 			page 99


 4091              		.loc 1 58 14
 4092 0a10 1307D018 		li	a4,397
 4093 0a14 98C2     		sw	a4,0(a3)
  59:lcd.c         **** }
 4094              		.loc 1 59 4 is_stmt 1
  59:lcd.c         **** }
 4095              		.loc 1 59 5 is_stmt 0
 4096 0a16 0CC0     		sw	a1,0(s0)
 4097              	.LVL188:
 4098              	.LBE936:
 4099              	.LBE940:
 4100              	.LBE958:
 256:lcd.c         **** 
 4101              		.loc 1 256 2 is_stmt 1
  92:lcd.c         **** }
 4102              		.loc 1 92 5
 4103              	.LBB959:
 4104              	.LBB953:
 4105              	.LBB949:
  57:lcd.c         ****    queue[w++]=dat;                        //...If/when not then store data...
 4106              		.loc 1 57 4
  57:lcd.c         ****    queue[w++]=dat;                        //...If/when not then store data...
 4107              		.loc 1 57 17 is_stmt 0
 4108 0a18 098E     		sub	a2,a2,a0
  57:lcd.c         ****    queue[w++]=dat;                        //...If/when not then store data...
 4109              		.loc 1 57 10
 4110 0a1a 6315F602 		bne	a2,a5,.L166
 4111              	.L167:
  57:lcd.c         ****    queue[w++]=dat;                        //...If/when not then store data...
 4112              		.loc 1 57 27 is_stmt 1
 4113 0a1e 97000000 		call	LCD_WR_Queue
 4113      E7800000 
 4114              	.LVL189:
  57:lcd.c         ****    queue[w++]=dat;                        //...If/when not then store data...
 4115              		.loc 1 57 14 is_stmt 0
 4116 0a26 0C40     		lw	a1,0(s0)
  57:lcd.c         ****    queue[w++]=dat;                        //...If/when not then store data...
 4117              		.loc 1 57 22
 4118 0a28 9C40     		lw	a5,0(s1)
  57:lcd.c         ****    queue[w++]=dat;                        //...If/when not then store data...
 4119              		.loc 1 57 14
 4120 0a2a 13871500 		addi	a4,a1,1
  57:lcd.c         ****    queue[w++]=dat;                        //...If/when not then store data...
 4121              		.loc 1 57 17
 4122 0a2e 1356F741 		srai	a2,a4,31
 4123 0a32 93568601 		srli	a3,a2,24
 4124 0a36 3306D700 		add	a2,a4,a3
 4125 0a3a 1376F60F 		andi	a2,a2,255
 4126 0a3e 158E     		sub	a2,a2,a3
  57:lcd.c         ****    queue[w++]=dat;                        //...If/when not then store data...
 4127              		.loc 1 57 10
 4128 0a40 E30FF6FC 		beq	a2,a5,.L167
 4129              	.L166:
  58:lcd.c         ****    w%=256;                                //...and advance write index!
 4130              		.loc 1 58 4 is_stmt 1
 4131              	.LBE949:
 4132              	.LBE953:
GAS LISTING /tmp/ccIfjRGV.s 			page 100


 4133              	.LBE959:
 4134              	.LBB960:
 4135              	.LBB961:
 4136              	.LBB962:
  57:lcd.c         ****    queue[w++]=dat;                        //...If/when not then store data...
 4137              		.loc 1 57 14 is_stmt 0
 4138 0a44 13071600 		addi	a4,a2,1
  57:lcd.c         ****    queue[w++]=dat;                        //...If/when not then store data...
 4139              		.loc 1 57 17
 4140 0a48 9356F741 		srai	a3,a4,31
 4141 0a4c 13D58601 		srli	a0,a3,24
 4142 0a50 B306A700 		add	a3,a4,a0
 4143              	.LBE962:
 4144              	.LBE961:
 4145              	.LBE960:
 4146              	.LBB971:
 4147              	.LBB954:
 4148              	.LBB950:
  58:lcd.c         ****    w%=256;                                //...and advance write index!
 4149              		.loc 1 58 14
 4150 0a54 8A05     		slli	a1,a1,2
 4151 0a56 CA95     		add	a1,s2,a1
 4152              	.LBE950:
 4153              	.LBE954:
 4154              	.LBE971:
 4155              	.LBB972:
 4156              	.LBB967:
 4157              	.LBB963:
  57:lcd.c         ****    queue[w++]=dat;                        //...If/when not then store data...
 4158              		.loc 1 57 17
 4159 0a58 93F6F60F 		andi	a3,a3,255
 4160              	.LBE963:
 4161              	.LBE967:
 4162              	.LBE972:
 4163              	.LBB973:
 4164              	.LBB955:
 4165              	.LBB951:
  58:lcd.c         ****    w%=256;                                //...and advance write index!
 4166              		.loc 1 58 14
 4167 0a5c 1307A016 		li	a4,362
 4168 0a60 98C1     		sw	a4,0(a1)
  59:lcd.c         **** }
 4169              		.loc 1 59 4 is_stmt 1
  59:lcd.c         **** }
 4170              		.loc 1 59 5 is_stmt 0
 4171 0a62 10C0     		sw	a2,0(s0)
 4172              	.LVL190:
 4173              	.LBE951:
 4174              	.LBE955:
 4175              	.LBE973:
 258:lcd.c         **** 	LCD_WR_DATA8(0x8D); 
 4176              		.loc 1 258 2 is_stmt 1
 120:lcd.c         **** }
 4177              		.loc 1 120 5
 4178              	.LBB974:
 4179              	.LBB968:
 4180              	.LBB964:
GAS LISTING /tmp/ccIfjRGV.s 			page 101


  57:lcd.c         ****    queue[w++]=dat;                        //...If/when not then store data...
 4181              		.loc 1 57 4
  57:lcd.c         ****    queue[w++]=dat;                        //...If/when not then store data...
 4182              		.loc 1 57 17 is_stmt 0
 4183 0a64 898E     		sub	a3,a3,a0
  57:lcd.c         ****    queue[w++]=dat;                        //...If/when not then store data...
 4184              		.loc 1 57 10
 4185 0a66 6395D702 		bne	a5,a3,.L168
 4186              	.L169:
  57:lcd.c         ****    queue[w++]=dat;                        //...If/when not then store data...
 4187              		.loc 1 57 27 is_stmt 1
 4188 0a6a 97000000 		call	LCD_WR_Queue
 4188      E7800000 
 4189              	.LVL191:
  57:lcd.c         ****    queue[w++]=dat;                        //...If/when not then store data...
 4190              		.loc 1 57 14 is_stmt 0
 4191 0a72 1040     		lw	a2,0(s0)
  57:lcd.c         ****    queue[w++]=dat;                        //...If/when not then store data...
 4192              		.loc 1 57 22
 4193 0a74 9C40     		lw	a5,0(s1)
  57:lcd.c         ****    queue[w++]=dat;                        //...If/when not then store data...
 4194              		.loc 1 57 14
 4195 0a76 13071600 		addi	a4,a2,1
  57:lcd.c         ****    queue[w++]=dat;                        //...If/when not then store data...
 4196              		.loc 1 57 17
 4197 0a7a 9356F741 		srai	a3,a4,31
 4198 0a7e 93D58601 		srli	a1,a3,24
 4199 0a82 B306B700 		add	a3,a4,a1
 4200 0a86 93F6F60F 		andi	a3,a3,255
 4201 0a8a 8D8E     		sub	a3,a3,a1
  57:lcd.c         ****    queue[w++]=dat;                        //...If/when not then store data...
 4202              		.loc 1 57 10
 4203 0a8c E38FF6FC 		beq	a3,a5,.L169
 4204              	.L168:
  58:lcd.c         ****    w%=256;                                //...and advance write index!
 4205              		.loc 1 58 4 is_stmt 1
 4206              	.LBE964:
 4207              	.LBE968:
 4208              	.LBE974:
 4209              	.LBB975:
 4210              	.LBB976:
 4211              	.LBB977:
  57:lcd.c         ****    queue[w++]=dat;                        //...If/when not then store data...
 4212              		.loc 1 57 14 is_stmt 0
 4213 0a90 13871600 		addi	a4,a3,1
  57:lcd.c         ****    queue[w++]=dat;                        //...If/when not then store data...
 4214              		.loc 1 57 17
 4215 0a94 9355F741 		srai	a1,a4,31
 4216 0a98 13D58501 		srli	a0,a1,24
 4217 0a9c B305A700 		add	a1,a4,a0
 4218              	.LBE977:
 4219              	.LBE976:
 4220              	.LBE975:
 4221              	.LBB986:
 4222              	.LBB969:
 4223              	.LBB965:
  58:lcd.c         ****    w%=256;                                //...and advance write index!
GAS LISTING /tmp/ccIfjRGV.s 			page 102


 4224              		.loc 1 58 14
 4225 0aa0 0A06     		slli	a2,a2,2
 4226 0aa2 4A96     		add	a2,s2,a2
 4227              	.LBE965:
 4228              	.LBE969:
 4229              	.LBE986:
 4230              	.LBB987:
 4231              	.LBB982:
 4232              	.LBB978:
  57:lcd.c         ****    queue[w++]=dat;                        //...If/when not then store data...
 4233              		.loc 1 57 17
 4234 0aa4 93F5F50F 		andi	a1,a1,255
 4235              	.LBE978:
 4236              	.LBE982:
 4237              	.LBE987:
 4238              	.LBB988:
 4239              	.LBB970:
 4240              	.LBB966:
  58:lcd.c         ****    w%=256;                                //...and advance write index!
 4241              		.loc 1 58 14
 4242 0aa8 1307400C 		li	a4,196
 4243 0aac 18C2     		sw	a4,0(a2)
  59:lcd.c         **** }
 4244              		.loc 1 59 4 is_stmt 1
  59:lcd.c         **** }
 4245              		.loc 1 59 5 is_stmt 0
 4246 0aae 14C0     		sw	a3,0(s0)
 4247              	.LVL192:
 4248              	.LBE966:
 4249              	.LBE970:
 4250              	.LBE988:
 259:lcd.c         **** 	LCD_WR_DATA8(0xEE); 
 4251              		.loc 1 259 2 is_stmt 1
  92:lcd.c         **** }
 4252              		.loc 1 92 5
 4253              	.LBB989:
 4254              	.LBB983:
 4255              	.LBB979:
  57:lcd.c         ****    queue[w++]=dat;                        //...If/when not then store data...
 4256              		.loc 1 57 4
  57:lcd.c         ****    queue[w++]=dat;                        //...If/when not then store data...
 4257              		.loc 1 57 17 is_stmt 0
 4258 0ab0 898D     		sub	a1,a1,a0
  57:lcd.c         ****    queue[w++]=dat;                        //...If/when not then store data...
 4259              		.loc 1 57 10
 4260 0ab2 6395F502 		bne	a1,a5,.L170
 4261              	.L171:
  57:lcd.c         ****    queue[w++]=dat;                        //...If/when not then store data...
 4262              		.loc 1 57 27 is_stmt 1
 4263 0ab6 97000000 		call	LCD_WR_Queue
 4263      E7800000 
 4264              	.LVL193:
  57:lcd.c         ****    queue[w++]=dat;                        //...If/when not then store data...
 4265              		.loc 1 57 14 is_stmt 0
 4266 0abe 1440     		lw	a3,0(s0)
  57:lcd.c         ****    queue[w++]=dat;                        //...If/when not then store data...
 4267              		.loc 1 57 22
GAS LISTING /tmp/ccIfjRGV.s 			page 103


 4268 0ac0 9C40     		lw	a5,0(s1)
  57:lcd.c         ****    queue[w++]=dat;                        //...If/when not then store data...
 4269              		.loc 1 57 14
 4270 0ac2 13871600 		addi	a4,a3,1
  57:lcd.c         ****    queue[w++]=dat;                        //...If/when not then store data...
 4271              		.loc 1 57 17
 4272 0ac6 9355F741 		srai	a1,a4,31
 4273 0aca 13D68501 		srli	a2,a1,24
 4274 0ace B305C700 		add	a1,a4,a2
 4275 0ad2 93F5F50F 		andi	a1,a1,255
 4276 0ad6 918D     		sub	a1,a1,a2
  57:lcd.c         ****    queue[w++]=dat;                        //...If/when not then store data...
 4277              		.loc 1 57 10
 4278 0ad8 E38FF5FC 		beq	a1,a5,.L171
 4279              	.L170:
  58:lcd.c         ****    w%=256;                                //...and advance write index!
 4280              		.loc 1 58 4 is_stmt 1
 4281              	.LBE979:
 4282              	.LBE983:
 4283              	.LBE989:
 4284              	.LBB990:
 4285              	.LBB991:
 4286              	.LBB992:
  57:lcd.c         ****    queue[w++]=dat;                        //...If/when not then store data...
 4287              		.loc 1 57 14 is_stmt 0
 4288 0adc 13871500 		addi	a4,a1,1
  57:lcd.c         ****    queue[w++]=dat;                        //...If/when not then store data...
 4289              		.loc 1 57 17
 4290 0ae0 1356F741 		srai	a2,a4,31
 4291 0ae4 13558601 		srli	a0,a2,24
 4292 0ae8 3306A700 		add	a2,a4,a0
 4293              	.LBE992:
 4294              	.LBE991:
 4295              	.LBE990:
 4296              	.LBB1001:
 4297              	.LBB984:
 4298              	.LBB980:
  58:lcd.c         ****    w%=256;                                //...and advance write index!
 4299              		.loc 1 58 14
 4300 0aec 8A06     		slli	a3,a3,2
 4301 0aee CA96     		add	a3,s2,a3
 4302              	.LBE980:
 4303              	.LBE984:
 4304              	.LBE1001:
 4305              	.LBB1002:
 4306              	.LBB997:
 4307              	.LBB993:
  57:lcd.c         ****    queue[w++]=dat;                        //...If/when not then store data...
 4308              		.loc 1 57 17
 4309 0af0 1376F60F 		andi	a2,a2,255
 4310              	.LBE993:
 4311              	.LBE997:
 4312              	.LBE1002:
 4313              	.LBB1003:
 4314              	.LBB985:
 4315              	.LBB981:
  58:lcd.c         ****    w%=256;                                //...and advance write index!
GAS LISTING /tmp/ccIfjRGV.s 			page 104


 4316              		.loc 1 58 14
 4317 0af4 1307D018 		li	a4,397
 4318 0af8 98C2     		sw	a4,0(a3)
  59:lcd.c         **** }
 4319              		.loc 1 59 4 is_stmt 1
  59:lcd.c         **** }
 4320              		.loc 1 59 5 is_stmt 0
 4321 0afa 0CC0     		sw	a1,0(s0)
 4322              	.LVL194:
 4323              	.LBE981:
 4324              	.LBE985:
 4325              	.LBE1003:
 260:lcd.c         **** 
 4326              		.loc 1 260 2 is_stmt 1
  92:lcd.c         **** }
 4327              		.loc 1 92 5
 4328              	.LBB1004:
 4329              	.LBB998:
 4330              	.LBB994:
  57:lcd.c         ****    queue[w++]=dat;                        //...If/when not then store data...
 4331              		.loc 1 57 4
  57:lcd.c         ****    queue[w++]=dat;                        //...If/when not then store data...
 4332              		.loc 1 57 17 is_stmt 0
 4333 0afc 098E     		sub	a2,a2,a0
  57:lcd.c         ****    queue[w++]=dat;                        //...If/when not then store data...
 4334              		.loc 1 57 10
 4335 0afe 6395C702 		bne	a5,a2,.L172
 4336              	.L173:
  57:lcd.c         ****    queue[w++]=dat;                        //...If/when not then store data...
 4337              		.loc 1 57 27 is_stmt 1
 4338 0b02 97000000 		call	LCD_WR_Queue
 4338      E7800000 
 4339              	.LVL195:
  57:lcd.c         ****    queue[w++]=dat;                        //...If/when not then store data...
 4340              		.loc 1 57 14 is_stmt 0
 4341 0b0a 0C40     		lw	a1,0(s0)
  57:lcd.c         ****    queue[w++]=dat;                        //...If/when not then store data...
 4342              		.loc 1 57 22
 4343 0b0c 9C40     		lw	a5,0(s1)
  57:lcd.c         ****    queue[w++]=dat;                        //...If/when not then store data...
 4344              		.loc 1 57 14
 4345 0b0e 13871500 		addi	a4,a1,1
  57:lcd.c         ****    queue[w++]=dat;                        //...If/when not then store data...
 4346              		.loc 1 57 17
 4347 0b12 1356F741 		srai	a2,a4,31
 4348 0b16 93568601 		srli	a3,a2,24
 4349 0b1a 3306D700 		add	a2,a4,a3
 4350 0b1e 1376F60F 		andi	a2,a2,255
 4351 0b22 158E     		sub	a2,a2,a3
  57:lcd.c         ****    queue[w++]=dat;                        //...If/when not then store data...
 4352              		.loc 1 57 10
 4353 0b24 E30FF6FC 		beq	a2,a5,.L173
 4354              	.L172:
  58:lcd.c         ****    w%=256;                                //...and advance write index!
 4355              		.loc 1 58 4 is_stmt 1
 4356              	.LBE994:
 4357              	.LBE998:
GAS LISTING /tmp/ccIfjRGV.s 			page 105


 4358              	.LBE1004:
 4359              	.LBB1005:
 4360              	.LBB1006:
 4361              	.LBB1007:
  57:lcd.c         ****    queue[w++]=dat;                        //...If/when not then store data...
 4362              		.loc 1 57 14 is_stmt 0
 4363 0b28 13071600 		addi	a4,a2,1
  57:lcd.c         ****    queue[w++]=dat;                        //...If/when not then store data...
 4364              		.loc 1 57 17
 4365 0b2c 9356F741 		srai	a3,a4,31
 4366 0b30 13D58601 		srli	a0,a3,24
 4367 0b34 B306A700 		add	a3,a4,a0
 4368              	.LBE1007:
 4369              	.LBE1006:
 4370              	.LBE1005:
 4371              	.LBB1016:
 4372              	.LBB999:
 4373              	.LBB995:
  58:lcd.c         ****    w%=256;                                //...and advance write index!
 4374              		.loc 1 58 14
 4375 0b38 8A05     		slli	a1,a1,2
 4376 0b3a CA95     		add	a1,s2,a1
 4377              	.LBE995:
 4378              	.LBE999:
 4379              	.LBE1016:
 4380              	.LBB1017:
 4381              	.LBB1012:
 4382              	.LBB1008:
  57:lcd.c         ****    queue[w++]=dat;                        //...If/when not then store data...
 4383              		.loc 1 57 17
 4384 0b3c 93F6F60F 		andi	a3,a3,255
 4385              	.LBE1008:
 4386              	.LBE1012:
 4387              	.LBE1017:
 4388              	.LBB1018:
 4389              	.LBB1000:
 4390              	.LBB996:
  58:lcd.c         ****    w%=256;                                //...and advance write index!
 4391              		.loc 1 58 14
 4392 0b40 1307E01E 		li	a4,494
 4393 0b44 98C1     		sw	a4,0(a1)
  59:lcd.c         **** }
 4394              		.loc 1 59 4 is_stmt 1
  59:lcd.c         **** }
 4395              		.loc 1 59 5 is_stmt 0
 4396 0b46 10C0     		sw	a2,0(s0)
 4397              	.LVL196:
 4398              	.LBE996:
 4399              	.LBE1000:
 4400              	.LBE1018:
 262:lcd.c         **** 	LCD_WR_DATA8(0x0E);    
 4401              		.loc 1 262 2 is_stmt 1
 120:lcd.c         **** }
 4402              		.loc 1 120 5
 4403              	.LBB1019:
 4404              	.LBB1013:
 4405              	.LBB1009:
GAS LISTING /tmp/ccIfjRGV.s 			page 106


  57:lcd.c         ****    queue[w++]=dat;                        //...If/when not then store data...
 4406              		.loc 1 57 4
  57:lcd.c         ****    queue[w++]=dat;                        //...If/when not then store data...
 4407              		.loc 1 57 17 is_stmt 0
 4408 0b48 898E     		sub	a3,a3,a0
  57:lcd.c         ****    queue[w++]=dat;                        //...If/when not then store data...
 4409              		.loc 1 57 10
 4410 0b4a 6395F602 		bne	a3,a5,.L174
 4411              	.L175:
  57:lcd.c         ****    queue[w++]=dat;                        //...If/when not then store data...
 4412              		.loc 1 57 27 is_stmt 1
 4413 0b4e 97000000 		call	LCD_WR_Queue
 4413      E7800000 
 4414              	.LVL197:
  57:lcd.c         ****    queue[w++]=dat;                        //...If/when not then store data...
 4415              		.loc 1 57 14 is_stmt 0
 4416 0b56 1040     		lw	a2,0(s0)
  57:lcd.c         ****    queue[w++]=dat;                        //...If/when not then store data...
 4417              		.loc 1 57 22
 4418 0b58 9C40     		lw	a5,0(s1)
  57:lcd.c         ****    queue[w++]=dat;                        //...If/when not then store data...
 4419              		.loc 1 57 14
 4420 0b5a 13071600 		addi	a4,a2,1
  57:lcd.c         ****    queue[w++]=dat;                        //...If/when not then store data...
 4421              		.loc 1 57 17
 4422 0b5e 9356F741 		srai	a3,a4,31
 4423 0b62 93D58601 		srli	a1,a3,24
 4424 0b66 B306B700 		add	a3,a4,a1
 4425 0b6a 93F6F60F 		andi	a3,a3,255
 4426 0b6e 8D8E     		sub	a3,a3,a1
  57:lcd.c         ****    queue[w++]=dat;                        //...If/when not then store data...
 4427              		.loc 1 57 10
 4428 0b70 E38FF6FC 		beq	a3,a5,.L175
 4429              	.L174:
  58:lcd.c         ****    w%=256;                                //...and advance write index!
 4430              		.loc 1 58 4 is_stmt 1
 4431              	.LBE1009:
 4432              	.LBE1013:
 4433              	.LBE1019:
 4434              	.LBB1020:
 4435              	.LBB1021:
 4436              	.LBB1022:
  57:lcd.c         ****    queue[w++]=dat;                        //...If/when not then store data...
 4437              		.loc 1 57 14 is_stmt 0
 4438 0b74 13871600 		addi	a4,a3,1
  57:lcd.c         ****    queue[w++]=dat;                        //...If/when not then store data...
 4439              		.loc 1 57 17
 4440 0b78 9355F741 		srai	a1,a4,31
 4441 0b7c 13D58501 		srli	a0,a1,24
 4442 0b80 B305A700 		add	a1,a4,a0
 4443              	.LBE1022:
 4444              	.LBE1021:
 4445              	.LBE1020:
 4446              	.LBB1031:
 4447              	.LBB1014:
 4448              	.LBB1010:
  58:lcd.c         ****    w%=256;                                //...and advance write index!
GAS LISTING /tmp/ccIfjRGV.s 			page 107


 4449              		.loc 1 58 14
 4450 0b84 0A06     		slli	a2,a2,2
 4451 0b86 4A96     		add	a2,s2,a2
 4452              	.LBE1010:
 4453              	.LBE1014:
 4454              	.LBE1031:
 4455              	.LBB1032:
 4456              	.LBB1027:
 4457              	.LBB1023:
  57:lcd.c         ****    queue[w++]=dat;                        //...If/when not then store data...
 4458              		.loc 1 57 17
 4459 0b88 93F5F50F 		andi	a1,a1,255
 4460              	.LBE1023:
 4461              	.LBE1027:
 4462              	.LBE1032:
 4463              	.LBB1033:
 4464              	.LBB1015:
 4465              	.LBB1011:
  58:lcd.c         ****    w%=256;                                //...and advance write index!
 4466              		.loc 1 58 14
 4467 0b8c 1307500C 		li	a4,197
 4468 0b90 18C2     		sw	a4,0(a2)
  59:lcd.c         **** }
 4469              		.loc 1 59 4 is_stmt 1
  59:lcd.c         **** }
 4470              		.loc 1 59 5 is_stmt 0
 4471 0b92 14C0     		sw	a3,0(s0)
 4472              	.LVL198:
 4473              	.LBE1011:
 4474              	.LBE1015:
 4475              	.LBE1033:
 263:lcd.c         **** 
 4476              		.loc 1 263 2 is_stmt 1
  92:lcd.c         **** }
 4477              		.loc 1 92 5
 4478              	.LBB1034:
 4479              	.LBB1028:
 4480              	.LBB1024:
  57:lcd.c         ****    queue[w++]=dat;                        //...If/when not then store data...
 4481              		.loc 1 57 4
  57:lcd.c         ****    queue[w++]=dat;                        //...If/when not then store data...
 4482              		.loc 1 57 17 is_stmt 0
 4483 0b94 898D     		sub	a1,a1,a0
  57:lcd.c         ****    queue[w++]=dat;                        //...If/when not then store data...
 4484              		.loc 1 57 10
 4485 0b96 6395B702 		bne	a5,a1,.L176
 4486              	.L177:
  57:lcd.c         ****    queue[w++]=dat;                        //...If/when not then store data...
 4487              		.loc 1 57 27 is_stmt 1
 4488 0b9a 97000000 		call	LCD_WR_Queue
 4488      E7800000 
 4489              	.LVL199:
  57:lcd.c         ****    queue[w++]=dat;                        //...If/when not then store data...
 4490              		.loc 1 57 14 is_stmt 0
 4491 0ba2 1440     		lw	a3,0(s0)
  57:lcd.c         ****    queue[w++]=dat;                        //...If/when not then store data...
 4492              		.loc 1 57 22
GAS LISTING /tmp/ccIfjRGV.s 			page 108


 4493 0ba4 9C40     		lw	a5,0(s1)
  57:lcd.c         ****    queue[w++]=dat;                        //...If/when not then store data...
 4494              		.loc 1 57 14
 4495 0ba6 13871600 		addi	a4,a3,1
  57:lcd.c         ****    queue[w++]=dat;                        //...If/when not then store data...
 4496              		.loc 1 57 17
 4497 0baa 9355F741 		srai	a1,a4,31
 4498 0bae 13D68501 		srli	a2,a1,24
 4499 0bb2 B305C700 		add	a1,a4,a2
 4500 0bb6 93F5F50F 		andi	a1,a1,255
 4501 0bba 918D     		sub	a1,a1,a2
  57:lcd.c         ****    queue[w++]=dat;                        //...If/when not then store data...
 4502              		.loc 1 57 10
 4503 0bbc E38FF5FC 		beq	a1,a5,.L177
 4504              	.L176:
  58:lcd.c         ****    w%=256;                                //...and advance write index!
 4505              		.loc 1 58 4 is_stmt 1
 4506              	.LBE1024:
 4507              	.LBE1028:
 4508              	.LBE1034:
 4509              	.LBB1035:
 4510              	.LBB1036:
 4511              	.LBB1037:
  57:lcd.c         ****    queue[w++]=dat;                        //...If/when not then store data...
 4512              		.loc 1 57 14 is_stmt 0
 4513 0bc0 13871500 		addi	a4,a1,1
  57:lcd.c         ****    queue[w++]=dat;                        //...If/when not then store data...
 4514              		.loc 1 57 17
 4515 0bc4 1356F741 		srai	a2,a4,31
 4516 0bc8 13558601 		srli	a0,a2,24
 4517 0bcc 3306A700 		add	a2,a4,a0
 4518              	.LBE1037:
 4519              	.LBE1036:
 4520              	.LBE1035:
 4521              	.LBB1046:
 4522              	.LBB1029:
 4523              	.LBB1025:
  58:lcd.c         ****    w%=256;                                //...and advance write index!
 4524              		.loc 1 58 14
 4525 0bd0 8A06     		slli	a3,a3,2
 4526 0bd2 CA96     		add	a3,s2,a3
 4527              	.LBE1025:
 4528              	.LBE1029:
 4529              	.LBE1046:
 4530              	.LBB1047:
 4531              	.LBB1042:
 4532              	.LBB1038:
  57:lcd.c         ****    queue[w++]=dat;                        //...If/when not then store data...
 4533              		.loc 1 57 17
 4534 0bd4 1376F60F 		andi	a2,a2,255
 4535              	.LBE1038:
 4536              	.LBE1042:
 4537              	.LBE1047:
 4538              	.LBB1048:
 4539              	.LBB1030:
 4540              	.LBB1026:
  58:lcd.c         ****    w%=256;                                //...and advance write index!
GAS LISTING /tmp/ccIfjRGV.s 			page 109


 4541              		.loc 1 58 14
 4542 0bd8 1307E010 		li	a4,270
 4543 0bdc 98C2     		sw	a4,0(a3)
  59:lcd.c         **** }
 4544              		.loc 1 59 4 is_stmt 1
  59:lcd.c         **** }
 4545              		.loc 1 59 5 is_stmt 0
 4546 0bde 0CC0     		sw	a1,0(s0)
 4547              	.LVL200:
 4548              	.LBE1026:
 4549              	.LBE1030:
 4550              	.LBE1048:
 265:lcd.c         **** 	LCD_WR_DATA8(0x10);
 4551              		.loc 1 265 2 is_stmt 1
 120:lcd.c         **** }
 4552              		.loc 1 120 5
 4553              	.LBB1049:
 4554              	.LBB1043:
 4555              	.LBB1039:
  57:lcd.c         ****    queue[w++]=dat;                        //...If/when not then store data...
 4556              		.loc 1 57 4
  57:lcd.c         ****    queue[w++]=dat;                        //...If/when not then store data...
 4557              		.loc 1 57 17 is_stmt 0
 4558 0be0 098E     		sub	a2,a2,a0
  57:lcd.c         ****    queue[w++]=dat;                        //...If/when not then store data...
 4559              		.loc 1 57 10
 4560 0be2 6315F602 		bne	a2,a5,.L178
 4561              	.L179:
  57:lcd.c         ****    queue[w++]=dat;                        //...If/when not then store data...
 4562              		.loc 1 57 27 is_stmt 1
 4563 0be6 97000000 		call	LCD_WR_Queue
 4563      E7800000 
 4564              	.LVL201:
  57:lcd.c         ****    queue[w++]=dat;                        //...If/when not then store data...
 4565              		.loc 1 57 14 is_stmt 0
 4566 0bee 0C40     		lw	a1,0(s0)
  57:lcd.c         ****    queue[w++]=dat;                        //...If/when not then store data...
 4567              		.loc 1 57 22
 4568 0bf0 9C40     		lw	a5,0(s1)
  57:lcd.c         ****    queue[w++]=dat;                        //...If/when not then store data...
 4569              		.loc 1 57 14
 4570 0bf2 13871500 		addi	a4,a1,1
  57:lcd.c         ****    queue[w++]=dat;                        //...If/when not then store data...
 4571              		.loc 1 57 17
 4572 0bf6 1356F741 		srai	a2,a4,31
 4573 0bfa 93568601 		srli	a3,a2,24
 4574 0bfe 3306D700 		add	a2,a4,a3
 4575 0c02 1376F60F 		andi	a2,a2,255
 4576 0c06 158E     		sub	a2,a2,a3
  57:lcd.c         ****    queue[w++]=dat;                        //...If/when not then store data...
 4577              		.loc 1 57 10
 4578 0c08 E30FF6FC 		beq	a2,a5,.L179
 4579              	.L178:
  58:lcd.c         ****    w%=256;                                //...and advance write index!
 4580              		.loc 1 58 4 is_stmt 1
 4581              	.LBE1039:
 4582              	.LBE1043:
GAS LISTING /tmp/ccIfjRGV.s 			page 110


 4583              	.LBE1049:
 4584              	.LBB1050:
 4585              	.LBB1051:
 4586              	.LBB1052:
  57:lcd.c         ****    queue[w++]=dat;                        //...If/when not then store data...
 4587              		.loc 1 57 14 is_stmt 0
 4588 0c0c 13071600 		addi	a4,a2,1
  57:lcd.c         ****    queue[w++]=dat;                        //...If/when not then store data...
 4589              		.loc 1 57 17
 4590 0c10 9356F741 		srai	a3,a4,31
 4591 0c14 13D58601 		srli	a0,a3,24
 4592 0c18 B306A700 		add	a3,a4,a0
 4593              	.LBE1052:
 4594              	.LBE1051:
 4595              	.LBE1050:
 4596              	.LBB1061:
 4597              	.LBB1044:
 4598              	.LBB1040:
  58:lcd.c         ****    w%=256;                                //...and advance write index!
 4599              		.loc 1 58 14
 4600 0c1c 8A05     		slli	a1,a1,2
 4601 0c1e CA95     		add	a1,s2,a1
 4602              	.LBE1040:
 4603              	.LBE1044:
 4604              	.LBE1061:
 4605              	.LBB1062:
 4606              	.LBB1057:
 4607              	.LBB1053:
  57:lcd.c         ****    queue[w++]=dat;                        //...If/when not then store data...
 4608              		.loc 1 57 17
 4609 0c20 93F6F60F 		andi	a3,a3,255
 4610              	.LBE1053:
 4611              	.LBE1057:
 4612              	.LBE1062:
 4613              	.LBB1063:
 4614              	.LBB1045:
 4615              	.LBB1041:
  58:lcd.c         ****    w%=256;                                //...and advance write index!
 4616              		.loc 1 58 14
 4617 0c24 1307000E 		li	a4,224
 4618 0c28 98C1     		sw	a4,0(a1)
  59:lcd.c         **** }
 4619              		.loc 1 59 4 is_stmt 1
  59:lcd.c         **** }
 4620              		.loc 1 59 5 is_stmt 0
 4621 0c2a 10C0     		sw	a2,0(s0)
 4622              	.LVL202:
 4623              	.LBE1041:
 4624              	.LBE1045:
 4625              	.LBE1063:
 266:lcd.c         **** 	LCD_WR_DATA8(0x0E);
 4626              		.loc 1 266 2 is_stmt 1
  92:lcd.c         **** }
 4627              		.loc 1 92 5
 4628              	.LBB1064:
 4629              	.LBB1058:
 4630              	.LBB1054:
GAS LISTING /tmp/ccIfjRGV.s 			page 111


  57:lcd.c         ****    queue[w++]=dat;                        //...If/when not then store data...
 4631              		.loc 1 57 4
  57:lcd.c         ****    queue[w++]=dat;                        //...If/when not then store data...
 4632              		.loc 1 57 17 is_stmt 0
 4633 0c2c 898E     		sub	a3,a3,a0
  57:lcd.c         ****    queue[w++]=dat;                        //...If/when not then store data...
 4634              		.loc 1 57 10
 4635 0c2e 6395D702 		bne	a5,a3,.L180
 4636              	.L181:
  57:lcd.c         ****    queue[w++]=dat;                        //...If/when not then store data...
 4637              		.loc 1 57 27 is_stmt 1
 4638 0c32 97000000 		call	LCD_WR_Queue
 4638      E7800000 
 4639              	.LVL203:
  57:lcd.c         ****    queue[w++]=dat;                        //...If/when not then store data...
 4640              		.loc 1 57 14 is_stmt 0
 4641 0c3a 1040     		lw	a2,0(s0)
  57:lcd.c         ****    queue[w++]=dat;                        //...If/when not then store data...
 4642              		.loc 1 57 22
 4643 0c3c 9C40     		lw	a5,0(s1)
  57:lcd.c         ****    queue[w++]=dat;                        //...If/when not then store data...
 4644              		.loc 1 57 14
 4645 0c3e 13071600 		addi	a4,a2,1
  57:lcd.c         ****    queue[w++]=dat;                        //...If/when not then store data...
 4646              		.loc 1 57 17
 4647 0c42 9356F741 		srai	a3,a4,31
 4648 0c46 93D58601 		srli	a1,a3,24
 4649 0c4a B306B700 		add	a3,a4,a1
 4650 0c4e 93F6F60F 		andi	a3,a3,255
 4651 0c52 8D8E     		sub	a3,a3,a1
  57:lcd.c         ****    queue[w++]=dat;                        //...If/when not then store data...
 4652              		.loc 1 57 10
 4653 0c54 E38FF6FC 		beq	a3,a5,.L181
 4654              	.L180:
  58:lcd.c         ****    w%=256;                                //...and advance write index!
 4655              		.loc 1 58 4 is_stmt 1
 4656              	.LBE1054:
 4657              	.LBE1058:
 4658              	.LBE1064:
 4659              	.LBB1065:
 4660              	.LBB1066:
 4661              	.LBB1067:
  57:lcd.c         ****    queue[w++]=dat;                        //...If/when not then store data...
 4662              		.loc 1 57 14 is_stmt 0
 4663 0c58 13871600 		addi	a4,a3,1
  57:lcd.c         ****    queue[w++]=dat;                        //...If/when not then store data...
 4664              		.loc 1 57 17
 4665 0c5c 9355F741 		srai	a1,a4,31
 4666 0c60 13D58501 		srli	a0,a1,24
 4667 0c64 B305A700 		add	a1,a4,a0
 4668              	.LBE1067:
 4669              	.LBE1066:
 4670              	.LBE1065:
 4671              	.LBB1076:
 4672              	.LBB1059:
 4673              	.LBB1055:
  58:lcd.c         ****    w%=256;                                //...and advance write index!
GAS LISTING /tmp/ccIfjRGV.s 			page 112


 4674              		.loc 1 58 14
 4675 0c68 0A06     		slli	a2,a2,2
 4676 0c6a 4A96     		add	a2,s2,a2
 4677              	.LBE1055:
 4678              	.LBE1059:
 4679              	.LBE1076:
 4680              	.LBB1077:
 4681              	.LBB1072:
 4682              	.LBB1068:
  57:lcd.c         ****    queue[w++]=dat;                        //...If/when not then store data...
 4683              		.loc 1 57 17
 4684 0c6c 93F5F50F 		andi	a1,a1,255
 4685              	.LBE1068:
 4686              	.LBE1072:
 4687              	.LBE1077:
 4688              	.LBB1078:
 4689              	.LBB1060:
 4690              	.LBB1056:
  58:lcd.c         ****    w%=256;                                //...and advance write index!
 4691              		.loc 1 58 14
 4692 0c70 13070011 		li	a4,272
 4693 0c74 18C2     		sw	a4,0(a2)
  59:lcd.c         **** }
 4694              		.loc 1 59 4 is_stmt 1
  59:lcd.c         **** }
 4695              		.loc 1 59 5 is_stmt 0
 4696 0c76 14C0     		sw	a3,0(s0)
 4697              	.LVL204:
 4698              	.LBE1056:
 4699              	.LBE1060:
 4700              	.LBE1078:
 267:lcd.c         **** 	LCD_WR_DATA8(0x02);
 4701              		.loc 1 267 2 is_stmt 1
  92:lcd.c         **** }
 4702              		.loc 1 92 5
 4703              	.LBB1079:
 4704              	.LBB1073:
 4705              	.LBB1069:
  57:lcd.c         ****    queue[w++]=dat;                        //...If/when not then store data...
 4706              		.loc 1 57 4
  57:lcd.c         ****    queue[w++]=dat;                        //...If/when not then store data...
 4707              		.loc 1 57 17 is_stmt 0
 4708 0c78 898D     		sub	a1,a1,a0
  57:lcd.c         ****    queue[w++]=dat;                        //...If/when not then store data...
 4709              		.loc 1 57 10
 4710 0c7a 6395F502 		bne	a1,a5,.L182
 4711              	.L183:
  57:lcd.c         ****    queue[w++]=dat;                        //...If/when not then store data...
 4712              		.loc 1 57 27 is_stmt 1
 4713 0c7e 97000000 		call	LCD_WR_Queue
 4713      E7800000 
 4714              	.LVL205:
  57:lcd.c         ****    queue[w++]=dat;                        //...If/when not then store data...
 4715              		.loc 1 57 14 is_stmt 0
 4716 0c86 1440     		lw	a3,0(s0)
  57:lcd.c         ****    queue[w++]=dat;                        //...If/when not then store data...
 4717              		.loc 1 57 22
GAS LISTING /tmp/ccIfjRGV.s 			page 113


 4718 0c88 9C40     		lw	a5,0(s1)
  57:lcd.c         ****    queue[w++]=dat;                        //...If/when not then store data...
 4719              		.loc 1 57 14
 4720 0c8a 13871600 		addi	a4,a3,1
  57:lcd.c         ****    queue[w++]=dat;                        //...If/when not then store data...
 4721              		.loc 1 57 17
 4722 0c8e 9355F741 		srai	a1,a4,31
 4723 0c92 13D68501 		srli	a2,a1,24
 4724 0c96 B305C700 		add	a1,a4,a2
 4725 0c9a 93F5F50F 		andi	a1,a1,255
 4726 0c9e 918D     		sub	a1,a1,a2
  57:lcd.c         ****    queue[w++]=dat;                        //...If/when not then store data...
 4727              		.loc 1 57 10
 4728 0ca0 E38FF5FC 		beq	a1,a5,.L183
 4729              	.L182:
  58:lcd.c         ****    w%=256;                                //...and advance write index!
 4730              		.loc 1 58 4 is_stmt 1
 4731              	.LBE1069:
 4732              	.LBE1073:
 4733              	.LBE1079:
 4734              	.LBB1080:
 4735              	.LBB1081:
 4736              	.LBB1082:
  57:lcd.c         ****    queue[w++]=dat;                        //...If/when not then store data...
 4737              		.loc 1 57 14 is_stmt 0
 4738 0ca4 13871500 		addi	a4,a1,1
  57:lcd.c         ****    queue[w++]=dat;                        //...If/when not then store data...
 4739              		.loc 1 57 17
 4740 0ca8 1356F741 		srai	a2,a4,31
 4741 0cac 13558601 		srli	a0,a2,24
 4742 0cb0 3306A700 		add	a2,a4,a0
 4743              	.LBE1082:
 4744              	.LBE1081:
 4745              	.LBE1080:
 4746              	.LBB1091:
 4747              	.LBB1074:
 4748              	.LBB1070:
  58:lcd.c         ****    w%=256;                                //...and advance write index!
 4749              		.loc 1 58 14
 4750 0cb4 8A06     		slli	a3,a3,2
 4751 0cb6 CA96     		add	a3,s2,a3
 4752              	.LBE1070:
 4753              	.LBE1074:
 4754              	.LBE1091:
 4755              	.LBB1092:
 4756              	.LBB1087:
 4757              	.LBB1083:
  57:lcd.c         ****    queue[w++]=dat;                        //...If/when not then store data...
 4758              		.loc 1 57 17
 4759 0cb8 1376F60F 		andi	a2,a2,255
 4760              	.LBE1083:
 4761              	.LBE1087:
 4762              	.LBE1092:
 4763              	.LBB1093:
 4764              	.LBB1075:
 4765              	.LBB1071:
  58:lcd.c         ****    w%=256;                                //...and advance write index!
GAS LISTING /tmp/ccIfjRGV.s 			page 114


 4766              		.loc 1 58 14
 4767 0cbc 1307E010 		li	a4,270
 4768 0cc0 98C2     		sw	a4,0(a3)
  59:lcd.c         **** }
 4769              		.loc 1 59 4 is_stmt 1
  59:lcd.c         **** }
 4770              		.loc 1 59 5 is_stmt 0
 4771 0cc2 0CC0     		sw	a1,0(s0)
 4772              	.LVL206:
 4773              	.LBE1071:
 4774              	.LBE1075:
 4775              	.LBE1093:
 268:lcd.c         **** 	LCD_WR_DATA8(0x03);
 4776              		.loc 1 268 2 is_stmt 1
  92:lcd.c         **** }
 4777              		.loc 1 92 5
 4778              	.LBB1094:
 4779              	.LBB1088:
 4780              	.LBB1084:
  57:lcd.c         ****    queue[w++]=dat;                        //...If/when not then store data...
 4781              		.loc 1 57 4
  57:lcd.c         ****    queue[w++]=dat;                        //...If/when not then store data...
 4782              		.loc 1 57 17 is_stmt 0
 4783 0cc4 098E     		sub	a2,a2,a0
  57:lcd.c         ****    queue[w++]=dat;                        //...If/when not then store data...
 4784              		.loc 1 57 10
 4785 0cc6 6395C702 		bne	a5,a2,.L184
 4786              	.L185:
  57:lcd.c         ****    queue[w++]=dat;                        //...If/when not then store data...
 4787              		.loc 1 57 27 is_stmt 1
 4788 0cca 97000000 		call	LCD_WR_Queue
 4788      E7800000 
 4789              	.LVL207:
  57:lcd.c         ****    queue[w++]=dat;                        //...If/when not then store data...
 4790              		.loc 1 57 14 is_stmt 0
 4791 0cd2 0C40     		lw	a1,0(s0)
  57:lcd.c         ****    queue[w++]=dat;                        //...If/when not then store data...
 4792              		.loc 1 57 22
 4793 0cd4 9C40     		lw	a5,0(s1)
  57:lcd.c         ****    queue[w++]=dat;                        //...If/when not then store data...
 4794              		.loc 1 57 14
 4795 0cd6 13871500 		addi	a4,a1,1
  57:lcd.c         ****    queue[w++]=dat;                        //...If/when not then store data...
 4796              		.loc 1 57 17
 4797 0cda 1356F741 		srai	a2,a4,31
 4798 0cde 93568601 		srli	a3,a2,24
 4799 0ce2 3306D700 		add	a2,a4,a3
 4800 0ce6 1376F60F 		andi	a2,a2,255
 4801 0cea 158E     		sub	a2,a2,a3
  57:lcd.c         ****    queue[w++]=dat;                        //...If/when not then store data...
 4802              		.loc 1 57 10
 4803 0cec E30FF6FC 		beq	a2,a5,.L185
 4804              	.L184:
  58:lcd.c         ****    w%=256;                                //...and advance write index!
 4805              		.loc 1 58 4 is_stmt 1
 4806              	.LBE1084:
 4807              	.LBE1088:
GAS LISTING /tmp/ccIfjRGV.s 			page 115


 4808              	.LBE1094:
 4809              	.LBB1095:
 4810              	.LBB1096:
 4811              	.LBB1097:
  57:lcd.c         ****    queue[w++]=dat;                        //...If/when not then store data...
 4812              		.loc 1 57 14 is_stmt 0
 4813 0cf0 13071600 		addi	a4,a2,1
  57:lcd.c         ****    queue[w++]=dat;                        //...If/when not then store data...
 4814              		.loc 1 57 17
 4815 0cf4 9356F741 		srai	a3,a4,31
 4816 0cf8 13D58601 		srli	a0,a3,24
 4817 0cfc B306A700 		add	a3,a4,a0
 4818              	.LBE1097:
 4819              	.LBE1096:
 4820              	.LBE1095:
 4821              	.LBB1106:
 4822              	.LBB1089:
 4823              	.LBB1085:
  58:lcd.c         ****    w%=256;                                //...and advance write index!
 4824              		.loc 1 58 14
 4825 0d00 8A05     		slli	a1,a1,2
 4826 0d02 CA95     		add	a1,s2,a1
 4827              	.LBE1085:
 4828              	.LBE1089:
 4829              	.LBE1106:
 4830              	.LBB1107:
 4831              	.LBB1102:
 4832              	.LBB1098:
  57:lcd.c         ****    queue[w++]=dat;                        //...If/when not then store data...
 4833              		.loc 1 57 17
 4834 0d04 93F6F60F 		andi	a3,a3,255
 4835              	.LBE1098:
 4836              	.LBE1102:
 4837              	.LBE1107:
 4838              	.LBB1108:
 4839              	.LBB1090:
 4840              	.LBB1086:
  58:lcd.c         ****    w%=256;                                //...and advance write index!
 4841              		.loc 1 58 14
 4842 0d08 13072010 		li	a4,258
 4843 0d0c 98C1     		sw	a4,0(a1)
  59:lcd.c         **** }
 4844              		.loc 1 59 4 is_stmt 1
  59:lcd.c         **** }
 4845              		.loc 1 59 5 is_stmt 0
 4846 0d0e 10C0     		sw	a2,0(s0)
 4847              	.LVL208:
 4848              	.LBE1086:
 4849              	.LBE1090:
 4850              	.LBE1108:
 269:lcd.c         **** 	LCD_WR_DATA8(0x0E);
 4851              		.loc 1 269 2 is_stmt 1
  92:lcd.c         **** }
 4852              		.loc 1 92 5
 4853              	.LBB1109:
 4854              	.LBB1103:
 4855              	.LBB1099:
GAS LISTING /tmp/ccIfjRGV.s 			page 116


  57:lcd.c         ****    queue[w++]=dat;                        //...If/when not then store data...
 4856              		.loc 1 57 4
  57:lcd.c         ****    queue[w++]=dat;                        //...If/when not then store data...
 4857              		.loc 1 57 17 is_stmt 0
 4858 0d10 898E     		sub	a3,a3,a0
  57:lcd.c         ****    queue[w++]=dat;                        //...If/when not then store data...
 4859              		.loc 1 57 10
 4860 0d12 6395F602 		bne	a3,a5,.L186
 4861              	.L187:
  57:lcd.c         ****    queue[w++]=dat;                        //...If/when not then store data...
 4862              		.loc 1 57 27 is_stmt 1
 4863 0d16 97000000 		call	LCD_WR_Queue
 4863      E7800000 
 4864              	.LVL209:
  57:lcd.c         ****    queue[w++]=dat;                        //...If/when not then store data...
 4865              		.loc 1 57 14 is_stmt 0
 4866 0d1e 1040     		lw	a2,0(s0)
  57:lcd.c         ****    queue[w++]=dat;                        //...If/when not then store data...
 4867              		.loc 1 57 22
 4868 0d20 9C40     		lw	a5,0(s1)
  57:lcd.c         ****    queue[w++]=dat;                        //...If/when not then store data...
 4869              		.loc 1 57 14
 4870 0d22 13071600 		addi	a4,a2,1
  57:lcd.c         ****    queue[w++]=dat;                        //...If/when not then store data...
 4871              		.loc 1 57 17
 4872 0d26 9356F741 		srai	a3,a4,31
 4873 0d2a 93D58601 		srli	a1,a3,24
 4874 0d2e B306B700 		add	a3,a4,a1
 4875 0d32 93F6F60F 		andi	a3,a3,255
 4876 0d36 8D8E     		sub	a3,a3,a1
  57:lcd.c         ****    queue[w++]=dat;                        //...If/when not then store data...
 4877              		.loc 1 57 10
 4878 0d38 E38FF6FC 		beq	a3,a5,.L187
 4879              	.L186:
  58:lcd.c         ****    w%=256;                                //...and advance write index!
 4880              		.loc 1 58 4 is_stmt 1
 4881              	.LBE1099:
 4882              	.LBE1103:
 4883              	.LBE1109:
 4884              	.LBB1110:
 4885              	.LBB1111:
 4886              	.LBB1112:
  57:lcd.c         ****    queue[w++]=dat;                        //...If/when not then store data...
 4887              		.loc 1 57 14 is_stmt 0
 4888 0d3c 13871600 		addi	a4,a3,1
  57:lcd.c         ****    queue[w++]=dat;                        //...If/when not then store data...
 4889              		.loc 1 57 17
 4890 0d40 9355F741 		srai	a1,a4,31
 4891 0d44 13D58501 		srli	a0,a1,24
 4892 0d48 B305A700 		add	a1,a4,a0
 4893              	.LBE1112:
 4894              	.LBE1111:
 4895              	.LBE1110:
 4896              	.LBB1121:
 4897              	.LBB1104:
 4898              	.LBB1100:
  58:lcd.c         ****    w%=256;                                //...and advance write index!
GAS LISTING /tmp/ccIfjRGV.s 			page 117


 4899              		.loc 1 58 14
 4900 0d4c 0A06     		slli	a2,a2,2
 4901 0d4e 4A96     		add	a2,s2,a2
 4902              	.LBE1100:
 4903              	.LBE1104:
 4904              	.LBE1121:
 4905              	.LBB1122:
 4906              	.LBB1117:
 4907              	.LBB1113:
  57:lcd.c         ****    queue[w++]=dat;                        //...If/when not then store data...
 4908              		.loc 1 57 17
 4909 0d50 93F5F50F 		andi	a1,a1,255
 4910              	.LBE1113:
 4911              	.LBE1117:
 4912              	.LBE1122:
 4913              	.LBB1123:
 4914              	.LBB1105:
 4915              	.LBB1101:
  58:lcd.c         ****    w%=256;                                //...and advance write index!
 4916              		.loc 1 58 14
 4917 0d54 13073010 		li	a4,259
 4918 0d58 18C2     		sw	a4,0(a2)
  59:lcd.c         **** }
 4919              		.loc 1 59 4 is_stmt 1
  59:lcd.c         **** }
 4920              		.loc 1 59 5 is_stmt 0
 4921 0d5a 14C0     		sw	a3,0(s0)
 4922              	.LVL210:
 4923              	.LBE1101:
 4924              	.LBE1105:
 4925              	.LBE1123:
 270:lcd.c         **** 	LCD_WR_DATA8(0x07);
 4926              		.loc 1 270 2 is_stmt 1
  92:lcd.c         **** }
 4927              		.loc 1 92 5
 4928              	.LBB1124:
 4929              	.LBB1118:
 4930              	.LBB1114:
  57:lcd.c         ****    queue[w++]=dat;                        //...If/when not then store data...
 4931              		.loc 1 57 4
  57:lcd.c         ****    queue[w++]=dat;                        //...If/when not then store data...
 4932              		.loc 1 57 17 is_stmt 0
 4933 0d5c 898D     		sub	a1,a1,a0
  57:lcd.c         ****    queue[w++]=dat;                        //...If/when not then store data...
 4934              		.loc 1 57 10
 4935 0d5e 6395B702 		bne	a5,a1,.L188
 4936              	.L189:
  57:lcd.c         ****    queue[w++]=dat;                        //...If/when not then store data...
 4937              		.loc 1 57 27 is_stmt 1
 4938 0d62 97000000 		call	LCD_WR_Queue
 4938      E7800000 
 4939              	.LVL211:
  57:lcd.c         ****    queue[w++]=dat;                        //...If/when not then store data...
 4940              		.loc 1 57 14 is_stmt 0
 4941 0d6a 1440     		lw	a3,0(s0)
  57:lcd.c         ****    queue[w++]=dat;                        //...If/when not then store data...
 4942              		.loc 1 57 22
GAS LISTING /tmp/ccIfjRGV.s 			page 118


 4943 0d6c 9C40     		lw	a5,0(s1)
  57:lcd.c         ****    queue[w++]=dat;                        //...If/when not then store data...
 4944              		.loc 1 57 14
 4945 0d6e 13871600 		addi	a4,a3,1
  57:lcd.c         ****    queue[w++]=dat;                        //...If/when not then store data...
 4946              		.loc 1 57 17
 4947 0d72 9355F741 		srai	a1,a4,31
 4948 0d76 13D68501 		srli	a2,a1,24
 4949 0d7a B305C700 		add	a1,a4,a2
 4950 0d7e 93F5F50F 		andi	a1,a1,255
 4951 0d82 918D     		sub	a1,a1,a2
  57:lcd.c         ****    queue[w++]=dat;                        //...If/when not then store data...
 4952              		.loc 1 57 10
 4953 0d84 E38FF5FC 		beq	a1,a5,.L189
 4954              	.L188:
  58:lcd.c         ****    w%=256;                                //...and advance write index!
 4955              		.loc 1 58 4 is_stmt 1
 4956              	.LBE1114:
 4957              	.LBE1118:
 4958              	.LBE1124:
 4959              	.LBB1125:
 4960              	.LBB1126:
 4961              	.LBB1127:
  57:lcd.c         ****    queue[w++]=dat;                        //...If/when not then store data...
 4962              		.loc 1 57 14 is_stmt 0
 4963 0d88 13871500 		addi	a4,a1,1
  57:lcd.c         ****    queue[w++]=dat;                        //...If/when not then store data...
 4964              		.loc 1 57 17
 4965 0d8c 1356F741 		srai	a2,a4,31
 4966 0d90 13558601 		srli	a0,a2,24
 4967 0d94 3306A700 		add	a2,a4,a0
 4968              	.LBE1127:
 4969              	.LBE1126:
 4970              	.LBE1125:
 4971              	.LBB1136:
 4972              	.LBB1119:
 4973              	.LBB1115:
  58:lcd.c         ****    w%=256;                                //...and advance write index!
 4974              		.loc 1 58 14
 4975 0d98 8A06     		slli	a3,a3,2
 4976 0d9a CA96     		add	a3,s2,a3
 4977              	.LBE1115:
 4978              	.LBE1119:
 4979              	.LBE1136:
 4980              	.LBB1137:
 4981              	.LBB1132:
 4982              	.LBB1128:
  57:lcd.c         ****    queue[w++]=dat;                        //...If/when not then store data...
 4983              		.loc 1 57 17
 4984 0d9c 1376F60F 		andi	a2,a2,255
 4985              	.LBE1128:
 4986              	.LBE1132:
 4987              	.LBE1137:
 4988              	.LBB1138:
 4989              	.LBB1120:
 4990              	.LBB1116:
  58:lcd.c         ****    w%=256;                                //...and advance write index!
GAS LISTING /tmp/ccIfjRGV.s 			page 119


 4991              		.loc 1 58 14
 4992 0da0 1307E010 		li	a4,270
 4993 0da4 98C2     		sw	a4,0(a3)
  59:lcd.c         **** }
 4994              		.loc 1 59 4 is_stmt 1
  59:lcd.c         **** }
 4995              		.loc 1 59 5 is_stmt 0
 4996 0da6 0CC0     		sw	a1,0(s0)
 4997              	.LVL212:
 4998              	.LBE1116:
 4999              	.LBE1120:
 5000              	.LBE1138:
 271:lcd.c         **** 	LCD_WR_DATA8(0x02);
 5001              		.loc 1 271 2 is_stmt 1
  92:lcd.c         **** }
 5002              		.loc 1 92 5
 5003              	.LBB1139:
 5004              	.LBB1133:
 5005              	.LBB1129:
  57:lcd.c         ****    queue[w++]=dat;                        //...If/when not then store data...
 5006              		.loc 1 57 4
  57:lcd.c         ****    queue[w++]=dat;                        //...If/when not then store data...
 5007              		.loc 1 57 17 is_stmt 0
 5008 0da8 098E     		sub	a2,a2,a0
  57:lcd.c         ****    queue[w++]=dat;                        //...If/when not then store data...
 5009              		.loc 1 57 10
 5010 0daa 6315F602 		bne	a2,a5,.L190
 5011              	.L191:
  57:lcd.c         ****    queue[w++]=dat;                        //...If/when not then store data...
 5012              		.loc 1 57 27 is_stmt 1
 5013 0dae 97000000 		call	LCD_WR_Queue
 5013      E7800000 
 5014              	.LVL213:
  57:lcd.c         ****    queue[w++]=dat;                        //...If/when not then store data...
 5015              		.loc 1 57 14 is_stmt 0
 5016 0db6 0C40     		lw	a1,0(s0)
  57:lcd.c         ****    queue[w++]=dat;                        //...If/when not then store data...
 5017              		.loc 1 57 22
 5018 0db8 9C40     		lw	a5,0(s1)
  57:lcd.c         ****    queue[w++]=dat;                        //...If/when not then store data...
 5019              		.loc 1 57 14
 5020 0dba 13871500 		addi	a4,a1,1
  57:lcd.c         ****    queue[w++]=dat;                        //...If/when not then store data...
 5021              		.loc 1 57 17
 5022 0dbe 1356F741 		srai	a2,a4,31
 5023 0dc2 93568601 		srli	a3,a2,24
 5024 0dc6 3306D700 		add	a2,a4,a3
 5025 0dca 1376F60F 		andi	a2,a2,255
 5026 0dce 158E     		sub	a2,a2,a3
  57:lcd.c         ****    queue[w++]=dat;                        //...If/when not then store data...
 5027              		.loc 1 57 10
 5028 0dd0 E30FF6FC 		beq	a2,a5,.L191
 5029              	.L190:
  58:lcd.c         ****    w%=256;                                //...and advance write index!
 5030              		.loc 1 58 4 is_stmt 1
 5031              	.LBE1129:
 5032              	.LBE1133:
GAS LISTING /tmp/ccIfjRGV.s 			page 120


 5033              	.LBE1139:
 5034              	.LBB1140:
 5035              	.LBB1141:
 5036              	.LBB1142:
  57:lcd.c         ****    queue[w++]=dat;                        //...If/when not then store data...
 5037              		.loc 1 57 14 is_stmt 0
 5038 0dd4 13071600 		addi	a4,a2,1
  57:lcd.c         ****    queue[w++]=dat;                        //...If/when not then store data...
 5039              		.loc 1 57 17
 5040 0dd8 9356F741 		srai	a3,a4,31
 5041 0ddc 13D58601 		srli	a0,a3,24
 5042 0de0 B306A700 		add	a3,a4,a0
 5043              	.LBE1142:
 5044              	.LBE1141:
 5045              	.LBE1140:
 5046              	.LBB1151:
 5047              	.LBB1134:
 5048              	.LBB1130:
  58:lcd.c         ****    w%=256;                                //...and advance write index!
 5049              		.loc 1 58 14
 5050 0de4 8A05     		slli	a1,a1,2
 5051 0de6 CA95     		add	a1,s2,a1
 5052              	.LBE1130:
 5053              	.LBE1134:
 5054              	.LBE1151:
 5055              	.LBB1152:
 5056              	.LBB1147:
 5057              	.LBB1143:
  57:lcd.c         ****    queue[w++]=dat;                        //...If/when not then store data...
 5058              		.loc 1 57 17
 5059 0de8 93F6F60F 		andi	a3,a3,255
 5060              	.LBE1143:
 5061              	.LBE1147:
 5062              	.LBE1152:
 5063              	.LBB1153:
 5064              	.LBB1135:
 5065              	.LBB1131:
  58:lcd.c         ****    w%=256;                                //...and advance write index!
 5066              		.loc 1 58 14
 5067 0dec 13077010 		li	a4,263
 5068 0df0 98C1     		sw	a4,0(a1)
  59:lcd.c         **** }
 5069              		.loc 1 59 4 is_stmt 1
  59:lcd.c         **** }
 5070              		.loc 1 59 5 is_stmt 0
 5071 0df2 10C0     		sw	a2,0(s0)
 5072              	.LVL214:
 5073              	.LBE1131:
 5074              	.LBE1135:
 5075              	.LBE1153:
 272:lcd.c         **** 	LCD_WR_DATA8(0x07);
 5076              		.loc 1 272 2 is_stmt 1
  92:lcd.c         **** }
 5077              		.loc 1 92 5
 5078              	.LBB1154:
 5079              	.LBB1148:
 5080              	.LBB1144:
GAS LISTING /tmp/ccIfjRGV.s 			page 121


  57:lcd.c         ****    queue[w++]=dat;                        //...If/when not then store data...
 5081              		.loc 1 57 4
  57:lcd.c         ****    queue[w++]=dat;                        //...If/when not then store data...
 5082              		.loc 1 57 17 is_stmt 0
 5083 0df4 898E     		sub	a3,a3,a0
  57:lcd.c         ****    queue[w++]=dat;                        //...If/when not then store data...
 5084              		.loc 1 57 10
 5085 0df6 6395D702 		bne	a5,a3,.L192
 5086              	.L193:
  57:lcd.c         ****    queue[w++]=dat;                        //...If/when not then store data...
 5087              		.loc 1 57 27 is_stmt 1
 5088 0dfa 97000000 		call	LCD_WR_Queue
 5088      E7800000 
 5089              	.LVL215:
  57:lcd.c         ****    queue[w++]=dat;                        //...If/when not then store data...
 5090              		.loc 1 57 14 is_stmt 0
 5091 0e02 1040     		lw	a2,0(s0)
  57:lcd.c         ****    queue[w++]=dat;                        //...If/when not then store data...
 5092              		.loc 1 57 22
 5093 0e04 9C40     		lw	a5,0(s1)
  57:lcd.c         ****    queue[w++]=dat;                        //...If/when not then store data...
 5094              		.loc 1 57 14
 5095 0e06 13071600 		addi	a4,a2,1
  57:lcd.c         ****    queue[w++]=dat;                        //...If/when not then store data...
 5096              		.loc 1 57 17
 5097 0e0a 9356F741 		srai	a3,a4,31
 5098 0e0e 93D58601 		srli	a1,a3,24
 5099 0e12 B306B700 		add	a3,a4,a1
 5100 0e16 93F6F60F 		andi	a3,a3,255
 5101 0e1a 8D8E     		sub	a3,a3,a1
  57:lcd.c         ****    queue[w++]=dat;                        //...If/when not then store data...
 5102              		.loc 1 57 10
 5103 0e1c E38FF6FC 		beq	a3,a5,.L193
 5104              	.L192:
  58:lcd.c         ****    w%=256;                                //...and advance write index!
 5105              		.loc 1 58 4 is_stmt 1
 5106              	.LBE1144:
 5107              	.LBE1148:
 5108              	.LBE1154:
 5109              	.LBB1155:
 5110              	.LBB1156:
 5111              	.LBB1157:
  57:lcd.c         ****    queue[w++]=dat;                        //...If/when not then store data...
 5112              		.loc 1 57 14 is_stmt 0
 5113 0e20 13871600 		addi	a4,a3,1
  57:lcd.c         ****    queue[w++]=dat;                        //...If/when not then store data...
 5114              		.loc 1 57 17
 5115 0e24 9355F741 		srai	a1,a4,31
 5116 0e28 13D58501 		srli	a0,a1,24
 5117 0e2c B305A700 		add	a1,a4,a0
 5118              	.LBE1157:
 5119              	.LBE1156:
 5120              	.LBE1155:
 5121              	.LBB1166:
 5122              	.LBB1149:
 5123              	.LBB1145:
  58:lcd.c         ****    w%=256;                                //...and advance write index!
GAS LISTING /tmp/ccIfjRGV.s 			page 122


 5124              		.loc 1 58 14
 5125 0e30 0A06     		slli	a2,a2,2
 5126 0e32 4A96     		add	a2,s2,a2
 5127              	.LBE1145:
 5128              	.LBE1149:
 5129              	.LBE1166:
 5130              	.LBB1167:
 5131              	.LBB1162:
 5132              	.LBB1158:
  57:lcd.c         ****    queue[w++]=dat;                        //...If/when not then store data...
 5133              		.loc 1 57 17
 5134 0e34 93F5F50F 		andi	a1,a1,255
 5135              	.LBE1158:
 5136              	.LBE1162:
 5137              	.LBE1167:
 5138              	.LBB1168:
 5139              	.LBB1150:
 5140              	.LBB1146:
  58:lcd.c         ****    w%=256;                                //...and advance write index!
 5141              		.loc 1 58 14
 5142 0e38 13072010 		li	a4,258
 5143 0e3c 18C2     		sw	a4,0(a2)
  59:lcd.c         **** }
 5144              		.loc 1 59 4 is_stmt 1
  59:lcd.c         **** }
 5145              		.loc 1 59 5 is_stmt 0
 5146 0e3e 14C0     		sw	a3,0(s0)
 5147              	.LVL216:
 5148              	.LBE1146:
 5149              	.LBE1150:
 5150              	.LBE1168:
 273:lcd.c         **** 	LCD_WR_DATA8(0x0A);
 5151              		.loc 1 273 2 is_stmt 1
  92:lcd.c         **** }
 5152              		.loc 1 92 5
 5153              	.LBB1169:
 5154              	.LBB1163:
 5155              	.LBB1159:
  57:lcd.c         ****    queue[w++]=dat;                        //...If/when not then store data...
 5156              		.loc 1 57 4
  57:lcd.c         ****    queue[w++]=dat;                        //...If/when not then store data...
 5157              		.loc 1 57 17 is_stmt 0
 5158 0e40 898D     		sub	a1,a1,a0
  57:lcd.c         ****    queue[w++]=dat;                        //...If/when not then store data...
 5159              		.loc 1 57 10
 5160 0e42 6395F502 		bne	a1,a5,.L194
 5161              	.L195:
  57:lcd.c         ****    queue[w++]=dat;                        //...If/when not then store data...
 5162              		.loc 1 57 27 is_stmt 1
 5163 0e46 97000000 		call	LCD_WR_Queue
 5163      E7800000 
 5164              	.LVL217:
  57:lcd.c         ****    queue[w++]=dat;                        //...If/when not then store data...
 5165              		.loc 1 57 14 is_stmt 0
 5166 0e4e 1440     		lw	a3,0(s0)
  57:lcd.c         ****    queue[w++]=dat;                        //...If/when not then store data...
 5167              		.loc 1 57 22
GAS LISTING /tmp/ccIfjRGV.s 			page 123


 5168 0e50 9C40     		lw	a5,0(s1)
  57:lcd.c         ****    queue[w++]=dat;                        //...If/when not then store data...
 5169              		.loc 1 57 14
 5170 0e52 13871600 		addi	a4,a3,1
  57:lcd.c         ****    queue[w++]=dat;                        //...If/when not then store data...
 5171              		.loc 1 57 17
 5172 0e56 9355F741 		srai	a1,a4,31
 5173 0e5a 13D68501 		srli	a2,a1,24
 5174 0e5e B305C700 		add	a1,a4,a2
 5175 0e62 93F5F50F 		andi	a1,a1,255
 5176 0e66 918D     		sub	a1,a1,a2
  57:lcd.c         ****    queue[w++]=dat;                        //...If/when not then store data...
 5177              		.loc 1 57 10
 5178 0e68 E38FF5FC 		beq	a1,a5,.L195
 5179              	.L194:
  58:lcd.c         ****    w%=256;                                //...and advance write index!
 5180              		.loc 1 58 4 is_stmt 1
 5181              	.LBE1159:
 5182              	.LBE1163:
 5183              	.LBE1169:
 5184              	.LBB1170:
 5185              	.LBB1171:
 5186              	.LBB1172:
  57:lcd.c         ****    queue[w++]=dat;                        //...If/when not then store data...
 5187              		.loc 1 57 14 is_stmt 0
 5188 0e6c 13871500 		addi	a4,a1,1
  57:lcd.c         ****    queue[w++]=dat;                        //...If/when not then store data...
 5189              		.loc 1 57 17
 5190 0e70 1356F741 		srai	a2,a4,31
 5191 0e74 13558601 		srli	a0,a2,24
 5192 0e78 3306A700 		add	a2,a4,a0
 5193              	.LBE1172:
 5194              	.LBE1171:
 5195              	.LBE1170:
 5196              	.LBB1181:
 5197              	.LBB1164:
 5198              	.LBB1160:
  58:lcd.c         ****    w%=256;                                //...and advance write index!
 5199              		.loc 1 58 14
 5200 0e7c 8A06     		slli	a3,a3,2
 5201 0e7e CA96     		add	a3,s2,a3
 5202              	.LBE1160:
 5203              	.LBE1164:
 5204              	.LBE1181:
 5205              	.LBB1182:
 5206              	.LBB1177:
 5207              	.LBB1173:
  57:lcd.c         ****    queue[w++]=dat;                        //...If/when not then store data...
 5208              		.loc 1 57 17
 5209 0e80 1376F60F 		andi	a2,a2,255
 5210              	.LBE1173:
 5211              	.LBE1177:
 5212              	.LBE1182:
 5213              	.LBB1183:
 5214              	.LBB1165:
 5215              	.LBB1161:
  58:lcd.c         ****    w%=256;                                //...and advance write index!
GAS LISTING /tmp/ccIfjRGV.s 			page 124


 5216              		.loc 1 58 14
 5217 0e84 13077010 		li	a4,263
 5218 0e88 98C2     		sw	a4,0(a3)
  59:lcd.c         **** }
 5219              		.loc 1 59 4 is_stmt 1
  59:lcd.c         **** }
 5220              		.loc 1 59 5 is_stmt 0
 5221 0e8a 0CC0     		sw	a1,0(s0)
 5222              	.LVL218:
 5223              	.LBE1161:
 5224              	.LBE1165:
 5225              	.LBE1183:
 274:lcd.c         **** 	LCD_WR_DATA8(0x12);
 5226              		.loc 1 274 2 is_stmt 1
  92:lcd.c         **** }
 5227              		.loc 1 92 5
 5228              	.LBB1184:
 5229              	.LBB1178:
 5230              	.LBB1174:
  57:lcd.c         ****    queue[w++]=dat;                        //...If/when not then store data...
 5231              		.loc 1 57 4
  57:lcd.c         ****    queue[w++]=dat;                        //...If/when not then store data...
 5232              		.loc 1 57 17 is_stmt 0
 5233 0e8c 098E     		sub	a2,a2,a0
  57:lcd.c         ****    queue[w++]=dat;                        //...If/when not then store data...
 5234              		.loc 1 57 10
 5235 0e8e 6315F602 		bne	a2,a5,.L196
 5236              	.L197:
  57:lcd.c         ****    queue[w++]=dat;                        //...If/when not then store data...
 5237              		.loc 1 57 27 is_stmt 1
 5238 0e92 97000000 		call	LCD_WR_Queue
 5238      E7800000 
 5239              	.LVL219:
  57:lcd.c         ****    queue[w++]=dat;                        //...If/when not then store data...
 5240              		.loc 1 57 14 is_stmt 0
 5241 0e9a 0C40     		lw	a1,0(s0)
  57:lcd.c         ****    queue[w++]=dat;                        //...If/when not then store data...
 5242              		.loc 1 57 22
 5243 0e9c 9C40     		lw	a5,0(s1)
  57:lcd.c         ****    queue[w++]=dat;                        //...If/when not then store data...
 5244              		.loc 1 57 14
 5245 0e9e 13871500 		addi	a4,a1,1
  57:lcd.c         ****    queue[w++]=dat;                        //...If/when not then store data...
 5246              		.loc 1 57 17
 5247 0ea2 1356F741 		srai	a2,a4,31
 5248 0ea6 93568601 		srli	a3,a2,24
 5249 0eaa 3306D700 		add	a2,a4,a3
 5250 0eae 1376F60F 		andi	a2,a2,255
 5251 0eb2 158E     		sub	a2,a2,a3
  57:lcd.c         ****    queue[w++]=dat;                        //...If/when not then store data...
 5252              		.loc 1 57 10
 5253 0eb4 E30FF6FC 		beq	a2,a5,.L197
 5254              	.L196:
  58:lcd.c         ****    w%=256;                                //...and advance write index!
 5255              		.loc 1 58 4 is_stmt 1
 5256              	.LBE1174:
 5257              	.LBE1178:
GAS LISTING /tmp/ccIfjRGV.s 			page 125


 5258              	.LBE1184:
 5259              	.LBB1185:
 5260              	.LBB1186:
 5261              	.LBB1187:
  57:lcd.c         ****    queue[w++]=dat;                        //...If/when not then store data...
 5262              		.loc 1 57 14 is_stmt 0
 5263 0eb8 13071600 		addi	a4,a2,1
  57:lcd.c         ****    queue[w++]=dat;                        //...If/when not then store data...
 5264              		.loc 1 57 17
 5265 0ebc 9356F741 		srai	a3,a4,31
 5266 0ec0 13D58601 		srli	a0,a3,24
 5267 0ec4 B306A700 		add	a3,a4,a0
 5268              	.LBE1187:
 5269              	.LBE1186:
 5270              	.LBE1185:
 5271              	.LBB1196:
 5272              	.LBB1179:
 5273              	.LBB1175:
  58:lcd.c         ****    w%=256;                                //...and advance write index!
 5274              		.loc 1 58 14
 5275 0ec8 8A05     		slli	a1,a1,2
 5276 0eca CA95     		add	a1,s2,a1
 5277              	.LBE1175:
 5278              	.LBE1179:
 5279              	.LBE1196:
 5280              	.LBB1197:
 5281              	.LBB1192:
 5282              	.LBB1188:
  57:lcd.c         ****    queue[w++]=dat;                        //...If/when not then store data...
 5283              		.loc 1 57 17
 5284 0ecc 93F6F60F 		andi	a3,a3,255
 5285              	.LBE1188:
 5286              	.LBE1192:
 5287              	.LBE1197:
 5288              	.LBB1198:
 5289              	.LBB1180:
 5290              	.LBB1176:
  58:lcd.c         ****    w%=256;                                //...and advance write index!
 5291              		.loc 1 58 14
 5292 0ed0 1307A010 		li	a4,266
 5293 0ed4 98C1     		sw	a4,0(a1)
  59:lcd.c         **** }
 5294              		.loc 1 59 4 is_stmt 1
  59:lcd.c         **** }
 5295              		.loc 1 59 5 is_stmt 0
 5296 0ed6 10C0     		sw	a2,0(s0)
 5297              	.LVL220:
 5298              	.LBE1176:
 5299              	.LBE1180:
 5300              	.LBE1198:
 275:lcd.c         **** 	LCD_WR_DATA8(0x27);
 5301              		.loc 1 275 2 is_stmt 1
  92:lcd.c         **** }
 5302              		.loc 1 92 5
 5303              	.LBB1199:
 5304              	.LBB1193:
 5305              	.LBB1189:
GAS LISTING /tmp/ccIfjRGV.s 			page 126


  57:lcd.c         ****    queue[w++]=dat;                        //...If/when not then store data...
 5306              		.loc 1 57 4
  57:lcd.c         ****    queue[w++]=dat;                        //...If/when not then store data...
 5307              		.loc 1 57 17 is_stmt 0
 5308 0ed8 898E     		sub	a3,a3,a0
  57:lcd.c         ****    queue[w++]=dat;                        //...If/when not then store data...
 5309              		.loc 1 57 10
 5310 0eda 6395F602 		bne	a3,a5,.L198
 5311              	.L199:
  57:lcd.c         ****    queue[w++]=dat;                        //...If/when not then store data...
 5312              		.loc 1 57 27 is_stmt 1
 5313 0ede 97000000 		call	LCD_WR_Queue
 5313      E7800000 
 5314              	.LVL221:
  57:lcd.c         ****    queue[w++]=dat;                        //...If/when not then store data...
 5315              		.loc 1 57 14 is_stmt 0
 5316 0ee6 1040     		lw	a2,0(s0)
  57:lcd.c         ****    queue[w++]=dat;                        //...If/when not then store data...
 5317              		.loc 1 57 22
 5318 0ee8 9C40     		lw	a5,0(s1)
  57:lcd.c         ****    queue[w++]=dat;                        //...If/when not then store data...
 5319              		.loc 1 57 14
 5320 0eea 13071600 		addi	a4,a2,1
  57:lcd.c         ****    queue[w++]=dat;                        //...If/when not then store data...
 5321              		.loc 1 57 17
 5322 0eee 9356F741 		srai	a3,a4,31
 5323 0ef2 93D58601 		srli	a1,a3,24
 5324 0ef6 B306B700 		add	a3,a4,a1
 5325 0efa 93F6F60F 		andi	a3,a3,255
 5326 0efe 8D8E     		sub	a3,a3,a1
  57:lcd.c         ****    queue[w++]=dat;                        //...If/when not then store data...
 5327              		.loc 1 57 10
 5328 0f00 E38FF6FC 		beq	a3,a5,.L199
 5329              	.L198:
  58:lcd.c         ****    w%=256;                                //...and advance write index!
 5330              		.loc 1 58 4 is_stmt 1
 5331              	.LBE1189:
 5332              	.LBE1193:
 5333              	.LBE1199:
 5334              	.LBB1200:
 5335              	.LBB1201:
 5336              	.LBB1202:
  57:lcd.c         ****    queue[w++]=dat;                        //...If/when not then store data...
 5337              		.loc 1 57 14 is_stmt 0
 5338 0f04 13871600 		addi	a4,a3,1
  57:lcd.c         ****    queue[w++]=dat;                        //...If/when not then store data...
 5339              		.loc 1 57 17
 5340 0f08 9355F741 		srai	a1,a4,31
 5341 0f0c 13D58501 		srli	a0,a1,24
 5342 0f10 B305A700 		add	a1,a4,a0
 5343              	.LBE1202:
 5344              	.LBE1201:
 5345              	.LBE1200:
 5346              	.LBB1211:
 5347              	.LBB1194:
 5348              	.LBB1190:
  58:lcd.c         ****    w%=256;                                //...and advance write index!
GAS LISTING /tmp/ccIfjRGV.s 			page 127


 5349              		.loc 1 58 14
 5350 0f14 0A06     		slli	a2,a2,2
 5351 0f16 4A96     		add	a2,s2,a2
 5352              	.LBE1190:
 5353              	.LBE1194:
 5354              	.LBE1211:
 5355              	.LBB1212:
 5356              	.LBB1207:
 5357              	.LBB1203:
  57:lcd.c         ****    queue[w++]=dat;                        //...If/when not then store data...
 5358              		.loc 1 57 17
 5359 0f18 93F5F50F 		andi	a1,a1,255
 5360              	.LBE1203:
 5361              	.LBE1207:
 5362              	.LBE1212:
 5363              	.LBB1213:
 5364              	.LBB1195:
 5365              	.LBB1191:
  58:lcd.c         ****    w%=256;                                //...and advance write index!
 5366              		.loc 1 58 14
 5367 0f1c 13072011 		li	a4,274
 5368 0f20 18C2     		sw	a4,0(a2)
  59:lcd.c         **** }
 5369              		.loc 1 59 4 is_stmt 1
  59:lcd.c         **** }
 5370              		.loc 1 59 5 is_stmt 0
 5371 0f22 14C0     		sw	a3,0(s0)
 5372              	.LVL222:
 5373              	.LBE1191:
 5374              	.LBE1195:
 5375              	.LBE1213:
 276:lcd.c         **** 	LCD_WR_DATA8(0x37);
 5376              		.loc 1 276 2 is_stmt 1
  92:lcd.c         **** }
 5377              		.loc 1 92 5
 5378              	.LBB1214:
 5379              	.LBB1208:
 5380              	.LBB1204:
  57:lcd.c         ****    queue[w++]=dat;                        //...If/when not then store data...
 5381              		.loc 1 57 4
  57:lcd.c         ****    queue[w++]=dat;                        //...If/when not then store data...
 5382              		.loc 1 57 17 is_stmt 0
 5383 0f24 898D     		sub	a1,a1,a0
  57:lcd.c         ****    queue[w++]=dat;                        //...If/when not then store data...
 5384              		.loc 1 57 10
 5385 0f26 6395F502 		bne	a1,a5,.L200
 5386              	.L201:
  57:lcd.c         ****    queue[w++]=dat;                        //...If/when not then store data...
 5387              		.loc 1 57 27 is_stmt 1
 5388 0f2a 97000000 		call	LCD_WR_Queue
 5388      E7800000 
 5389              	.LVL223:
  57:lcd.c         ****    queue[w++]=dat;                        //...If/when not then store data...
 5390              		.loc 1 57 14 is_stmt 0
 5391 0f32 1440     		lw	a3,0(s0)
  57:lcd.c         ****    queue[w++]=dat;                        //...If/when not then store data...
 5392              		.loc 1 57 22
GAS LISTING /tmp/ccIfjRGV.s 			page 128


 5393 0f34 9C40     		lw	a5,0(s1)
  57:lcd.c         ****    queue[w++]=dat;                        //...If/when not then store data...
 5394              		.loc 1 57 14
 5395 0f36 13871600 		addi	a4,a3,1
  57:lcd.c         ****    queue[w++]=dat;                        //...If/when not then store data...
 5396              		.loc 1 57 17
 5397 0f3a 9355F741 		srai	a1,a4,31
 5398 0f3e 13D68501 		srli	a2,a1,24
 5399 0f42 B305C700 		add	a1,a4,a2
 5400 0f46 93F5F50F 		andi	a1,a1,255
 5401 0f4a 918D     		sub	a1,a1,a2
  57:lcd.c         ****    queue[w++]=dat;                        //...If/when not then store data...
 5402              		.loc 1 57 10
 5403 0f4c E38FF5FC 		beq	a1,a5,.L201
 5404              	.L200:
  58:lcd.c         ****    w%=256;                                //...and advance write index!
 5405              		.loc 1 58 4 is_stmt 1
 5406              	.LBE1204:
 5407              	.LBE1208:
 5408              	.LBE1214:
 5409              	.LBB1215:
 5410              	.LBB1216:
 5411              	.LBB1217:
  57:lcd.c         ****    queue[w++]=dat;                        //...If/when not then store data...
 5412              		.loc 1 57 14 is_stmt 0
 5413 0f50 13871500 		addi	a4,a1,1
  57:lcd.c         ****    queue[w++]=dat;                        //...If/when not then store data...
 5414              		.loc 1 57 17
 5415 0f54 1356F741 		srai	a2,a4,31
 5416 0f58 13558601 		srli	a0,a2,24
 5417 0f5c 3306A700 		add	a2,a4,a0
 5418              	.LBE1217:
 5419              	.LBE1216:
 5420              	.LBE1215:
 5421              	.LBB1226:
 5422              	.LBB1209:
 5423              	.LBB1205:
  58:lcd.c         ****    w%=256;                                //...and advance write index!
 5424              		.loc 1 58 14
 5425 0f60 8A06     		slli	a3,a3,2
 5426 0f62 CA96     		add	a3,s2,a3
 5427              	.LBE1205:
 5428              	.LBE1209:
 5429              	.LBE1226:
 5430              	.LBB1227:
 5431              	.LBB1222:
 5432              	.LBB1218:
  57:lcd.c         ****    queue[w++]=dat;                        //...If/when not then store data...
 5433              		.loc 1 57 17
 5434 0f64 1376F60F 		andi	a2,a2,255
 5435              	.LBE1218:
 5436              	.LBE1222:
 5437              	.LBE1227:
 5438              	.LBB1228:
 5439              	.LBB1210:
 5440              	.LBB1206:
  58:lcd.c         ****    w%=256;                                //...and advance write index!
GAS LISTING /tmp/ccIfjRGV.s 			page 129


 5441              		.loc 1 58 14
 5442 0f68 13077012 		li	a4,295
 5443 0f6c 98C2     		sw	a4,0(a3)
  59:lcd.c         **** }
 5444              		.loc 1 59 4 is_stmt 1
  59:lcd.c         **** }
 5445              		.loc 1 59 5 is_stmt 0
 5446 0f6e 0CC0     		sw	a1,0(s0)
 5447              	.LVL224:
 5448              	.LBE1206:
 5449              	.LBE1210:
 5450              	.LBE1228:
 277:lcd.c         **** 	LCD_WR_DATA8(0x00);
 5451              		.loc 1 277 2 is_stmt 1
  92:lcd.c         **** }
 5452              		.loc 1 92 5
 5453              	.LBB1229:
 5454              	.LBB1223:
 5455              	.LBB1219:
  57:lcd.c         ****    queue[w++]=dat;                        //...If/when not then store data...
 5456              		.loc 1 57 4
  57:lcd.c         ****    queue[w++]=dat;                        //...If/when not then store data...
 5457              		.loc 1 57 17 is_stmt 0
 5458 0f70 098E     		sub	a2,a2,a0
  57:lcd.c         ****    queue[w++]=dat;                        //...If/when not then store data...
 5459              		.loc 1 57 10
 5460 0f72 6315F602 		bne	a2,a5,.L202
 5461              	.L203:
  57:lcd.c         ****    queue[w++]=dat;                        //...If/when not then store data...
 5462              		.loc 1 57 27 is_stmt 1
 5463 0f76 97000000 		call	LCD_WR_Queue
 5463      E7800000 
 5464              	.LVL225:
  57:lcd.c         ****    queue[w++]=dat;                        //...If/when not then store data...
 5465              		.loc 1 57 14 is_stmt 0
 5466 0f7e 0C40     		lw	a1,0(s0)
  57:lcd.c         ****    queue[w++]=dat;                        //...If/when not then store data...
 5467              		.loc 1 57 22
 5468 0f80 9C40     		lw	a5,0(s1)
  57:lcd.c         ****    queue[w++]=dat;                        //...If/when not then store data...
 5469              		.loc 1 57 14
 5470 0f82 13871500 		addi	a4,a1,1
  57:lcd.c         ****    queue[w++]=dat;                        //...If/when not then store data...
 5471              		.loc 1 57 17
 5472 0f86 1356F741 		srai	a2,a4,31
 5473 0f8a 93568601 		srli	a3,a2,24
 5474 0f8e 3306D700 		add	a2,a4,a3
 5475 0f92 1376F60F 		andi	a2,a2,255
 5476 0f96 158E     		sub	a2,a2,a3
  57:lcd.c         ****    queue[w++]=dat;                        //...If/when not then store data...
 5477              		.loc 1 57 10
 5478 0f98 E30FF6FC 		beq	a2,a5,.L203
 5479              	.L202:
  58:lcd.c         ****    w%=256;                                //...and advance write index!
 5480              		.loc 1 58 4 is_stmt 1
 5481              	.LBE1219:
 5482              	.LBE1223:
GAS LISTING /tmp/ccIfjRGV.s 			page 130


 5483              	.LBE1229:
 5484              	.LBB1230:
 5485              	.LBB1231:
 5486              	.LBB1232:
  57:lcd.c         ****    queue[w++]=dat;                        //...If/when not then store data...
 5487              		.loc 1 57 14 is_stmt 0
 5488 0f9c 13071600 		addi	a4,a2,1
  57:lcd.c         ****    queue[w++]=dat;                        //...If/when not then store data...
 5489              		.loc 1 57 17
 5490 0fa0 9356F741 		srai	a3,a4,31
 5491 0fa4 13D58601 		srli	a0,a3,24
 5492 0fa8 B306A700 		add	a3,a4,a0
 5493              	.LBE1232:
 5494              	.LBE1231:
 5495              	.LBE1230:
 5496              	.LBB1241:
 5497              	.LBB1224:
 5498              	.LBB1220:
  58:lcd.c         ****    w%=256;                                //...and advance write index!
 5499              		.loc 1 58 14
 5500 0fac 8A05     		slli	a1,a1,2
 5501 0fae CA95     		add	a1,s2,a1
 5502              	.LBE1220:
 5503              	.LBE1224:
 5504              	.LBE1241:
 5505              	.LBB1242:
 5506              	.LBB1237:
 5507              	.LBB1233:
  57:lcd.c         ****    queue[w++]=dat;                        //...If/when not then store data...
 5508              		.loc 1 57 17
 5509 0fb0 93F6F60F 		andi	a3,a3,255
 5510              	.LBE1233:
 5511              	.LBE1237:
 5512              	.LBE1242:
 5513              	.LBB1243:
 5514              	.LBB1225:
 5515              	.LBB1221:
  58:lcd.c         ****    w%=256;                                //...and advance write index!
 5516              		.loc 1 58 14
 5517 0fb4 13077013 		li	a4,311
 5518 0fb8 98C1     		sw	a4,0(a1)
  59:lcd.c         **** }
 5519              		.loc 1 59 4 is_stmt 1
  59:lcd.c         **** }
 5520              		.loc 1 59 5 is_stmt 0
 5521 0fba 10C0     		sw	a2,0(s0)
 5522              	.LVL226:
 5523              	.LBE1221:
 5524              	.LBE1225:
 5525              	.LBE1243:
 278:lcd.c         **** 	LCD_WR_DATA8(0x0D);
 5526              		.loc 1 278 2 is_stmt 1
  92:lcd.c         **** }
 5527              		.loc 1 92 5
 5528              	.LBB1244:
 5529              	.LBB1238:
 5530              	.LBB1234:
GAS LISTING /tmp/ccIfjRGV.s 			page 131


  57:lcd.c         ****    queue[w++]=dat;                        //...If/when not then store data...
 5531              		.loc 1 57 4
  57:lcd.c         ****    queue[w++]=dat;                        //...If/when not then store data...
 5532              		.loc 1 57 17 is_stmt 0
 5533 0fbc 898E     		sub	a3,a3,a0
  57:lcd.c         ****    queue[w++]=dat;                        //...If/when not then store data...
 5534              		.loc 1 57 10
 5535 0fbe 6395F602 		bne	a3,a5,.L204
 5536              	.L205:
  57:lcd.c         ****    queue[w++]=dat;                        //...If/when not then store data...
 5537              		.loc 1 57 27 is_stmt 1
 5538 0fc2 97000000 		call	LCD_WR_Queue
 5538      E7800000 
 5539              	.LVL227:
  57:lcd.c         ****    queue[w++]=dat;                        //...If/when not then store data...
 5540              		.loc 1 57 14 is_stmt 0
 5541 0fca 1040     		lw	a2,0(s0)
  57:lcd.c         ****    queue[w++]=dat;                        //...If/when not then store data...
 5542              		.loc 1 57 22
 5543 0fcc 9C40     		lw	a5,0(s1)
  57:lcd.c         ****    queue[w++]=dat;                        //...If/when not then store data...
 5544              		.loc 1 57 14
 5545 0fce 13071600 		addi	a4,a2,1
  57:lcd.c         ****    queue[w++]=dat;                        //...If/when not then store data...
 5546              		.loc 1 57 17
 5547 0fd2 9356F741 		srai	a3,a4,31
 5548 0fd6 93D58601 		srli	a1,a3,24
 5549 0fda B306B700 		add	a3,a4,a1
 5550 0fde 93F6F60F 		andi	a3,a3,255
 5551 0fe2 8D8E     		sub	a3,a3,a1
  57:lcd.c         ****    queue[w++]=dat;                        //...If/when not then store data...
 5552              		.loc 1 57 10
 5553 0fe4 E38FF6FC 		beq	a3,a5,.L205
 5554              	.L204:
  58:lcd.c         ****    w%=256;                                //...and advance write index!
 5555              		.loc 1 58 4 is_stmt 1
 5556              	.LBE1234:
 5557              	.LBE1238:
 5558              	.LBE1244:
 5559              	.LBB1245:
 5560              	.LBB1246:
 5561              	.LBB1247:
  57:lcd.c         ****    queue[w++]=dat;                        //...If/when not then store data...
 5562              		.loc 1 57 14 is_stmt 0
 5563 0fe8 13871600 		addi	a4,a3,1
  57:lcd.c         ****    queue[w++]=dat;                        //...If/when not then store data...
 5564              		.loc 1 57 17
 5565 0fec 9355F741 		srai	a1,a4,31
 5566 0ff0 13D58501 		srli	a0,a1,24
 5567 0ff4 B305A700 		add	a1,a4,a0
 5568              	.LBE1247:
 5569              	.LBE1246:
 5570              	.LBE1245:
 5571              	.LBB1256:
 5572              	.LBB1239:
 5573              	.LBB1235:
  58:lcd.c         ****    w%=256;                                //...and advance write index!
GAS LISTING /tmp/ccIfjRGV.s 			page 132


 5574              		.loc 1 58 14
 5575 0ff8 0A06     		slli	a2,a2,2
 5576 0ffa 4A96     		add	a2,s2,a2
 5577              	.LBE1235:
 5578              	.LBE1239:
 5579              	.LBE1256:
 5580              	.LBB1257:
 5581              	.LBB1252:
 5582              	.LBB1248:
  57:lcd.c         ****    queue[w++]=dat;                        //...If/when not then store data...
 5583              		.loc 1 57 17
 5584 0ffc 93F5F50F 		andi	a1,a1,255
 5585              	.LBE1248:
 5586              	.LBE1252:
 5587              	.LBE1257:
 5588              	.LBB1258:
 5589              	.LBB1240:
 5590              	.LBB1236:
  58:lcd.c         ****    w%=256;                                //...and advance write index!
 5591              		.loc 1 58 14
 5592 1000 13070010 		li	a4,256
 5593 1004 18C2     		sw	a4,0(a2)
  59:lcd.c         **** }
 5594              		.loc 1 59 4 is_stmt 1
  59:lcd.c         **** }
 5595              		.loc 1 59 5 is_stmt 0
 5596 1006 14C0     		sw	a3,0(s0)
 5597              	.LVL228:
 5598              	.LBE1236:
 5599              	.LBE1240:
 5600              	.LBE1258:
 279:lcd.c         **** 	LCD_WR_DATA8(0x0E);
 5601              		.loc 1 279 2 is_stmt 1
  92:lcd.c         **** }
 5602              		.loc 1 92 5
 5603              	.LBB1259:
 5604              	.LBB1253:
 5605              	.LBB1249:
  57:lcd.c         ****    queue[w++]=dat;                        //...If/when not then store data...
 5606              		.loc 1 57 4
  57:lcd.c         ****    queue[w++]=dat;                        //...If/when not then store data...
 5607              		.loc 1 57 17 is_stmt 0
 5608 1008 898D     		sub	a1,a1,a0
  57:lcd.c         ****    queue[w++]=dat;                        //...If/when not then store data...
 5609              		.loc 1 57 10
 5610 100a 6395F502 		bne	a1,a5,.L206
 5611              	.L207:
  57:lcd.c         ****    queue[w++]=dat;                        //...If/when not then store data...
 5612              		.loc 1 57 27 is_stmt 1
 5613 100e 97000000 		call	LCD_WR_Queue
 5613      E7800000 
 5614              	.LVL229:
  57:lcd.c         ****    queue[w++]=dat;                        //...If/when not then store data...
 5615              		.loc 1 57 14 is_stmt 0
 5616 1016 1440     		lw	a3,0(s0)
  57:lcd.c         ****    queue[w++]=dat;                        //...If/when not then store data...
 5617              		.loc 1 57 22
GAS LISTING /tmp/ccIfjRGV.s 			page 133


 5618 1018 9C40     		lw	a5,0(s1)
  57:lcd.c         ****    queue[w++]=dat;                        //...If/when not then store data...
 5619              		.loc 1 57 14
 5620 101a 13871600 		addi	a4,a3,1
  57:lcd.c         ****    queue[w++]=dat;                        //...If/when not then store data...
 5621              		.loc 1 57 17
 5622 101e 9355F741 		srai	a1,a4,31
 5623 1022 13D68501 		srli	a2,a1,24
 5624 1026 B305C700 		add	a1,a4,a2
 5625 102a 93F5F50F 		andi	a1,a1,255
 5626 102e 918D     		sub	a1,a1,a2
  57:lcd.c         ****    queue[w++]=dat;                        //...If/when not then store data...
 5627              		.loc 1 57 10
 5628 1030 E38FF5FC 		beq	a1,a5,.L207
 5629              	.L206:
  58:lcd.c         ****    w%=256;                                //...and advance write index!
 5630              		.loc 1 58 4 is_stmt 1
 5631              	.LBE1249:
 5632              	.LBE1253:
 5633              	.LBE1259:
 5634              	.LBB1260:
 5635              	.LBB1261:
 5636              	.LBB1262:
  57:lcd.c         ****    queue[w++]=dat;                        //...If/when not then store data...
 5637              		.loc 1 57 14 is_stmt 0
 5638 1034 13871500 		addi	a4,a1,1
  57:lcd.c         ****    queue[w++]=dat;                        //...If/when not then store data...
 5639              		.loc 1 57 17
 5640 1038 1356F741 		srai	a2,a4,31
 5641 103c 13558601 		srli	a0,a2,24
 5642 1040 3306A700 		add	a2,a4,a0
 5643              	.LBE1262:
 5644              	.LBE1261:
 5645              	.LBE1260:
 5646              	.LBB1271:
 5647              	.LBB1254:
 5648              	.LBB1250:
  58:lcd.c         ****    w%=256;                                //...and advance write index!
 5649              		.loc 1 58 14
 5650 1044 8A06     		slli	a3,a3,2
 5651 1046 CA96     		add	a3,s2,a3
 5652              	.LBE1250:
 5653              	.LBE1254:
 5654              	.LBE1271:
 5655              	.LBB1272:
 5656              	.LBB1267:
 5657              	.LBB1263:
  57:lcd.c         ****    queue[w++]=dat;                        //...If/when not then store data...
 5658              		.loc 1 57 17
 5659 1048 1376F60F 		andi	a2,a2,255
 5660              	.LBE1263:
 5661              	.LBE1267:
 5662              	.LBE1272:
 5663              	.LBB1273:
 5664              	.LBB1255:
 5665              	.LBB1251:
  58:lcd.c         ****    w%=256;                                //...and advance write index!
GAS LISTING /tmp/ccIfjRGV.s 			page 134


 5666              		.loc 1 58 14
 5667 104c 1307D010 		li	a4,269
 5668 1050 98C2     		sw	a4,0(a3)
  59:lcd.c         **** }
 5669              		.loc 1 59 4 is_stmt 1
  59:lcd.c         **** }
 5670              		.loc 1 59 5 is_stmt 0
 5671 1052 0CC0     		sw	a1,0(s0)
 5672              	.LVL230:
 5673              	.LBE1251:
 5674              	.LBE1255:
 5675              	.LBE1273:
 280:lcd.c         **** 	LCD_WR_DATA8(0x10);
 5676              		.loc 1 280 2 is_stmt 1
  92:lcd.c         **** }
 5677              		.loc 1 92 5
 5678              	.LBB1274:
 5679              	.LBB1268:
 5680              	.LBB1264:
  57:lcd.c         ****    queue[w++]=dat;                        //...If/when not then store data...
 5681              		.loc 1 57 4
  57:lcd.c         ****    queue[w++]=dat;                        //...If/when not then store data...
 5682              		.loc 1 57 17 is_stmt 0
 5683 1054 098E     		sub	a2,a2,a0
  57:lcd.c         ****    queue[w++]=dat;                        //...If/when not then store data...
 5684              		.loc 1 57 10
 5685 1056 6315F602 		bne	a2,a5,.L208
 5686              	.L209:
  57:lcd.c         ****    queue[w++]=dat;                        //...If/when not then store data...
 5687              		.loc 1 57 27 is_stmt 1
 5688 105a 97000000 		call	LCD_WR_Queue
 5688      E7800000 
 5689              	.LVL231:
  57:lcd.c         ****    queue[w++]=dat;                        //...If/when not then store data...
 5690              		.loc 1 57 14 is_stmt 0
 5691 1062 0C40     		lw	a1,0(s0)
  57:lcd.c         ****    queue[w++]=dat;                        //...If/when not then store data...
 5692              		.loc 1 57 22
 5693 1064 9C40     		lw	a5,0(s1)
  57:lcd.c         ****    queue[w++]=dat;                        //...If/when not then store data...
 5694              		.loc 1 57 14
 5695 1066 13871500 		addi	a4,a1,1
  57:lcd.c         ****    queue[w++]=dat;                        //...If/when not then store data...
 5696              		.loc 1 57 17
 5697 106a 1356F741 		srai	a2,a4,31
 5698 106e 93568601 		srli	a3,a2,24
 5699 1072 3306D700 		add	a2,a4,a3
 5700 1076 1376F60F 		andi	a2,a2,255
 5701 107a 158E     		sub	a2,a2,a3
  57:lcd.c         ****    queue[w++]=dat;                        //...If/when not then store data...
 5702              		.loc 1 57 10
 5703 107c E30FF6FC 		beq	a2,a5,.L209
 5704              	.L208:
  58:lcd.c         ****    w%=256;                                //...and advance write index!
 5705              		.loc 1 58 4 is_stmt 1
 5706              	.LBE1264:
 5707              	.LBE1268:
GAS LISTING /tmp/ccIfjRGV.s 			page 135


 5708              	.LBE1274:
 5709              	.LBB1275:
 5710              	.LBB1276:
 5711              	.LBB1277:
  57:lcd.c         ****    queue[w++]=dat;                        //...If/when not then store data...
 5712              		.loc 1 57 14 is_stmt 0
 5713 1080 13071600 		addi	a4,a2,1
  57:lcd.c         ****    queue[w++]=dat;                        //...If/when not then store data...
 5714              		.loc 1 57 17
 5715 1084 9356F741 		srai	a3,a4,31
 5716 1088 13D58601 		srli	a0,a3,24
 5717 108c B306A700 		add	a3,a4,a0
 5718              	.LBE1277:
 5719              	.LBE1276:
 5720              	.LBE1275:
 5721              	.LBB1286:
 5722              	.LBB1269:
 5723              	.LBB1265:
  58:lcd.c         ****    w%=256;                                //...and advance write index!
 5724              		.loc 1 58 14
 5725 1090 8A05     		slli	a1,a1,2
 5726 1092 CA95     		add	a1,s2,a1
 5727              	.LBE1265:
 5728              	.LBE1269:
 5729              	.LBE1286:
 5730              	.LBB1287:
 5731              	.LBB1282:
 5732              	.LBB1278:
  57:lcd.c         ****    queue[w++]=dat;                        //...If/when not then store data...
 5733              		.loc 1 57 17
 5734 1094 93F6F60F 		andi	a3,a3,255
 5735              	.LBE1278:
 5736              	.LBE1282:
 5737              	.LBE1287:
 5738              	.LBB1288:
 5739              	.LBB1270:
 5740              	.LBB1266:
  58:lcd.c         ****    w%=256;                                //...and advance write index!
 5741              		.loc 1 58 14
 5742 1098 1307E010 		li	a4,270
 5743 109c 98C1     		sw	a4,0(a1)
  59:lcd.c         **** }
 5744              		.loc 1 59 4 is_stmt 1
  59:lcd.c         **** }
 5745              		.loc 1 59 5 is_stmt 0
 5746 109e 10C0     		sw	a2,0(s0)
 5747              	.LVL232:
 5748              	.LBE1266:
 5749              	.LBE1270:
 5750              	.LBE1288:
 281:lcd.c         **** 
 5751              		.loc 1 281 2 is_stmt 1
  92:lcd.c         **** }
 5752              		.loc 1 92 5
 5753              	.LBB1289:
 5754              	.LBB1283:
 5755              	.LBB1279:
GAS LISTING /tmp/ccIfjRGV.s 			page 136


  57:lcd.c         ****    queue[w++]=dat;                        //...If/when not then store data...
 5756              		.loc 1 57 4
  57:lcd.c         ****    queue[w++]=dat;                        //...If/when not then store data...
 5757              		.loc 1 57 17 is_stmt 0
 5758 10a0 898E     		sub	a3,a3,a0
  57:lcd.c         ****    queue[w++]=dat;                        //...If/when not then store data...
 5759              		.loc 1 57 10
 5760 10a2 6395F602 		bne	a3,a5,.L210
 5761              	.L211:
  57:lcd.c         ****    queue[w++]=dat;                        //...If/when not then store data...
 5762              		.loc 1 57 27 is_stmt 1
 5763 10a6 97000000 		call	LCD_WR_Queue
 5763      E7800000 
 5764              	.LVL233:
  57:lcd.c         ****    queue[w++]=dat;                        //...If/when not then store data...
 5765              		.loc 1 57 14 is_stmt 0
 5766 10ae 1040     		lw	a2,0(s0)
  57:lcd.c         ****    queue[w++]=dat;                        //...If/when not then store data...
 5767              		.loc 1 57 22
 5768 10b0 9C40     		lw	a5,0(s1)
  57:lcd.c         ****    queue[w++]=dat;                        //...If/when not then store data...
 5769              		.loc 1 57 14
 5770 10b2 13071600 		addi	a4,a2,1
  57:lcd.c         ****    queue[w++]=dat;                        //...If/when not then store data...
 5771              		.loc 1 57 17
 5772 10b6 9356F741 		srai	a3,a4,31
 5773 10ba 93D58601 		srli	a1,a3,24
 5774 10be B306B700 		add	a3,a4,a1
 5775 10c2 93F6F60F 		andi	a3,a3,255
 5776 10c6 8D8E     		sub	a3,a3,a1
  57:lcd.c         ****    queue[w++]=dat;                        //...If/when not then store data...
 5777              		.loc 1 57 10
 5778 10c8 E38FF6FC 		beq	a3,a5,.L211
 5779              	.L210:
  58:lcd.c         ****    w%=256;                                //...and advance write index!
 5780              		.loc 1 58 4 is_stmt 1
 5781              	.LBE1279:
 5782              	.LBE1283:
 5783              	.LBE1289:
 5784              	.LBB1290:
 5785              	.LBB1291:
 5786              	.LBB1292:
  57:lcd.c         ****    queue[w++]=dat;                        //...If/when not then store data...
 5787              		.loc 1 57 14 is_stmt 0
 5788 10cc 13871600 		addi	a4,a3,1
  57:lcd.c         ****    queue[w++]=dat;                        //...If/when not then store data...
 5789              		.loc 1 57 17
 5790 10d0 9355F741 		srai	a1,a4,31
 5791 10d4 13D58501 		srli	a0,a1,24
 5792 10d8 B305A700 		add	a1,a4,a0
 5793              	.LBE1292:
 5794              	.LBE1291:
 5795              	.LBE1290:
 5796              	.LBB1301:
 5797              	.LBB1284:
 5798              	.LBB1280:
  58:lcd.c         ****    w%=256;                                //...and advance write index!
GAS LISTING /tmp/ccIfjRGV.s 			page 137


 5799              		.loc 1 58 14
 5800 10dc 0A06     		slli	a2,a2,2
 5801 10de 4A96     		add	a2,s2,a2
 5802              	.LBE1280:
 5803              	.LBE1284:
 5804              	.LBE1301:
 5805              	.LBB1302:
 5806              	.LBB1297:
 5807              	.LBB1293:
  57:lcd.c         ****    queue[w++]=dat;                        //...If/when not then store data...
 5808              		.loc 1 57 17
 5809 10e0 93F5F50F 		andi	a1,a1,255
 5810              	.LBE1293:
 5811              	.LBE1297:
 5812              	.LBE1302:
 5813              	.LBB1303:
 5814              	.LBB1285:
 5815              	.LBB1281:
  58:lcd.c         ****    w%=256;                                //...and advance write index!
 5816              		.loc 1 58 14
 5817 10e4 13070011 		li	a4,272
 5818 10e8 18C2     		sw	a4,0(a2)
  59:lcd.c         **** }
 5819              		.loc 1 59 4 is_stmt 1
  59:lcd.c         **** }
 5820              		.loc 1 59 5 is_stmt 0
 5821 10ea 14C0     		sw	a3,0(s0)
 5822              	.LVL234:
 5823              	.LBE1281:
 5824              	.LBE1285:
 5825              	.LBE1303:
 283:lcd.c         **** 	LCD_WR_DATA8(0x10);
 5826              		.loc 1 283 2 is_stmt 1
 120:lcd.c         **** }
 5827              		.loc 1 120 5
 5828              	.LBB1304:
 5829              	.LBB1298:
 5830              	.LBB1294:
  57:lcd.c         ****    queue[w++]=dat;                        //...If/when not then store data...
 5831              		.loc 1 57 4
  57:lcd.c         ****    queue[w++]=dat;                        //...If/when not then store data...
 5832              		.loc 1 57 17 is_stmt 0
 5833 10ec 898D     		sub	a1,a1,a0
  57:lcd.c         ****    queue[w++]=dat;                        //...If/when not then store data...
 5834              		.loc 1 57 10
 5835 10ee 6395F502 		bne	a1,a5,.L212
 5836              	.L213:
  57:lcd.c         ****    queue[w++]=dat;                        //...If/when not then store data...
 5837              		.loc 1 57 27 is_stmt 1
 5838 10f2 97000000 		call	LCD_WR_Queue
 5838      E7800000 
 5839              	.LVL235:
  57:lcd.c         ****    queue[w++]=dat;                        //...If/when not then store data...
 5840              		.loc 1 57 14 is_stmt 0
 5841 10fa 1440     		lw	a3,0(s0)
  57:lcd.c         ****    queue[w++]=dat;                        //...If/when not then store data...
 5842              		.loc 1 57 22
GAS LISTING /tmp/ccIfjRGV.s 			page 138


 5843 10fc 9C40     		lw	a5,0(s1)
  57:lcd.c         ****    queue[w++]=dat;                        //...If/when not then store data...
 5844              		.loc 1 57 14
 5845 10fe 13871600 		addi	a4,a3,1
  57:lcd.c         ****    queue[w++]=dat;                        //...If/when not then store data...
 5846              		.loc 1 57 17
 5847 1102 9355F741 		srai	a1,a4,31
 5848 1106 13D68501 		srli	a2,a1,24
 5849 110a B305C700 		add	a1,a4,a2
 5850 110e 93F5F50F 		andi	a1,a1,255
 5851 1112 918D     		sub	a1,a1,a2
  57:lcd.c         ****    queue[w++]=dat;                        //...If/when not then store data...
 5852              		.loc 1 57 10
 5853 1114 E38FF5FC 		beq	a1,a5,.L213
 5854              	.L212:
  58:lcd.c         ****    w%=256;                                //...and advance write index!
 5855              		.loc 1 58 4 is_stmt 1
 5856              	.LBE1294:
 5857              	.LBE1298:
 5858              	.LBE1304:
 5859              	.LBB1305:
 5860              	.LBB1306:
 5861              	.LBB1307:
  57:lcd.c         ****    queue[w++]=dat;                        //...If/when not then store data...
 5862              		.loc 1 57 14 is_stmt 0
 5863 1118 13871500 		addi	a4,a1,1
  57:lcd.c         ****    queue[w++]=dat;                        //...If/when not then store data...
 5864              		.loc 1 57 17
 5865 111c 1356F741 		srai	a2,a4,31
 5866 1120 13558601 		srli	a0,a2,24
 5867 1124 3306A700 		add	a2,a4,a0
 5868              	.LBE1307:
 5869              	.LBE1306:
 5870              	.LBE1305:
 5871              	.LBB1316:
 5872              	.LBB1299:
 5873              	.LBB1295:
  58:lcd.c         ****    w%=256;                                //...and advance write index!
 5874              		.loc 1 58 14
 5875 1128 8A06     		slli	a3,a3,2
 5876 112a CA96     		add	a3,s2,a3
 5877              	.LBE1295:
 5878              	.LBE1299:
 5879              	.LBE1316:
 5880              	.LBB1317:
 5881              	.LBB1312:
 5882              	.LBB1308:
  57:lcd.c         ****    queue[w++]=dat;                        //...If/when not then store data...
 5883              		.loc 1 57 17
 5884 112c 1376F60F 		andi	a2,a2,255
 5885              	.LBE1308:
 5886              	.LBE1312:
 5887              	.LBE1317:
 5888              	.LBB1318:
 5889              	.LBB1300:
 5890              	.LBB1296:
  58:lcd.c         ****    w%=256;                                //...and advance write index!
GAS LISTING /tmp/ccIfjRGV.s 			page 139


 5891              		.loc 1 58 14
 5892 1130 1307100E 		li	a4,225
 5893 1134 98C2     		sw	a4,0(a3)
  59:lcd.c         **** }
 5894              		.loc 1 59 4 is_stmt 1
  59:lcd.c         **** }
 5895              		.loc 1 59 5 is_stmt 0
 5896 1136 0CC0     		sw	a1,0(s0)
 5897              	.LVL236:
 5898              	.LBE1296:
 5899              	.LBE1300:
 5900              	.LBE1318:
 284:lcd.c         **** 	LCD_WR_DATA8(0x0E);
 5901              		.loc 1 284 2 is_stmt 1
  92:lcd.c         **** }
 5902              		.loc 1 92 5
 5903              	.LBB1319:
 5904              	.LBB1313:
 5905              	.LBB1309:
  57:lcd.c         ****    queue[w++]=dat;                        //...If/when not then store data...
 5906              		.loc 1 57 4
  57:lcd.c         ****    queue[w++]=dat;                        //...If/when not then store data...
 5907              		.loc 1 57 17 is_stmt 0
 5908 1138 098E     		sub	a2,a2,a0
  57:lcd.c         ****    queue[w++]=dat;                        //...If/when not then store data...
 5909              		.loc 1 57 10
 5910 113a 6315F602 		bne	a2,a5,.L214
 5911              	.L215:
  57:lcd.c         ****    queue[w++]=dat;                        //...If/when not then store data...
 5912              		.loc 1 57 27 is_stmt 1
 5913 113e 97000000 		call	LCD_WR_Queue
 5913      E7800000 
 5914              	.LVL237:
  57:lcd.c         ****    queue[w++]=dat;                        //...If/when not then store data...
 5915              		.loc 1 57 14 is_stmt 0
 5916 1146 0C40     		lw	a1,0(s0)
  57:lcd.c         ****    queue[w++]=dat;                        //...If/when not then store data...
 5917              		.loc 1 57 22
 5918 1148 9C40     		lw	a5,0(s1)
  57:lcd.c         ****    queue[w++]=dat;                        //...If/when not then store data...
 5919              		.loc 1 57 14
 5920 114a 13871500 		addi	a4,a1,1
  57:lcd.c         ****    queue[w++]=dat;                        //...If/when not then store data...
 5921              		.loc 1 57 17
 5922 114e 1356F741 		srai	a2,a4,31
 5923 1152 93568601 		srli	a3,a2,24
 5924 1156 3306D700 		add	a2,a4,a3
 5925 115a 1376F60F 		andi	a2,a2,255
 5926 115e 158E     		sub	a2,a2,a3
  57:lcd.c         ****    queue[w++]=dat;                        //...If/when not then store data...
 5927              		.loc 1 57 10
 5928 1160 E30FF6FC 		beq	a2,a5,.L215
 5929              	.L214:
  58:lcd.c         ****    w%=256;                                //...and advance write index!
 5930              		.loc 1 58 4 is_stmt 1
 5931              	.LBE1309:
 5932              	.LBE1313:
GAS LISTING /tmp/ccIfjRGV.s 			page 140


 5933              	.LBE1319:
 5934              	.LBB1320:
 5935              	.LBB1321:
 5936              	.LBB1322:
  57:lcd.c         ****    queue[w++]=dat;                        //...If/when not then store data...
 5937              		.loc 1 57 14 is_stmt 0
 5938 1164 13071600 		addi	a4,a2,1
  57:lcd.c         ****    queue[w++]=dat;                        //...If/when not then store data...
 5939              		.loc 1 57 17
 5940 1168 9356F741 		srai	a3,a4,31
 5941 116c 13D58601 		srli	a0,a3,24
 5942 1170 B306A700 		add	a3,a4,a0
 5943              	.LBE1322:
 5944              	.LBE1321:
 5945              	.LBE1320:
 5946              	.LBB1331:
 5947              	.LBB1314:
 5948              	.LBB1310:
  58:lcd.c         ****    w%=256;                                //...and advance write index!
 5949              		.loc 1 58 14
 5950 1174 8A05     		slli	a1,a1,2
 5951 1176 CA95     		add	a1,s2,a1
 5952              	.LBE1310:
 5953              	.LBE1314:
 5954              	.LBE1331:
 5955              	.LBB1332:
 5956              	.LBB1327:
 5957              	.LBB1323:
  57:lcd.c         ****    queue[w++]=dat;                        //...If/when not then store data...
 5958              		.loc 1 57 17
 5959 1178 93F6F60F 		andi	a3,a3,255
 5960              	.LBE1323:
 5961              	.LBE1327:
 5962              	.LBE1332:
 5963              	.LBB1333:
 5964              	.LBB1315:
 5965              	.LBB1311:
  58:lcd.c         ****    w%=256;                                //...and advance write index!
 5966              		.loc 1 58 14
 5967 117c 13070011 		li	a4,272
 5968 1180 98C1     		sw	a4,0(a1)
  59:lcd.c         **** }
 5969              		.loc 1 59 4 is_stmt 1
  59:lcd.c         **** }
 5970              		.loc 1 59 5 is_stmt 0
 5971 1182 10C0     		sw	a2,0(s0)
 5972              	.LVL238:
 5973              	.LBE1311:
 5974              	.LBE1315:
 5975              	.LBE1333:
 285:lcd.c         **** 	LCD_WR_DATA8(0x03);
 5976              		.loc 1 285 2 is_stmt 1
  92:lcd.c         **** }
 5977              		.loc 1 92 5
 5978              	.LBB1334:
 5979              	.LBB1328:
 5980              	.LBB1324:
GAS LISTING /tmp/ccIfjRGV.s 			page 141


  57:lcd.c         ****    queue[w++]=dat;                        //...If/when not then store data...
 5981              		.loc 1 57 4
  57:lcd.c         ****    queue[w++]=dat;                        //...If/when not then store data...
 5982              		.loc 1 57 17 is_stmt 0
 5983 1184 898E     		sub	a3,a3,a0
  57:lcd.c         ****    queue[w++]=dat;                        //...If/when not then store data...
 5984              		.loc 1 57 10
 5985 1186 6395F602 		bne	a3,a5,.L216
 5986              	.L217:
  57:lcd.c         ****    queue[w++]=dat;                        //...If/when not then store data...
 5987              		.loc 1 57 27 is_stmt 1
 5988 118a 97000000 		call	LCD_WR_Queue
 5988      E7800000 
 5989              	.LVL239:
  57:lcd.c         ****    queue[w++]=dat;                        //...If/when not then store data...
 5990              		.loc 1 57 14 is_stmt 0
 5991 1192 1040     		lw	a2,0(s0)
  57:lcd.c         ****    queue[w++]=dat;                        //...If/when not then store data...
 5992              		.loc 1 57 22
 5993 1194 9C40     		lw	a5,0(s1)
  57:lcd.c         ****    queue[w++]=dat;                        //...If/when not then store data...
 5994              		.loc 1 57 14
 5995 1196 13071600 		addi	a4,a2,1
  57:lcd.c         ****    queue[w++]=dat;                        //...If/when not then store data...
 5996              		.loc 1 57 17
 5997 119a 9356F741 		srai	a3,a4,31
 5998 119e 93D58601 		srli	a1,a3,24
 5999 11a2 B306B700 		add	a3,a4,a1
 6000 11a6 93F6F60F 		andi	a3,a3,255
 6001 11aa 8D8E     		sub	a3,a3,a1
  57:lcd.c         ****    queue[w++]=dat;                        //...If/when not then store data...
 6002              		.loc 1 57 10
 6003 11ac E38FF6FC 		beq	a3,a5,.L217
 6004              	.L216:
  58:lcd.c         ****    w%=256;                                //...and advance write index!
 6005              		.loc 1 58 4 is_stmt 1
 6006              	.LBE1324:
 6007              	.LBE1328:
 6008              	.LBE1334:
 6009              	.LBB1335:
 6010              	.LBB1336:
 6011              	.LBB1337:
  57:lcd.c         ****    queue[w++]=dat;                        //...If/when not then store data...
 6012              		.loc 1 57 14 is_stmt 0
 6013 11b0 13871600 		addi	a4,a3,1
  57:lcd.c         ****    queue[w++]=dat;                        //...If/when not then store data...
 6014              		.loc 1 57 17
 6015 11b4 9355F741 		srai	a1,a4,31
 6016 11b8 13D58501 		srli	a0,a1,24
 6017 11bc B305A700 		add	a1,a4,a0
 6018              	.LBE1337:
 6019              	.LBE1336:
 6020              	.LBE1335:
 6021              	.LBB1346:
 6022              	.LBB1329:
 6023              	.LBB1325:
  58:lcd.c         ****    w%=256;                                //...and advance write index!
GAS LISTING /tmp/ccIfjRGV.s 			page 142


 6024              		.loc 1 58 14
 6025 11c0 0A06     		slli	a2,a2,2
 6026 11c2 4A96     		add	a2,s2,a2
 6027              	.LBE1325:
 6028              	.LBE1329:
 6029              	.LBE1346:
 6030              	.LBB1347:
 6031              	.LBB1342:
 6032              	.LBB1338:
  57:lcd.c         ****    queue[w++]=dat;                        //...If/when not then store data...
 6033              		.loc 1 57 17
 6034 11c4 93F5F50F 		andi	a1,a1,255
 6035              	.LBE1338:
 6036              	.LBE1342:
 6037              	.LBE1347:
 6038              	.LBB1348:
 6039              	.LBB1330:
 6040              	.LBB1326:
  58:lcd.c         ****    w%=256;                                //...and advance write index!
 6041              		.loc 1 58 14
 6042 11c8 1307E010 		li	a4,270
 6043 11cc 18C2     		sw	a4,0(a2)
  59:lcd.c         **** }
 6044              		.loc 1 59 4 is_stmt 1
  59:lcd.c         **** }
 6045              		.loc 1 59 5 is_stmt 0
 6046 11ce 14C0     		sw	a3,0(s0)
 6047              	.LVL240:
 6048              	.LBE1326:
 6049              	.LBE1330:
 6050              	.LBE1348:
 286:lcd.c         **** 	LCD_WR_DATA8(0x03);
 6051              		.loc 1 286 2 is_stmt 1
  92:lcd.c         **** }
 6052              		.loc 1 92 5
 6053              	.LBB1349:
 6054              	.LBB1343:
 6055              	.LBB1339:
  57:lcd.c         ****    queue[w++]=dat;                        //...If/when not then store data...
 6056              		.loc 1 57 4
  57:lcd.c         ****    queue[w++]=dat;                        //...If/when not then store data...
 6057              		.loc 1 57 17 is_stmt 0
 6058 11d0 898D     		sub	a1,a1,a0
  57:lcd.c         ****    queue[w++]=dat;                        //...If/when not then store data...
 6059              		.loc 1 57 10
 6060 11d2 6395F502 		bne	a1,a5,.L218
 6061              	.L219:
  57:lcd.c         ****    queue[w++]=dat;                        //...If/when not then store data...
 6062              		.loc 1 57 27 is_stmt 1
 6063 11d6 97000000 		call	LCD_WR_Queue
 6063      E7800000 
 6064              	.LVL241:
  57:lcd.c         ****    queue[w++]=dat;                        //...If/when not then store data...
 6065              		.loc 1 57 14 is_stmt 0
 6066 11de 1440     		lw	a3,0(s0)
  57:lcd.c         ****    queue[w++]=dat;                        //...If/when not then store data...
 6067              		.loc 1 57 22
GAS LISTING /tmp/ccIfjRGV.s 			page 143


 6068 11e0 9C40     		lw	a5,0(s1)
  57:lcd.c         ****    queue[w++]=dat;                        //...If/when not then store data...
 6069              		.loc 1 57 14
 6070 11e2 13871600 		addi	a4,a3,1
  57:lcd.c         ****    queue[w++]=dat;                        //...If/when not then store data...
 6071              		.loc 1 57 17
 6072 11e6 9355F741 		srai	a1,a4,31
 6073 11ea 13D68501 		srli	a2,a1,24
 6074 11ee B305C700 		add	a1,a4,a2
 6075 11f2 93F5F50F 		andi	a1,a1,255
 6076 11f6 918D     		sub	a1,a1,a2
  57:lcd.c         ****    queue[w++]=dat;                        //...If/when not then store data...
 6077              		.loc 1 57 10
 6078 11f8 E38FF5FC 		beq	a1,a5,.L219
 6079              	.L218:
  58:lcd.c         ****    w%=256;                                //...and advance write index!
 6080              		.loc 1 58 4 is_stmt 1
 6081              	.LBE1339:
 6082              	.LBE1343:
 6083              	.LBE1349:
 6084              	.LBB1350:
 6085              	.LBB1351:
 6086              	.LBB1352:
  57:lcd.c         ****    queue[w++]=dat;                        //...If/when not then store data...
 6087              		.loc 1 57 14 is_stmt 0
 6088 11fc 13871500 		addi	a4,a1,1
  57:lcd.c         ****    queue[w++]=dat;                        //...If/when not then store data...
 6089              		.loc 1 57 17
 6090 1200 1356F741 		srai	a2,a4,31
 6091 1204 13558601 		srli	a0,a2,24
 6092 1208 3306A700 		add	a2,a4,a0
 6093              	.LBE1352:
 6094              	.LBE1351:
 6095              	.LBE1350:
 6096              	.LBB1361:
 6097              	.LBB1344:
 6098              	.LBB1340:
  58:lcd.c         ****    w%=256;                                //...and advance write index!
 6099              		.loc 1 58 14
 6100 120c 8A06     		slli	a3,a3,2
 6101 120e CA96     		add	a3,s2,a3
 6102              	.LBE1340:
 6103              	.LBE1344:
 6104              	.LBE1361:
 6105              	.LBB1362:
 6106              	.LBB1357:
 6107              	.LBB1353:
  57:lcd.c         ****    queue[w++]=dat;                        //...If/when not then store data...
 6108              		.loc 1 57 17
 6109 1210 1376F60F 		andi	a2,a2,255
 6110              	.LBE1353:
 6111              	.LBE1357:
 6112              	.LBE1362:
 6113              	.LBB1363:
 6114              	.LBB1345:
 6115              	.LBB1341:
  58:lcd.c         ****    w%=256;                                //...and advance write index!
GAS LISTING /tmp/ccIfjRGV.s 			page 144


 6116              		.loc 1 58 14
 6117 1214 13073010 		li	a4,259
 6118 1218 98C2     		sw	a4,0(a3)
  59:lcd.c         **** }
 6119              		.loc 1 59 4 is_stmt 1
  59:lcd.c         **** }
 6120              		.loc 1 59 5 is_stmt 0
 6121 121a 0CC0     		sw	a1,0(s0)
 6122              	.LVL242:
 6123              	.LBE1341:
 6124              	.LBE1345:
 6125              	.LBE1363:
 287:lcd.c         **** 	LCD_WR_DATA8(0x0F);
 6126              		.loc 1 287 2 is_stmt 1
  92:lcd.c         **** }
 6127              		.loc 1 92 5
 6128              	.LBB1364:
 6129              	.LBB1358:
 6130              	.LBB1354:
  57:lcd.c         ****    queue[w++]=dat;                        //...If/when not then store data...
 6131              		.loc 1 57 4
  57:lcd.c         ****    queue[w++]=dat;                        //...If/when not then store data...
 6132              		.loc 1 57 17 is_stmt 0
 6133 121c 098E     		sub	a2,a2,a0
  57:lcd.c         ****    queue[w++]=dat;                        //...If/when not then store data...
 6134              		.loc 1 57 10
 6135 121e 6315F602 		bne	a2,a5,.L220
 6136              	.L221:
  57:lcd.c         ****    queue[w++]=dat;                        //...If/when not then store data...
 6137              		.loc 1 57 27 is_stmt 1
 6138 1222 97000000 		call	LCD_WR_Queue
 6138      E7800000 
 6139              	.LVL243:
  57:lcd.c         ****    queue[w++]=dat;                        //...If/when not then store data...
 6140              		.loc 1 57 14 is_stmt 0
 6141 122a 0C40     		lw	a1,0(s0)
  57:lcd.c         ****    queue[w++]=dat;                        //...If/when not then store data...
 6142              		.loc 1 57 22
 6143 122c 9C40     		lw	a5,0(s1)
  57:lcd.c         ****    queue[w++]=dat;                        //...If/when not then store data...
 6144              		.loc 1 57 14
 6145 122e 13871500 		addi	a4,a1,1
  57:lcd.c         ****    queue[w++]=dat;                        //...If/when not then store data...
 6146              		.loc 1 57 17
 6147 1232 1356F741 		srai	a2,a4,31
 6148 1236 93568601 		srli	a3,a2,24
 6149 123a 3306D700 		add	a2,a4,a3
 6150 123e 1376F60F 		andi	a2,a2,255
 6151 1242 158E     		sub	a2,a2,a3
  57:lcd.c         ****    queue[w++]=dat;                        //...If/when not then store data...
 6152              		.loc 1 57 10
 6153 1244 E30FF6FC 		beq	a2,a5,.L221
 6154              	.L220:
  58:lcd.c         ****    w%=256;                                //...and advance write index!
 6155              		.loc 1 58 4 is_stmt 1
 6156              	.LBE1354:
 6157              	.LBE1358:
GAS LISTING /tmp/ccIfjRGV.s 			page 145


 6158              	.LBE1364:
 6159              	.LBB1365:
 6160              	.LBB1366:
 6161              	.LBB1367:
  57:lcd.c         ****    queue[w++]=dat;                        //...If/when not then store data...
 6162              		.loc 1 57 14 is_stmt 0
 6163 1248 13071600 		addi	a4,a2,1
  57:lcd.c         ****    queue[w++]=dat;                        //...If/when not then store data...
 6164              		.loc 1 57 17
 6165 124c 9356F741 		srai	a3,a4,31
 6166 1250 13D58601 		srli	a0,a3,24
 6167 1254 B306A700 		add	a3,a4,a0
 6168              	.LBE1367:
 6169              	.LBE1366:
 6170              	.LBE1365:
 6171              	.LBB1376:
 6172              	.LBB1359:
 6173              	.LBB1355:
  58:lcd.c         ****    w%=256;                                //...and advance write index!
 6174              		.loc 1 58 14
 6175 1258 8A05     		slli	a1,a1,2
 6176 125a CA95     		add	a1,s2,a1
 6177              	.LBE1355:
 6178              	.LBE1359:
 6179              	.LBE1376:
 6180              	.LBB1377:
 6181              	.LBB1372:
 6182              	.LBB1368:
  57:lcd.c         ****    queue[w++]=dat;                        //...If/when not then store data...
 6183              		.loc 1 57 17
 6184 125c 93F6F60F 		andi	a3,a3,255
 6185              	.LBE1368:
 6186              	.LBE1372:
 6187              	.LBE1377:
 6188              	.LBB1378:
 6189              	.LBB1360:
 6190              	.LBB1356:
  58:lcd.c         ****    w%=256;                                //...and advance write index!
 6191              		.loc 1 58 14
 6192 1260 13073010 		li	a4,259
 6193 1264 98C1     		sw	a4,0(a1)
  59:lcd.c         **** }
 6194              		.loc 1 59 4 is_stmt 1
  59:lcd.c         **** }
 6195              		.loc 1 59 5 is_stmt 0
 6196 1266 10C0     		sw	a2,0(s0)
 6197              	.LVL244:
 6198              	.LBE1356:
 6199              	.LBE1360:
 6200              	.LBE1378:
 288:lcd.c         **** 	LCD_WR_DATA8(0x06);
 6201              		.loc 1 288 2 is_stmt 1
  92:lcd.c         **** }
 6202              		.loc 1 92 5
 6203              	.LBB1379:
 6204              	.LBB1373:
 6205              	.LBB1369:
GAS LISTING /tmp/ccIfjRGV.s 			page 146


  57:lcd.c         ****    queue[w++]=dat;                        //...If/when not then store data...
 6206              		.loc 1 57 4
  57:lcd.c         ****    queue[w++]=dat;                        //...If/when not then store data...
 6207              		.loc 1 57 17 is_stmt 0
 6208 1268 898E     		sub	a3,a3,a0
  57:lcd.c         ****    queue[w++]=dat;                        //...If/when not then store data...
 6209              		.loc 1 57 10
 6210 126a 6395F602 		bne	a3,a5,.L222
 6211              	.L223:
  57:lcd.c         ****    queue[w++]=dat;                        //...If/when not then store data...
 6212              		.loc 1 57 27 is_stmt 1
 6213 126e 97000000 		call	LCD_WR_Queue
 6213      E7800000 
 6214              	.LVL245:
  57:lcd.c         ****    queue[w++]=dat;                        //...If/when not then store data...
 6215              		.loc 1 57 14 is_stmt 0
 6216 1276 1040     		lw	a2,0(s0)
  57:lcd.c         ****    queue[w++]=dat;                        //...If/when not then store data...
 6217              		.loc 1 57 22
 6218 1278 9C40     		lw	a5,0(s1)
  57:lcd.c         ****    queue[w++]=dat;                        //...If/when not then store data...
 6219              		.loc 1 57 14
 6220 127a 13071600 		addi	a4,a2,1
  57:lcd.c         ****    queue[w++]=dat;                        //...If/when not then store data...
 6221              		.loc 1 57 17
 6222 127e 9356F741 		srai	a3,a4,31
 6223 1282 93D58601 		srli	a1,a3,24
 6224 1286 B306B700 		add	a3,a4,a1
 6225 128a 93F6F60F 		andi	a3,a3,255
 6226 128e 8D8E     		sub	a3,a3,a1
  57:lcd.c         ****    queue[w++]=dat;                        //...If/when not then store data...
 6227              		.loc 1 57 10
 6228 1290 E38FF6FC 		beq	a3,a5,.L223
 6229              	.L222:
  58:lcd.c         ****    w%=256;                                //...and advance write index!
 6230              		.loc 1 58 4 is_stmt 1
 6231              	.LBE1369:
 6232              	.LBE1373:
 6233              	.LBE1379:
 6234              	.LBB1380:
 6235              	.LBB1381:
 6236              	.LBB1382:
  57:lcd.c         ****    queue[w++]=dat;                        //...If/when not then store data...
 6237              		.loc 1 57 14 is_stmt 0
 6238 1294 13871600 		addi	a4,a3,1
  57:lcd.c         ****    queue[w++]=dat;                        //...If/when not then store data...
 6239              		.loc 1 57 17
 6240 1298 9355F741 		srai	a1,a4,31
 6241 129c 13D58501 		srli	a0,a1,24
 6242 12a0 B305A700 		add	a1,a4,a0
 6243              	.LBE1382:
 6244              	.LBE1381:
 6245              	.LBE1380:
 6246              	.LBB1391:
 6247              	.LBB1374:
 6248              	.LBB1370:
  58:lcd.c         ****    w%=256;                                //...and advance write index!
GAS LISTING /tmp/ccIfjRGV.s 			page 147


 6249              		.loc 1 58 14
 6250 12a4 0A06     		slli	a2,a2,2
 6251 12a6 4A96     		add	a2,s2,a2
 6252              	.LBE1370:
 6253              	.LBE1374:
 6254              	.LBE1391:
 6255              	.LBB1392:
 6256              	.LBB1387:
 6257              	.LBB1383:
  57:lcd.c         ****    queue[w++]=dat;                        //...If/when not then store data...
 6258              		.loc 1 57 17
 6259 12a8 93F5F50F 		andi	a1,a1,255
 6260              	.LBE1383:
 6261              	.LBE1387:
 6262              	.LBE1392:
 6263              	.LBB1393:
 6264              	.LBB1375:
 6265              	.LBB1371:
  58:lcd.c         ****    w%=256;                                //...and advance write index!
 6266              		.loc 1 58 14
 6267 12ac 1307F010 		li	a4,271
 6268 12b0 18C2     		sw	a4,0(a2)
  59:lcd.c         **** }
 6269              		.loc 1 59 4 is_stmt 1
  59:lcd.c         **** }
 6270              		.loc 1 59 5 is_stmt 0
 6271 12b2 14C0     		sw	a3,0(s0)
 6272              	.LVL246:
 6273              	.LBE1371:
 6274              	.LBE1375:
 6275              	.LBE1393:
 289:lcd.c         **** 	LCD_WR_DATA8(0x02);
 6276              		.loc 1 289 2 is_stmt 1
  92:lcd.c         **** }
 6277              		.loc 1 92 5
 6278              	.LBB1394:
 6279              	.LBB1388:
 6280              	.LBB1384:
  57:lcd.c         ****    queue[w++]=dat;                        //...If/when not then store data...
 6281              		.loc 1 57 4
  57:lcd.c         ****    queue[w++]=dat;                        //...If/when not then store data...
 6282              		.loc 1 57 17 is_stmt 0
 6283 12b4 898D     		sub	a1,a1,a0
  57:lcd.c         ****    queue[w++]=dat;                        //...If/when not then store data...
 6284              		.loc 1 57 10
 6285 12b6 6395F502 		bne	a1,a5,.L224
 6286              	.L225:
  57:lcd.c         ****    queue[w++]=dat;                        //...If/when not then store data...
 6287              		.loc 1 57 27 is_stmt 1
 6288 12ba 97000000 		call	LCD_WR_Queue
 6288      E7800000 
 6289              	.LVL247:
  57:lcd.c         ****    queue[w++]=dat;                        //...If/when not then store data...
 6290              		.loc 1 57 14 is_stmt 0
 6291 12c2 1440     		lw	a3,0(s0)
  57:lcd.c         ****    queue[w++]=dat;                        //...If/when not then store data...
 6292              		.loc 1 57 22
GAS LISTING /tmp/ccIfjRGV.s 			page 148


 6293 12c4 9C40     		lw	a5,0(s1)
  57:lcd.c         ****    queue[w++]=dat;                        //...If/when not then store data...
 6294              		.loc 1 57 14
 6295 12c6 13871600 		addi	a4,a3,1
  57:lcd.c         ****    queue[w++]=dat;                        //...If/when not then store data...
 6296              		.loc 1 57 17
 6297 12ca 9355F741 		srai	a1,a4,31
 6298 12ce 13D68501 		srli	a2,a1,24
 6299 12d2 B305C700 		add	a1,a4,a2
 6300 12d6 93F5F50F 		andi	a1,a1,255
 6301 12da 918D     		sub	a1,a1,a2
  57:lcd.c         ****    queue[w++]=dat;                        //...If/when not then store data...
 6302              		.loc 1 57 10
 6303 12dc E38FF5FC 		beq	a1,a5,.L225
 6304              	.L224:
  58:lcd.c         ****    w%=256;                                //...and advance write index!
 6305              		.loc 1 58 4 is_stmt 1
 6306              	.LBE1384:
 6307              	.LBE1388:
 6308              	.LBE1394:
 6309              	.LBB1395:
 6310              	.LBB1396:
 6311              	.LBB1397:
  57:lcd.c         ****    queue[w++]=dat;                        //...If/when not then store data...
 6312              		.loc 1 57 14 is_stmt 0
 6313 12e0 13871500 		addi	a4,a1,1
  57:lcd.c         ****    queue[w++]=dat;                        //...If/when not then store data...
 6314              		.loc 1 57 17
 6315 12e4 1356F741 		srai	a2,a4,31
 6316 12e8 13558601 		srli	a0,a2,24
 6317 12ec 3306A700 		add	a2,a4,a0
 6318              	.LBE1397:
 6319              	.LBE1396:
 6320              	.LBE1395:
 6321              	.LBB1406:
 6322              	.LBB1389:
 6323              	.LBB1385:
  58:lcd.c         ****    w%=256;                                //...and advance write index!
 6324              		.loc 1 58 14
 6325 12f0 8A06     		slli	a3,a3,2
 6326 12f2 CA96     		add	a3,s2,a3
 6327              	.LBE1385:
 6328              	.LBE1389:
 6329              	.LBE1406:
 6330              	.LBB1407:
 6331              	.LBB1402:
 6332              	.LBB1398:
  57:lcd.c         ****    queue[w++]=dat;                        //...If/when not then store data...
 6333              		.loc 1 57 17
 6334 12f4 1376F60F 		andi	a2,a2,255
 6335              	.LBE1398:
 6336              	.LBE1402:
 6337              	.LBE1407:
 6338              	.LBB1408:
 6339              	.LBB1390:
 6340              	.LBB1386:
  58:lcd.c         ****    w%=256;                                //...and advance write index!
GAS LISTING /tmp/ccIfjRGV.s 			page 149


 6341              		.loc 1 58 14
 6342 12f8 13076010 		li	a4,262
 6343 12fc 98C2     		sw	a4,0(a3)
  59:lcd.c         **** }
 6344              		.loc 1 59 4 is_stmt 1
  59:lcd.c         **** }
 6345              		.loc 1 59 5 is_stmt 0
 6346 12fe 0CC0     		sw	a1,0(s0)
 6347              	.LVL248:
 6348              	.LBE1386:
 6349              	.LBE1390:
 6350              	.LBE1408:
 290:lcd.c         **** 	LCD_WR_DATA8(0x08);
 6351              		.loc 1 290 2 is_stmt 1
  92:lcd.c         **** }
 6352              		.loc 1 92 5
 6353              	.LBB1409:
 6354              	.LBB1403:
 6355              	.LBB1399:
  57:lcd.c         ****    queue[w++]=dat;                        //...If/when not then store data...
 6356              		.loc 1 57 4
  57:lcd.c         ****    queue[w++]=dat;                        //...If/when not then store data...
 6357              		.loc 1 57 17 is_stmt 0
 6358 1300 098E     		sub	a2,a2,a0
  57:lcd.c         ****    queue[w++]=dat;                        //...If/when not then store data...
 6359              		.loc 1 57 10
 6360 1302 6315F602 		bne	a2,a5,.L226
 6361              	.L227:
  57:lcd.c         ****    queue[w++]=dat;                        //...If/when not then store data...
 6362              		.loc 1 57 27 is_stmt 1
 6363 1306 97000000 		call	LCD_WR_Queue
 6363      E7800000 
 6364              	.LVL249:
  57:lcd.c         ****    queue[w++]=dat;                        //...If/when not then store data...
 6365              		.loc 1 57 14 is_stmt 0
 6366 130e 0C40     		lw	a1,0(s0)
  57:lcd.c         ****    queue[w++]=dat;                        //...If/when not then store data...
 6367              		.loc 1 57 22
 6368 1310 9C40     		lw	a5,0(s1)
  57:lcd.c         ****    queue[w++]=dat;                        //...If/when not then store data...
 6369              		.loc 1 57 14
 6370 1312 13871500 		addi	a4,a1,1
  57:lcd.c         ****    queue[w++]=dat;                        //...If/when not then store data...
 6371              		.loc 1 57 17
 6372 1316 1356F741 		srai	a2,a4,31
 6373 131a 93568601 		srli	a3,a2,24
 6374 131e 3306D700 		add	a2,a4,a3
 6375 1322 1376F60F 		andi	a2,a2,255
 6376 1326 158E     		sub	a2,a2,a3
  57:lcd.c         ****    queue[w++]=dat;                        //...If/when not then store data...
 6377              		.loc 1 57 10
 6378 1328 E30FF6FC 		beq	a2,a5,.L227
 6379              	.L226:
  58:lcd.c         ****    w%=256;                                //...and advance write index!
 6380              		.loc 1 58 4 is_stmt 1
 6381              	.LBE1399:
 6382              	.LBE1403:
GAS LISTING /tmp/ccIfjRGV.s 			page 150


 6383              	.LBE1409:
 6384              	.LBB1410:
 6385              	.LBB1411:
 6386              	.LBB1412:
  57:lcd.c         ****    queue[w++]=dat;                        //...If/when not then store data...
 6387              		.loc 1 57 14 is_stmt 0
 6388 132c 13071600 		addi	a4,a2,1
  57:lcd.c         ****    queue[w++]=dat;                        //...If/when not then store data...
 6389              		.loc 1 57 17
 6390 1330 9356F741 		srai	a3,a4,31
 6391 1334 13D58601 		srli	a0,a3,24
 6392 1338 B306A700 		add	a3,a4,a0
 6393              	.LBE1412:
 6394              	.LBE1411:
 6395              	.LBE1410:
 6396              	.LBB1421:
 6397              	.LBB1404:
 6398              	.LBB1400:
  58:lcd.c         ****    w%=256;                                //...and advance write index!
 6399              		.loc 1 58 14
 6400 133c 8A05     		slli	a1,a1,2
 6401 133e CA95     		add	a1,s2,a1
 6402              	.LBE1400:
 6403              	.LBE1404:
 6404              	.LBE1421:
 6405              	.LBB1422:
 6406              	.LBB1417:
 6407              	.LBB1413:
  57:lcd.c         ****    queue[w++]=dat;                        //...If/when not then store data...
 6408              		.loc 1 57 17
 6409 1340 93F6F60F 		andi	a3,a3,255
 6410              	.LBE1413:
 6411              	.LBE1417:
 6412              	.LBE1422:
 6413              	.LBB1423:
 6414              	.LBB1405:
 6415              	.LBB1401:
  58:lcd.c         ****    w%=256;                                //...and advance write index!
 6416              		.loc 1 58 14
 6417 1344 13072010 		li	a4,258
 6418 1348 98C1     		sw	a4,0(a1)
  59:lcd.c         **** }
 6419              		.loc 1 59 4 is_stmt 1
  59:lcd.c         **** }
 6420              		.loc 1 59 5 is_stmt 0
 6421 134a 10C0     		sw	a2,0(s0)
 6422              	.LVL250:
 6423              	.LBE1401:
 6424              	.LBE1405:
 6425              	.LBE1423:
 291:lcd.c         **** 	LCD_WR_DATA8(0x0A);
 6426              		.loc 1 291 2 is_stmt 1
  92:lcd.c         **** }
 6427              		.loc 1 92 5
 6428              	.LBB1424:
 6429              	.LBB1418:
 6430              	.LBB1414:
GAS LISTING /tmp/ccIfjRGV.s 			page 151


  57:lcd.c         ****    queue[w++]=dat;                        //...If/when not then store data...
 6431              		.loc 1 57 4
  57:lcd.c         ****    queue[w++]=dat;                        //...If/when not then store data...
 6432              		.loc 1 57 17 is_stmt 0
 6433 134c 898E     		sub	a3,a3,a0
  57:lcd.c         ****    queue[w++]=dat;                        //...If/when not then store data...
 6434              		.loc 1 57 10
 6435 134e 6395F602 		bne	a3,a5,.L228
 6436              	.L229:
  57:lcd.c         ****    queue[w++]=dat;                        //...If/when not then store data...
 6437              		.loc 1 57 27 is_stmt 1
 6438 1352 97000000 		call	LCD_WR_Queue
 6438      E7800000 
 6439              	.LVL251:
  57:lcd.c         ****    queue[w++]=dat;                        //...If/when not then store data...
 6440              		.loc 1 57 14 is_stmt 0
 6441 135a 1040     		lw	a2,0(s0)
  57:lcd.c         ****    queue[w++]=dat;                        //...If/when not then store data...
 6442              		.loc 1 57 22
 6443 135c 9C40     		lw	a5,0(s1)
  57:lcd.c         ****    queue[w++]=dat;                        //...If/when not then store data...
 6444              		.loc 1 57 14
 6445 135e 13071600 		addi	a4,a2,1
  57:lcd.c         ****    queue[w++]=dat;                        //...If/when not then store data...
 6446              		.loc 1 57 17
 6447 1362 9356F741 		srai	a3,a4,31
 6448 1366 93D58601 		srli	a1,a3,24
 6449 136a B306B700 		add	a3,a4,a1
 6450 136e 93F6F60F 		andi	a3,a3,255
 6451 1372 8D8E     		sub	a3,a3,a1
  57:lcd.c         ****    queue[w++]=dat;                        //...If/when not then store data...
 6452              		.loc 1 57 10
 6453 1374 E38FF6FC 		beq	a3,a5,.L229
 6454              	.L228:
  58:lcd.c         ****    w%=256;                                //...and advance write index!
 6455              		.loc 1 58 4 is_stmt 1
 6456              	.LBE1414:
 6457              	.LBE1418:
 6458              	.LBE1424:
 6459              	.LBB1425:
 6460              	.LBB1426:
 6461              	.LBB1427:
  57:lcd.c         ****    queue[w++]=dat;                        //...If/when not then store data...
 6462              		.loc 1 57 14 is_stmt 0
 6463 1378 13871600 		addi	a4,a3,1
  57:lcd.c         ****    queue[w++]=dat;                        //...If/when not then store data...
 6464              		.loc 1 57 17
 6465 137c 9355F741 		srai	a1,a4,31
 6466 1380 13D58501 		srli	a0,a1,24
 6467 1384 B305A700 		add	a1,a4,a0
 6468              	.LBE1427:
 6469              	.LBE1426:
 6470              	.LBE1425:
 6471              	.LBB1436:
 6472              	.LBB1419:
 6473              	.LBB1415:
  58:lcd.c         ****    w%=256;                                //...and advance write index!
GAS LISTING /tmp/ccIfjRGV.s 			page 152


 6474              		.loc 1 58 14
 6475 1388 0A06     		slli	a2,a2,2
 6476 138a 4A96     		add	a2,s2,a2
 6477              	.LBE1415:
 6478              	.LBE1419:
 6479              	.LBE1436:
 6480              	.LBB1437:
 6481              	.LBB1432:
 6482              	.LBB1428:
  57:lcd.c         ****    queue[w++]=dat;                        //...If/when not then store data...
 6483              		.loc 1 57 17
 6484 138c 93F5F50F 		andi	a1,a1,255
 6485              	.LBE1428:
 6486              	.LBE1432:
 6487              	.LBE1437:
 6488              	.LBB1438:
 6489              	.LBB1420:
 6490              	.LBB1416:
  58:lcd.c         ****    w%=256;                                //...and advance write index!
 6491              		.loc 1 58 14
 6492 1390 13078010 		li	a4,264
 6493 1394 18C2     		sw	a4,0(a2)
  59:lcd.c         **** }
 6494              		.loc 1 59 4 is_stmt 1
  59:lcd.c         **** }
 6495              		.loc 1 59 5 is_stmt 0
 6496 1396 14C0     		sw	a3,0(s0)
 6497              	.LVL252:
 6498              	.LBE1416:
 6499              	.LBE1420:
 6500              	.LBE1438:
 292:lcd.c         **** 	LCD_WR_DATA8(0x13);
 6501              		.loc 1 292 2 is_stmt 1
  92:lcd.c         **** }
 6502              		.loc 1 92 5
 6503              	.LBB1439:
 6504              	.LBB1433:
 6505              	.LBB1429:
  57:lcd.c         ****    queue[w++]=dat;                        //...If/when not then store data...
 6506              		.loc 1 57 4
  57:lcd.c         ****    queue[w++]=dat;                        //...If/when not then store data...
 6507              		.loc 1 57 17 is_stmt 0
 6508 1398 898D     		sub	a1,a1,a0
  57:lcd.c         ****    queue[w++]=dat;                        //...If/when not then store data...
 6509              		.loc 1 57 10
 6510 139a 6395F502 		bne	a1,a5,.L230
 6511              	.L231:
  57:lcd.c         ****    queue[w++]=dat;                        //...If/when not then store data...
 6512              		.loc 1 57 27 is_stmt 1
 6513 139e 97000000 		call	LCD_WR_Queue
 6513      E7800000 
 6514              	.LVL253:
  57:lcd.c         ****    queue[w++]=dat;                        //...If/when not then store data...
 6515              		.loc 1 57 14 is_stmt 0
 6516 13a6 1440     		lw	a3,0(s0)
  57:lcd.c         ****    queue[w++]=dat;                        //...If/when not then store data...
 6517              		.loc 1 57 22
GAS LISTING /tmp/ccIfjRGV.s 			page 153


 6518 13a8 9C40     		lw	a5,0(s1)
  57:lcd.c         ****    queue[w++]=dat;                        //...If/when not then store data...
 6519              		.loc 1 57 14
 6520 13aa 13871600 		addi	a4,a3,1
  57:lcd.c         ****    queue[w++]=dat;                        //...If/when not then store data...
 6521              		.loc 1 57 17
 6522 13ae 9355F741 		srai	a1,a4,31
 6523 13b2 13D68501 		srli	a2,a1,24
 6524 13b6 B305C700 		add	a1,a4,a2
 6525 13ba 93F5F50F 		andi	a1,a1,255
 6526 13be 918D     		sub	a1,a1,a2
  57:lcd.c         ****    queue[w++]=dat;                        //...If/when not then store data...
 6527              		.loc 1 57 10
 6528 13c0 E38FF5FC 		beq	a1,a5,.L231
 6529              	.L230:
  58:lcd.c         ****    w%=256;                                //...and advance write index!
 6530              		.loc 1 58 4 is_stmt 1
 6531              	.LBE1429:
 6532              	.LBE1433:
 6533              	.LBE1439:
 6534              	.LBB1440:
 6535              	.LBB1441:
 6536              	.LBB1442:
  57:lcd.c         ****    queue[w++]=dat;                        //...If/when not then store data...
 6537              		.loc 1 57 14 is_stmt 0
 6538 13c4 13871500 		addi	a4,a1,1
  57:lcd.c         ****    queue[w++]=dat;                        //...If/when not then store data...
 6539              		.loc 1 57 17
 6540 13c8 1356F741 		srai	a2,a4,31
 6541 13cc 13558601 		srli	a0,a2,24
 6542 13d0 3306A700 		add	a2,a4,a0
 6543              	.LBE1442:
 6544              	.LBE1441:
 6545              	.LBE1440:
 6546              	.LBB1451:
 6547              	.LBB1434:
 6548              	.LBB1430:
  58:lcd.c         ****    w%=256;                                //...and advance write index!
 6549              		.loc 1 58 14
 6550 13d4 8A06     		slli	a3,a3,2
 6551 13d6 CA96     		add	a3,s2,a3
 6552              	.LBE1430:
 6553              	.LBE1434:
 6554              	.LBE1451:
 6555              	.LBB1452:
 6556              	.LBB1447:
 6557              	.LBB1443:
  57:lcd.c         ****    queue[w++]=dat;                        //...If/when not then store data...
 6558              		.loc 1 57 17
 6559 13d8 1376F60F 		andi	a2,a2,255
 6560              	.LBE1443:
 6561              	.LBE1447:
 6562              	.LBE1452:
 6563              	.LBB1453:
 6564              	.LBB1435:
 6565              	.LBB1431:
  58:lcd.c         ****    w%=256;                                //...and advance write index!
GAS LISTING /tmp/ccIfjRGV.s 			page 154


 6566              		.loc 1 58 14
 6567 13dc 1307A010 		li	a4,266
 6568 13e0 98C2     		sw	a4,0(a3)
  59:lcd.c         **** }
 6569              		.loc 1 59 4 is_stmt 1
  59:lcd.c         **** }
 6570              		.loc 1 59 5 is_stmt 0
 6571 13e2 0CC0     		sw	a1,0(s0)
 6572              	.LVL254:
 6573              	.LBE1431:
 6574              	.LBE1435:
 6575              	.LBE1453:
 293:lcd.c         **** 	LCD_WR_DATA8(0x26);
 6576              		.loc 1 293 2 is_stmt 1
  92:lcd.c         **** }
 6577              		.loc 1 92 5
 6578              	.LBB1454:
 6579              	.LBB1448:
 6580              	.LBB1444:
  57:lcd.c         ****    queue[w++]=dat;                        //...If/when not then store data...
 6581              		.loc 1 57 4
  57:lcd.c         ****    queue[w++]=dat;                        //...If/when not then store data...
 6582              		.loc 1 57 17 is_stmt 0
 6583 13e4 098E     		sub	a2,a2,a0
  57:lcd.c         ****    queue[w++]=dat;                        //...If/when not then store data...
 6584              		.loc 1 57 10
 6585 13e6 6315F602 		bne	a2,a5,.L232
 6586              	.L233:
  57:lcd.c         ****    queue[w++]=dat;                        //...If/when not then store data...
 6587              		.loc 1 57 27 is_stmt 1
 6588 13ea 97000000 		call	LCD_WR_Queue
 6588      E7800000 
 6589              	.LVL255:
  57:lcd.c         ****    queue[w++]=dat;                        //...If/when not then store data...
 6590              		.loc 1 57 14 is_stmt 0
 6591 13f2 0C40     		lw	a1,0(s0)
  57:lcd.c         ****    queue[w++]=dat;                        //...If/when not then store data...
 6592              		.loc 1 57 22
 6593 13f4 9C40     		lw	a5,0(s1)
  57:lcd.c         ****    queue[w++]=dat;                        //...If/when not then store data...
 6594              		.loc 1 57 14
 6595 13f6 13871500 		addi	a4,a1,1
  57:lcd.c         ****    queue[w++]=dat;                        //...If/when not then store data...
 6596              		.loc 1 57 17
 6597 13fa 1356F741 		srai	a2,a4,31
 6598 13fe 93568601 		srli	a3,a2,24
 6599 1402 3306D700 		add	a2,a4,a3
 6600 1406 1376F60F 		andi	a2,a2,255
 6601 140a 158E     		sub	a2,a2,a3
  57:lcd.c         ****    queue[w++]=dat;                        //...If/when not then store data...
 6602              		.loc 1 57 10
 6603 140c E30FF6FC 		beq	a2,a5,.L233
 6604              	.L232:
  58:lcd.c         ****    w%=256;                                //...and advance write index!
 6605              		.loc 1 58 4 is_stmt 1
 6606              	.LBE1444:
 6607              	.LBE1448:
GAS LISTING /tmp/ccIfjRGV.s 			page 155


 6608              	.LBE1454:
 6609              	.LBB1455:
 6610              	.LBB1456:
 6611              	.LBB1457:
  57:lcd.c         ****    queue[w++]=dat;                        //...If/when not then store data...
 6612              		.loc 1 57 14 is_stmt 0
 6613 1410 13071600 		addi	a4,a2,1
  57:lcd.c         ****    queue[w++]=dat;                        //...If/when not then store data...
 6614              		.loc 1 57 17
 6615 1414 9356F741 		srai	a3,a4,31
 6616 1418 13D58601 		srli	a0,a3,24
 6617 141c B306A700 		add	a3,a4,a0
 6618              	.LBE1457:
 6619              	.LBE1456:
 6620              	.LBE1455:
 6621              	.LBB1466:
 6622              	.LBB1449:
 6623              	.LBB1445:
  58:lcd.c         ****    w%=256;                                //...and advance write index!
 6624              		.loc 1 58 14
 6625 1420 8A05     		slli	a1,a1,2
 6626 1422 CA95     		add	a1,s2,a1
 6627              	.LBE1445:
 6628              	.LBE1449:
 6629              	.LBE1466:
 6630              	.LBB1467:
 6631              	.LBB1462:
 6632              	.LBB1458:
  57:lcd.c         ****    queue[w++]=dat;                        //...If/when not then store data...
 6633              		.loc 1 57 17
 6634 1424 93F6F60F 		andi	a3,a3,255
 6635              	.LBE1458:
 6636              	.LBE1462:
 6637              	.LBE1467:
 6638              	.LBB1468:
 6639              	.LBB1450:
 6640              	.LBB1446:
  58:lcd.c         ****    w%=256;                                //...and advance write index!
 6641              		.loc 1 58 14
 6642 1428 13073011 		li	a4,275
 6643 142c 98C1     		sw	a4,0(a1)
  59:lcd.c         **** }
 6644              		.loc 1 59 4 is_stmt 1
  59:lcd.c         **** }
 6645              		.loc 1 59 5 is_stmt 0
 6646 142e 10C0     		sw	a2,0(s0)
 6647              	.LVL256:
 6648              	.LBE1446:
 6649              	.LBE1450:
 6650              	.LBE1468:
 294:lcd.c         **** 	LCD_WR_DATA8(0x36);
 6651              		.loc 1 294 2 is_stmt 1
  92:lcd.c         **** }
 6652              		.loc 1 92 5
 6653              	.LBB1469:
 6654              	.LBB1463:
 6655              	.LBB1459:
GAS LISTING /tmp/ccIfjRGV.s 			page 156


  57:lcd.c         ****    queue[w++]=dat;                        //...If/when not then store data...
 6656              		.loc 1 57 4
  57:lcd.c         ****    queue[w++]=dat;                        //...If/when not then store data...
 6657              		.loc 1 57 17 is_stmt 0
 6658 1430 898E     		sub	a3,a3,a0
  57:lcd.c         ****    queue[w++]=dat;                        //...If/when not then store data...
 6659              		.loc 1 57 10
 6660 1432 6395F602 		bne	a3,a5,.L234
 6661              	.L235:
  57:lcd.c         ****    queue[w++]=dat;                        //...If/when not then store data...
 6662              		.loc 1 57 27 is_stmt 1
 6663 1436 97000000 		call	LCD_WR_Queue
 6663      E7800000 
 6664              	.LVL257:
  57:lcd.c         ****    queue[w++]=dat;                        //...If/when not then store data...
 6665              		.loc 1 57 14 is_stmt 0
 6666 143e 1040     		lw	a2,0(s0)
  57:lcd.c         ****    queue[w++]=dat;                        //...If/when not then store data...
 6667              		.loc 1 57 22
 6668 1440 9C40     		lw	a5,0(s1)
  57:lcd.c         ****    queue[w++]=dat;                        //...If/when not then store data...
 6669              		.loc 1 57 14
 6670 1442 13071600 		addi	a4,a2,1
  57:lcd.c         ****    queue[w++]=dat;                        //...If/when not then store data...
 6671              		.loc 1 57 17
 6672 1446 9356F741 		srai	a3,a4,31
 6673 144a 93D58601 		srli	a1,a3,24
 6674 144e B306B700 		add	a3,a4,a1
 6675 1452 93F6F60F 		andi	a3,a3,255
 6676 1456 8D8E     		sub	a3,a3,a1
  57:lcd.c         ****    queue[w++]=dat;                        //...If/when not then store data...
 6677              		.loc 1 57 10
 6678 1458 E38FF6FC 		beq	a3,a5,.L235
 6679              	.L234:
  58:lcd.c         ****    w%=256;                                //...and advance write index!
 6680              		.loc 1 58 4 is_stmt 1
 6681              	.LBE1459:
 6682              	.LBE1463:
 6683              	.LBE1469:
 6684              	.LBB1470:
 6685              	.LBB1471:
 6686              	.LBB1472:
  57:lcd.c         ****    queue[w++]=dat;                        //...If/when not then store data...
 6687              		.loc 1 57 14 is_stmt 0
 6688 145c 13871600 		addi	a4,a3,1
  57:lcd.c         ****    queue[w++]=dat;                        //...If/when not then store data...
 6689              		.loc 1 57 17
 6690 1460 9355F741 		srai	a1,a4,31
 6691 1464 13D58501 		srli	a0,a1,24
 6692 1468 B305A700 		add	a1,a4,a0
 6693              	.LBE1472:
 6694              	.LBE1471:
 6695              	.LBE1470:
 6696              	.LBB1481:
 6697              	.LBB1464:
 6698              	.LBB1460:
  58:lcd.c         ****    w%=256;                                //...and advance write index!
GAS LISTING /tmp/ccIfjRGV.s 			page 157


 6699              		.loc 1 58 14
 6700 146c 0A06     		slli	a2,a2,2
 6701 146e 4A96     		add	a2,s2,a2
 6702              	.LBE1460:
 6703              	.LBE1464:
 6704              	.LBE1481:
 6705              	.LBB1482:
 6706              	.LBB1477:
 6707              	.LBB1473:
  57:lcd.c         ****    queue[w++]=dat;                        //...If/when not then store data...
 6708              		.loc 1 57 17
 6709 1470 93F5F50F 		andi	a1,a1,255
 6710              	.LBE1473:
 6711              	.LBE1477:
 6712              	.LBE1482:
 6713              	.LBB1483:
 6714              	.LBB1465:
 6715              	.LBB1461:
  58:lcd.c         ****    w%=256;                                //...and advance write index!
 6716              		.loc 1 58 14
 6717 1474 13076012 		li	a4,294
 6718 1478 18C2     		sw	a4,0(a2)
  59:lcd.c         **** }
 6719              		.loc 1 59 4 is_stmt 1
  59:lcd.c         **** }
 6720              		.loc 1 59 5 is_stmt 0
 6721 147a 14C0     		sw	a3,0(s0)
 6722              	.LVL258:
 6723              	.LBE1461:
 6724              	.LBE1465:
 6725              	.LBE1483:
 295:lcd.c         **** 	LCD_WR_DATA8(0x00);
 6726              		.loc 1 295 2 is_stmt 1
  92:lcd.c         **** }
 6727              		.loc 1 92 5
 6728              	.LBB1484:
 6729              	.LBB1478:
 6730              	.LBB1474:
  57:lcd.c         ****    queue[w++]=dat;                        //...If/when not then store data...
 6731              		.loc 1 57 4
  57:lcd.c         ****    queue[w++]=dat;                        //...If/when not then store data...
 6732              		.loc 1 57 17 is_stmt 0
 6733 147c 898D     		sub	a1,a1,a0
  57:lcd.c         ****    queue[w++]=dat;                        //...If/when not then store data...
 6734              		.loc 1 57 10
 6735 147e 6395F502 		bne	a1,a5,.L236
 6736              	.L237:
  57:lcd.c         ****    queue[w++]=dat;                        //...If/when not then store data...
 6737              		.loc 1 57 27 is_stmt 1
 6738 1482 97000000 		call	LCD_WR_Queue
 6738      E7800000 
 6739              	.LVL259:
  57:lcd.c         ****    queue[w++]=dat;                        //...If/when not then store data...
 6740              		.loc 1 57 14 is_stmt 0
 6741 148a 1440     		lw	a3,0(s0)
  57:lcd.c         ****    queue[w++]=dat;                        //...If/when not then store data...
 6742              		.loc 1 57 22
GAS LISTING /tmp/ccIfjRGV.s 			page 158


 6743 148c 9C40     		lw	a5,0(s1)
  57:lcd.c         ****    queue[w++]=dat;                        //...If/when not then store data...
 6744              		.loc 1 57 14
 6745 148e 13871600 		addi	a4,a3,1
  57:lcd.c         ****    queue[w++]=dat;                        //...If/when not then store data...
 6746              		.loc 1 57 17
 6747 1492 9355F741 		srai	a1,a4,31
 6748 1496 13D68501 		srli	a2,a1,24
 6749 149a B305C700 		add	a1,a4,a2
 6750 149e 93F5F50F 		andi	a1,a1,255
 6751 14a2 918D     		sub	a1,a1,a2
  57:lcd.c         ****    queue[w++]=dat;                        //...If/when not then store data...
 6752              		.loc 1 57 10
 6753 14a4 E38FF5FC 		beq	a1,a5,.L237
 6754              	.L236:
  58:lcd.c         ****    w%=256;                                //...and advance write index!
 6755              		.loc 1 58 4 is_stmt 1
 6756              	.LBE1474:
 6757              	.LBE1478:
 6758              	.LBE1484:
 6759              	.LBB1485:
 6760              	.LBB1486:
 6761              	.LBB1487:
  57:lcd.c         ****    queue[w++]=dat;                        //...If/when not then store data...
 6762              		.loc 1 57 14 is_stmt 0
 6763 14a8 13871500 		addi	a4,a1,1
  57:lcd.c         ****    queue[w++]=dat;                        //...If/when not then store data...
 6764              		.loc 1 57 17
 6765 14ac 1356F741 		srai	a2,a4,31
 6766 14b0 13558601 		srli	a0,a2,24
 6767 14b4 3306A700 		add	a2,a4,a0
 6768              	.LBE1487:
 6769              	.LBE1486:
 6770              	.LBE1485:
 6771              	.LBB1496:
 6772              	.LBB1479:
 6773              	.LBB1475:
  58:lcd.c         ****    w%=256;                                //...and advance write index!
 6774              		.loc 1 58 14
 6775 14b8 8A06     		slli	a3,a3,2
 6776 14ba CA96     		add	a3,s2,a3
 6777              	.LBE1475:
 6778              	.LBE1479:
 6779              	.LBE1496:
 6780              	.LBB1497:
 6781              	.LBB1492:
 6782              	.LBB1488:
  57:lcd.c         ****    queue[w++]=dat;                        //...If/when not then store data...
 6783              		.loc 1 57 17
 6784 14bc 1376F60F 		andi	a2,a2,255
 6785              	.LBE1488:
 6786              	.LBE1492:
 6787              	.LBE1497:
 6788              	.LBB1498:
 6789              	.LBB1480:
 6790              	.LBB1476:
  58:lcd.c         ****    w%=256;                                //...and advance write index!
GAS LISTING /tmp/ccIfjRGV.s 			page 159


 6791              		.loc 1 58 14
 6792 14c0 13076013 		li	a4,310
 6793 14c4 98C2     		sw	a4,0(a3)
  59:lcd.c         **** }
 6794              		.loc 1 59 4 is_stmt 1
  59:lcd.c         **** }
 6795              		.loc 1 59 5 is_stmt 0
 6796 14c6 0CC0     		sw	a1,0(s0)
 6797              	.LVL260:
 6798              	.LBE1476:
 6799              	.LBE1480:
 6800              	.LBE1498:
 296:lcd.c         **** 	LCD_WR_DATA8(0x0D);
 6801              		.loc 1 296 2 is_stmt 1
  92:lcd.c         **** }
 6802              		.loc 1 92 5
 6803              	.LBB1499:
 6804              	.LBB1493:
 6805              	.LBB1489:
  57:lcd.c         ****    queue[w++]=dat;                        //...If/when not then store data...
 6806              		.loc 1 57 4
  57:lcd.c         ****    queue[w++]=dat;                        //...If/when not then store data...
 6807              		.loc 1 57 17 is_stmt 0
 6808 14c8 098E     		sub	a2,a2,a0
  57:lcd.c         ****    queue[w++]=dat;                        //...If/when not then store data...
 6809              		.loc 1 57 10
 6810 14ca 6315F602 		bne	a2,a5,.L238
 6811              	.L239:
  57:lcd.c         ****    queue[w++]=dat;                        //...If/when not then store data...
 6812              		.loc 1 57 27 is_stmt 1
 6813 14ce 97000000 		call	LCD_WR_Queue
 6813      E7800000 
 6814              	.LVL261:
  57:lcd.c         ****    queue[w++]=dat;                        //...If/when not then store data...
 6815              		.loc 1 57 14 is_stmt 0
 6816 14d6 0C40     		lw	a1,0(s0)
  57:lcd.c         ****    queue[w++]=dat;                        //...If/when not then store data...
 6817              		.loc 1 57 22
 6818 14d8 9C40     		lw	a5,0(s1)
  57:lcd.c         ****    queue[w++]=dat;                        //...If/when not then store data...
 6819              		.loc 1 57 14
 6820 14da 13871500 		addi	a4,a1,1
  57:lcd.c         ****    queue[w++]=dat;                        //...If/when not then store data...
 6821              		.loc 1 57 17
 6822 14de 1356F741 		srai	a2,a4,31
 6823 14e2 93568601 		srli	a3,a2,24
 6824 14e6 3306D700 		add	a2,a4,a3
 6825 14ea 1376F60F 		andi	a2,a2,255
 6826 14ee 158E     		sub	a2,a2,a3
  57:lcd.c         ****    queue[w++]=dat;                        //...If/when not then store data...
 6827              		.loc 1 57 10
 6828 14f0 E30FF6FC 		beq	a2,a5,.L239
 6829              	.L238:
  58:lcd.c         ****    w%=256;                                //...and advance write index!
 6830              		.loc 1 58 4 is_stmt 1
 6831              	.LBE1489:
 6832              	.LBE1493:
GAS LISTING /tmp/ccIfjRGV.s 			page 160


 6833              	.LBE1499:
 6834              	.LBB1500:
 6835              	.LBB1501:
 6836              	.LBB1502:
  57:lcd.c         ****    queue[w++]=dat;                        //...If/when not then store data...
 6837              		.loc 1 57 14 is_stmt 0
 6838 14f4 13071600 		addi	a4,a2,1
  57:lcd.c         ****    queue[w++]=dat;                        //...If/when not then store data...
 6839              		.loc 1 57 17
 6840 14f8 9356F741 		srai	a3,a4,31
 6841 14fc 13D58601 		srli	a0,a3,24
 6842 1500 B306A700 		add	a3,a4,a0
 6843              	.LBE1502:
 6844              	.LBE1501:
 6845              	.LBE1500:
 6846              	.LBB1511:
 6847              	.LBB1494:
 6848              	.LBB1490:
  58:lcd.c         ****    w%=256;                                //...and advance write index!
 6849              		.loc 1 58 14
 6850 1504 8A05     		slli	a1,a1,2
 6851 1506 CA95     		add	a1,s2,a1
 6852              	.LBE1490:
 6853              	.LBE1494:
 6854              	.LBE1511:
 6855              	.LBB1512:
 6856              	.LBB1507:
 6857              	.LBB1503:
  57:lcd.c         ****    queue[w++]=dat;                        //...If/when not then store data...
 6858              		.loc 1 57 17
 6859 1508 93F6F60F 		andi	a3,a3,255
 6860              	.LBE1503:
 6861              	.LBE1507:
 6862              	.LBE1512:
 6863              	.LBB1513:
 6864              	.LBB1495:
 6865              	.LBB1491:
  58:lcd.c         ****    w%=256;                                //...and advance write index!
 6866              		.loc 1 58 14
 6867 150c 13070010 		li	a4,256
 6868 1510 98C1     		sw	a4,0(a1)
  59:lcd.c         **** }
 6869              		.loc 1 59 4 is_stmt 1
  59:lcd.c         **** }
 6870              		.loc 1 59 5 is_stmt 0
 6871 1512 10C0     		sw	a2,0(s0)
 6872              	.LVL262:
 6873              	.LBE1491:
 6874              	.LBE1495:
 6875              	.LBE1513:
 297:lcd.c         **** 	LCD_WR_DATA8(0x0E);
 6876              		.loc 1 297 2 is_stmt 1
  92:lcd.c         **** }
 6877              		.loc 1 92 5
 6878              	.LBB1514:
 6879              	.LBB1508:
 6880              	.LBB1504:
GAS LISTING /tmp/ccIfjRGV.s 			page 161


  57:lcd.c         ****    queue[w++]=dat;                        //...If/when not then store data...
 6881              		.loc 1 57 4
  57:lcd.c         ****    queue[w++]=dat;                        //...If/when not then store data...
 6882              		.loc 1 57 17 is_stmt 0
 6883 1514 898E     		sub	a3,a3,a0
  57:lcd.c         ****    queue[w++]=dat;                        //...If/when not then store data...
 6884              		.loc 1 57 10
 6885 1516 6395F602 		bne	a3,a5,.L240
 6886              	.L241:
  57:lcd.c         ****    queue[w++]=dat;                        //...If/when not then store data...
 6887              		.loc 1 57 27 is_stmt 1
 6888 151a 97000000 		call	LCD_WR_Queue
 6888      E7800000 
 6889              	.LVL263:
  57:lcd.c         ****    queue[w++]=dat;                        //...If/when not then store data...
 6890              		.loc 1 57 14 is_stmt 0
 6891 1522 1040     		lw	a2,0(s0)
  57:lcd.c         ****    queue[w++]=dat;                        //...If/when not then store data...
 6892              		.loc 1 57 22
 6893 1524 9C40     		lw	a5,0(s1)
  57:lcd.c         ****    queue[w++]=dat;                        //...If/when not then store data...
 6894              		.loc 1 57 14
 6895 1526 13071600 		addi	a4,a2,1
  57:lcd.c         ****    queue[w++]=dat;                        //...If/when not then store data...
 6896              		.loc 1 57 17
 6897 152a 9356F741 		srai	a3,a4,31
 6898 152e 93D58601 		srli	a1,a3,24
 6899 1532 B306B700 		add	a3,a4,a1
 6900 1536 93F6F60F 		andi	a3,a3,255
 6901 153a 8D8E     		sub	a3,a3,a1
  57:lcd.c         ****    queue[w++]=dat;                        //...If/when not then store data...
 6902              		.loc 1 57 10
 6903 153c E38FF6FC 		beq	a3,a5,.L241
 6904              	.L240:
  58:lcd.c         ****    w%=256;                                //...and advance write index!
 6905              		.loc 1 58 4 is_stmt 1
 6906              	.LBE1504:
 6907              	.LBE1508:
 6908              	.LBE1514:
 6909              	.LBB1515:
 6910              	.LBB1516:
 6911              	.LBB1517:
  57:lcd.c         ****    queue[w++]=dat;                        //...If/when not then store data...
 6912              		.loc 1 57 14 is_stmt 0
 6913 1540 13871600 		addi	a4,a3,1
  57:lcd.c         ****    queue[w++]=dat;                        //...If/when not then store data...
 6914              		.loc 1 57 17
 6915 1544 9355F741 		srai	a1,a4,31
 6916 1548 13D58501 		srli	a0,a1,24
 6917 154c B305A700 		add	a1,a4,a0
 6918              	.LBE1517:
 6919              	.LBE1516:
 6920              	.LBE1515:
 6921              	.LBB1526:
 6922              	.LBB1509:
 6923              	.LBB1505:
  58:lcd.c         ****    w%=256;                                //...and advance write index!
GAS LISTING /tmp/ccIfjRGV.s 			page 162


 6924              		.loc 1 58 14
 6925 1550 0A06     		slli	a2,a2,2
 6926 1552 4A96     		add	a2,s2,a2
 6927              	.LBE1505:
 6928              	.LBE1509:
 6929              	.LBE1526:
 6930              	.LBB1527:
 6931              	.LBB1522:
 6932              	.LBB1518:
  57:lcd.c         ****    queue[w++]=dat;                        //...If/when not then store data...
 6933              		.loc 1 57 17
 6934 1554 93F5F50F 		andi	a1,a1,255
 6935              	.LBE1518:
 6936              	.LBE1522:
 6937              	.LBE1527:
 6938              	.LBB1528:
 6939              	.LBB1510:
 6940              	.LBB1506:
  58:lcd.c         ****    w%=256;                                //...and advance write index!
 6941              		.loc 1 58 14
 6942 1558 1307D010 		li	a4,269
 6943 155c 18C2     		sw	a4,0(a2)
  59:lcd.c         **** }
 6944              		.loc 1 59 4 is_stmt 1
  59:lcd.c         **** }
 6945              		.loc 1 59 5 is_stmt 0
 6946 155e 14C0     		sw	a3,0(s0)
 6947              	.LVL264:
 6948              	.LBE1506:
 6949              	.LBE1510:
 6950              	.LBE1528:
 298:lcd.c         **** 	LCD_WR_DATA8(0x10);
 6951              		.loc 1 298 2 is_stmt 1
  92:lcd.c         **** }
 6952              		.loc 1 92 5
 6953              	.LBB1529:
 6954              	.LBB1523:
 6955              	.LBB1519:
  57:lcd.c         ****    queue[w++]=dat;                        //...If/when not then store data...
 6956              		.loc 1 57 4
  57:lcd.c         ****    queue[w++]=dat;                        //...If/when not then store data...
 6957              		.loc 1 57 17 is_stmt 0
 6958 1560 898D     		sub	a1,a1,a0
  57:lcd.c         ****    queue[w++]=dat;                        //...If/when not then store data...
 6959              		.loc 1 57 10
 6960 1562 6395F502 		bne	a1,a5,.L242
 6961              	.L243:
  57:lcd.c         ****    queue[w++]=dat;                        //...If/when not then store data...
 6962              		.loc 1 57 27 is_stmt 1
 6963 1566 97000000 		call	LCD_WR_Queue
 6963      E7800000 
 6964              	.LVL265:
  57:lcd.c         ****    queue[w++]=dat;                        //...If/when not then store data...
 6965              		.loc 1 57 14 is_stmt 0
 6966 156e 1440     		lw	a3,0(s0)
  57:lcd.c         ****    queue[w++]=dat;                        //...If/when not then store data...
 6967              		.loc 1 57 22
GAS LISTING /tmp/ccIfjRGV.s 			page 163


 6968 1570 9C40     		lw	a5,0(s1)
  57:lcd.c         ****    queue[w++]=dat;                        //...If/when not then store data...
 6969              		.loc 1 57 14
 6970 1572 13871600 		addi	a4,a3,1
  57:lcd.c         ****    queue[w++]=dat;                        //...If/when not then store data...
 6971              		.loc 1 57 17
 6972 1576 9355F741 		srai	a1,a4,31
 6973 157a 13D68501 		srli	a2,a1,24
 6974 157e B305C700 		add	a1,a4,a2
 6975 1582 93F5F50F 		andi	a1,a1,255
 6976 1586 918D     		sub	a1,a1,a2
  57:lcd.c         ****    queue[w++]=dat;                        //...If/when not then store data...
 6977              		.loc 1 57 10
 6978 1588 E38FF5FC 		beq	a1,a5,.L243
 6979              	.L242:
  58:lcd.c         ****    w%=256;                                //...and advance write index!
 6980              		.loc 1 58 4 is_stmt 1
 6981              	.LBE1519:
 6982              	.LBE1523:
 6983              	.LBE1529:
 6984              	.LBB1530:
 6985              	.LBB1531:
 6986              	.LBB1532:
  57:lcd.c         ****    queue[w++]=dat;                        //...If/when not then store data...
 6987              		.loc 1 57 14 is_stmt 0
 6988 158c 13871500 		addi	a4,a1,1
  57:lcd.c         ****    queue[w++]=dat;                        //...If/when not then store data...
 6989              		.loc 1 57 17
 6990 1590 1356F741 		srai	a2,a4,31
 6991 1594 13558601 		srli	a0,a2,24
 6992 1598 3306A700 		add	a2,a4,a0
 6993              	.LBE1532:
 6994              	.LBE1531:
 6995              	.LBE1530:
 6996              	.LBB1541:
 6997              	.LBB1524:
 6998              	.LBB1520:
  58:lcd.c         ****    w%=256;                                //...and advance write index!
 6999              		.loc 1 58 14
 7000 159c 8A06     		slli	a3,a3,2
 7001 159e CA96     		add	a3,s2,a3
 7002              	.LBE1520:
 7003              	.LBE1524:
 7004              	.LBE1541:
 7005              	.LBB1542:
 7006              	.LBB1537:
 7007              	.LBB1533:
  57:lcd.c         ****    queue[w++]=dat;                        //...If/when not then store data...
 7008              		.loc 1 57 17
 7009 15a0 1376F60F 		andi	a2,a2,255
 7010              	.LBE1533:
 7011              	.LBE1537:
 7012              	.LBE1542:
 7013              	.LBB1543:
 7014              	.LBB1525:
 7015              	.LBB1521:
  58:lcd.c         ****    w%=256;                                //...and advance write index!
GAS LISTING /tmp/ccIfjRGV.s 			page 164


 7016              		.loc 1 58 14
 7017 15a4 1307E010 		li	a4,270
 7018 15a8 98C2     		sw	a4,0(a3)
  59:lcd.c         **** }
 7019              		.loc 1 59 4 is_stmt 1
  59:lcd.c         **** }
 7020              		.loc 1 59 5 is_stmt 0
 7021 15aa 0CC0     		sw	a1,0(s0)
 7022              	.LVL266:
 7023              	.LBE1521:
 7024              	.LBE1525:
 7025              	.LBE1543:
 299:lcd.c         **** 
 7026              		.loc 1 299 2 is_stmt 1
  92:lcd.c         **** }
 7027              		.loc 1 92 5
 7028              	.LBB1544:
 7029              	.LBB1538:
 7030              	.LBB1534:
  57:lcd.c         ****    queue[w++]=dat;                        //...If/when not then store data...
 7031              		.loc 1 57 4
  57:lcd.c         ****    queue[w++]=dat;                        //...If/when not then store data...
 7032              		.loc 1 57 17 is_stmt 0
 7033 15ac 098E     		sub	a2,a2,a0
  57:lcd.c         ****    queue[w++]=dat;                        //...If/when not then store data...
 7034              		.loc 1 57 10
 7035 15ae 6315F602 		bne	a2,a5,.L244
 7036              	.L245:
  57:lcd.c         ****    queue[w++]=dat;                        //...If/when not then store data...
 7037              		.loc 1 57 27 is_stmt 1
 7038 15b2 97000000 		call	LCD_WR_Queue
 7038      E7800000 
 7039              	.LVL267:
  57:lcd.c         ****    queue[w++]=dat;                        //...If/when not then store data...
 7040              		.loc 1 57 14 is_stmt 0
 7041 15ba 0C40     		lw	a1,0(s0)
  57:lcd.c         ****    queue[w++]=dat;                        //...If/when not then store data...
 7042              		.loc 1 57 22
 7043 15bc 9C40     		lw	a5,0(s1)
  57:lcd.c         ****    queue[w++]=dat;                        //...If/when not then store data...
 7044              		.loc 1 57 14
 7045 15be 13871500 		addi	a4,a1,1
  57:lcd.c         ****    queue[w++]=dat;                        //...If/when not then store data...
 7046              		.loc 1 57 17
 7047 15c2 1356F741 		srai	a2,a4,31
 7048 15c6 93568601 		srli	a3,a2,24
 7049 15ca 3306D700 		add	a2,a4,a3
 7050 15ce 1376F60F 		andi	a2,a2,255
 7051 15d2 158E     		sub	a2,a2,a3
  57:lcd.c         ****    queue[w++]=dat;                        //...If/when not then store data...
 7052              		.loc 1 57 10
 7053 15d4 E30FF6FC 		beq	a2,a5,.L245
 7054              	.L244:
  58:lcd.c         ****    w%=256;                                //...and advance write index!
 7055              		.loc 1 58 4 is_stmt 1
 7056              	.LBE1534:
 7057              	.LBE1538:
GAS LISTING /tmp/ccIfjRGV.s 			page 165


 7058              	.LBE1544:
 7059              	.LBB1545:
 7060              	.LBB1546:
 7061              	.LBB1547:
  57:lcd.c         ****    queue[w++]=dat;                        //...If/when not then store data...
 7062              		.loc 1 57 14 is_stmt 0
 7063 15d8 13071600 		addi	a4,a2,1
  57:lcd.c         ****    queue[w++]=dat;                        //...If/when not then store data...
 7064              		.loc 1 57 17
 7065 15dc 9356F741 		srai	a3,a4,31
 7066 15e0 13D58601 		srli	a0,a3,24
 7067 15e4 B306A700 		add	a3,a4,a0
 7068              	.LBE1547:
 7069              	.LBE1546:
 7070              	.LBE1545:
 7071              	.LBB1556:
 7072              	.LBB1539:
 7073              	.LBB1535:
  58:lcd.c         ****    w%=256;                                //...and advance write index!
 7074              		.loc 1 58 14
 7075 15e8 8A05     		slli	a1,a1,2
 7076 15ea CA95     		add	a1,s2,a1
 7077              	.LBE1535:
 7078              	.LBE1539:
 7079              	.LBE1556:
 7080              	.LBB1557:
 7081              	.LBB1552:
 7082              	.LBB1548:
  57:lcd.c         ****    queue[w++]=dat;                        //...If/when not then store data...
 7083              		.loc 1 57 17
 7084 15ec 93F6F60F 		andi	a3,a3,255
 7085              	.LBE1548:
 7086              	.LBE1552:
 7087              	.LBE1557:
 7088              	.LBB1558:
 7089              	.LBB1540:
 7090              	.LBB1536:
  58:lcd.c         ****    w%=256;                                //...and advance write index!
 7091              		.loc 1 58 14
 7092 15f0 13070011 		li	a4,272
 7093 15f4 98C1     		sw	a4,0(a1)
  59:lcd.c         **** }
 7094              		.loc 1 59 4 is_stmt 1
  59:lcd.c         **** }
 7095              		.loc 1 59 5 is_stmt 0
 7096 15f6 10C0     		sw	a2,0(s0)
 7097              	.LVL268:
 7098              	.LBE1536:
 7099              	.LBE1540:
 7100              	.LBE1558:
 301:lcd.c         **** 	LCD_WR_DATA8(0x05);//16 bit color
 7101              		.loc 1 301 2 is_stmt 1
 120:lcd.c         **** }
 7102              		.loc 1 120 5
 7103              	.LBB1559:
 7104              	.LBB1553:
 7105              	.LBB1549:
GAS LISTING /tmp/ccIfjRGV.s 			page 166


  57:lcd.c         ****    queue[w++]=dat;                        //...If/when not then store data...
 7106              		.loc 1 57 4
  57:lcd.c         ****    queue[w++]=dat;                        //...If/when not then store data...
 7107              		.loc 1 57 17 is_stmt 0
 7108 15f8 898E     		sub	a3,a3,a0
  57:lcd.c         ****    queue[w++]=dat;                        //...If/when not then store data...
 7109              		.loc 1 57 10
 7110 15fa 6395F602 		bne	a3,a5,.L246
 7111              	.L247:
  57:lcd.c         ****    queue[w++]=dat;                        //...If/when not then store data...
 7112              		.loc 1 57 27 is_stmt 1
 7113 15fe 97000000 		call	LCD_WR_Queue
 7113      E7800000 
 7114              	.LVL269:
  57:lcd.c         ****    queue[w++]=dat;                        //...If/when not then store data...
 7115              		.loc 1 57 14 is_stmt 0
 7116 1606 1040     		lw	a2,0(s0)
  57:lcd.c         ****    queue[w++]=dat;                        //...If/when not then store data...
 7117              		.loc 1 57 22
 7118 1608 9C40     		lw	a5,0(s1)
  57:lcd.c         ****    queue[w++]=dat;                        //...If/when not then store data...
 7119              		.loc 1 57 14
 7120 160a 13071600 		addi	a4,a2,1
  57:lcd.c         ****    queue[w++]=dat;                        //...If/when not then store data...
 7121              		.loc 1 57 17
 7122 160e 9356F741 		srai	a3,a4,31
 7123 1612 93D58601 		srli	a1,a3,24
 7124 1616 B306B700 		add	a3,a4,a1
 7125 161a 93F6F60F 		andi	a3,a3,255
 7126 161e 8D8E     		sub	a3,a3,a1
  57:lcd.c         ****    queue[w++]=dat;                        //...If/when not then store data...
 7127              		.loc 1 57 10
 7128 1620 E38FF6FC 		beq	a3,a5,.L247
 7129              	.L246:
  58:lcd.c         ****    w%=256;                                //...and advance write index!
 7130              		.loc 1 58 4 is_stmt 1
 7131              	.LBE1549:
 7132              	.LBE1553:
 7133              	.LBE1559:
 7134              	.LBB1560:
 7135              	.LBB1561:
 7136              	.LBB1562:
  57:lcd.c         ****    queue[w++]=dat;                        //...If/when not then store data...
 7137              		.loc 1 57 14 is_stmt 0
 7138 1624 13871600 		addi	a4,a3,1
  57:lcd.c         ****    queue[w++]=dat;                        //...If/when not then store data...
 7139              		.loc 1 57 17
 7140 1628 9355F741 		srai	a1,a4,31
 7141 162c 13D58501 		srli	a0,a1,24
 7142 1630 B305A700 		add	a1,a4,a0
 7143              	.LBE1562:
 7144              	.LBE1561:
 7145              	.LBE1560:
 7146              	.LBB1571:
 7147              	.LBB1554:
 7148              	.LBB1550:
  58:lcd.c         ****    w%=256;                                //...and advance write index!
GAS LISTING /tmp/ccIfjRGV.s 			page 167


 7149              		.loc 1 58 14
 7150 1634 0A06     		slli	a2,a2,2
 7151 1636 4A96     		add	a2,s2,a2
 7152              	.LBE1550:
 7153              	.LBE1554:
 7154              	.LBE1571:
 7155              	.LBB1572:
 7156              	.LBB1567:
 7157              	.LBB1563:
  57:lcd.c         ****    queue[w++]=dat;                        //...If/when not then store data...
 7158              		.loc 1 57 17
 7159 1638 93F5F50F 		andi	a1,a1,255
 7160              	.LBE1563:
 7161              	.LBE1567:
 7162              	.LBE1572:
 7163              	.LBB1573:
 7164              	.LBB1555:
 7165              	.LBB1551:
  58:lcd.c         ****    w%=256;                                //...and advance write index!
 7166              		.loc 1 58 14
 7167 163c 1307A003 		li	a4,58
 7168 1640 18C2     		sw	a4,0(a2)
  59:lcd.c         **** }
 7169              		.loc 1 59 4 is_stmt 1
  59:lcd.c         **** }
 7170              		.loc 1 59 5 is_stmt 0
 7171 1642 14C0     		sw	a3,0(s0)
 7172              	.LVL270:
 7173              	.LBE1551:
 7174              	.LBE1555:
 7175              	.LBE1573:
 302:lcd.c         **** 
 7176              		.loc 1 302 2 is_stmt 1
  92:lcd.c         **** }
 7177              		.loc 1 92 5
 7178              	.LBB1574:
 7179              	.LBB1568:
 7180              	.LBB1564:
  57:lcd.c         ****    queue[w++]=dat;                        //...If/when not then store data...
 7181              		.loc 1 57 4
  57:lcd.c         ****    queue[w++]=dat;                        //...If/when not then store data...
 7182              		.loc 1 57 17 is_stmt 0
 7183 1644 898D     		sub	a1,a1,a0
  57:lcd.c         ****    queue[w++]=dat;                        //...If/when not then store data...
 7184              		.loc 1 57 10
 7185 1646 6395F502 		bne	a1,a5,.L248
 7186              	.L249:
  57:lcd.c         ****    queue[w++]=dat;                        //...If/when not then store data...
 7187              		.loc 1 57 27 is_stmt 1
 7188 164a 97000000 		call	LCD_WR_Queue
 7188      E7800000 
 7189              	.LVL271:
  57:lcd.c         ****    queue[w++]=dat;                        //...If/when not then store data...
 7190              		.loc 1 57 14 is_stmt 0
 7191 1652 1440     		lw	a3,0(s0)
  57:lcd.c         ****    queue[w++]=dat;                        //...If/when not then store data...
 7192              		.loc 1 57 22
GAS LISTING /tmp/ccIfjRGV.s 			page 168


 7193 1654 9C40     		lw	a5,0(s1)
  57:lcd.c         ****    queue[w++]=dat;                        //...If/when not then store data...
 7194              		.loc 1 57 14
 7195 1656 13871600 		addi	a4,a3,1
  57:lcd.c         ****    queue[w++]=dat;                        //...If/when not then store data...
 7196              		.loc 1 57 17
 7197 165a 9355F741 		srai	a1,a4,31
 7198 165e 13D68501 		srli	a2,a1,24
 7199 1662 B305C700 		add	a1,a4,a2
 7200 1666 93F5F50F 		andi	a1,a1,255
 7201 166a 918D     		sub	a1,a1,a2
  57:lcd.c         ****    queue[w++]=dat;                        //...If/when not then store data...
 7202              		.loc 1 57 10
 7203 166c E38FF5FC 		beq	a1,a5,.L249
 7204              	.L248:
  58:lcd.c         ****    w%=256;                                //...and advance write index!
 7205              		.loc 1 58 4 is_stmt 1
 7206              	.LBE1564:
 7207              	.LBE1568:
 7208              	.LBE1574:
 7209              	.LBB1575:
 7210              	.LBB1576:
 7211              	.LBB1577:
  57:lcd.c         ****    queue[w++]=dat;                        //...If/when not then store data...
 7212              		.loc 1 57 14 is_stmt 0
 7213 1670 13871500 		addi	a4,a1,1
  57:lcd.c         ****    queue[w++]=dat;                        //...If/when not then store data...
 7214              		.loc 1 57 17
 7215 1674 1356F741 		srai	a2,a4,31
 7216 1678 13558601 		srli	a0,a2,24
 7217 167c 3306A700 		add	a2,a4,a0
 7218              	.LBE1577:
 7219              	.LBE1576:
 7220              	.LBE1575:
 7221              	.LBB1586:
 7222              	.LBB1569:
 7223              	.LBB1565:
  58:lcd.c         ****    w%=256;                                //...and advance write index!
 7224              		.loc 1 58 14
 7225 1680 8A06     		slli	a3,a3,2
 7226 1682 CA96     		add	a3,s2,a3
 7227              	.LBE1565:
 7228              	.LBE1569:
 7229              	.LBE1586:
 7230              	.LBB1587:
 7231              	.LBB1582:
 7232              	.LBB1578:
  57:lcd.c         ****    queue[w++]=dat;                        //...If/when not then store data...
 7233              		.loc 1 57 17
 7234 1684 1376F60F 		andi	a2,a2,255
 7235              	.LBE1578:
 7236              	.LBE1582:
 7237              	.LBE1587:
 7238              	.LBB1588:
 7239              	.LBB1570:
 7240              	.LBB1566:
  58:lcd.c         ****    w%=256;                                //...and advance write index!
GAS LISTING /tmp/ccIfjRGV.s 			page 169


 7241              		.loc 1 58 14
 7242 1688 13075010 		li	a4,261
 7243 168c 98C2     		sw	a4,0(a3)
  59:lcd.c         **** }
 7244              		.loc 1 59 4 is_stmt 1
  59:lcd.c         **** }
 7245              		.loc 1 59 5 is_stmt 0
 7246 168e 0CC0     		sw	a1,0(s0)
 7247              	.LVL272:
 7248              	.LBE1566:
 7249              	.LBE1570:
 7250              	.LBE1588:
 304:lcd.c         **** 	LCD_WR_DATA8(0x78);
 7251              		.loc 1 304 2 is_stmt 1
 120:lcd.c         **** }
 7252              		.loc 1 120 5
 7253              	.LBB1589:
 7254              	.LBB1583:
 7255              	.LBB1579:
  57:lcd.c         ****    queue[w++]=dat;                        //...If/when not then store data...
 7256              		.loc 1 57 4
  57:lcd.c         ****    queue[w++]=dat;                        //...If/when not then store data...
 7257              		.loc 1 57 17 is_stmt 0
 7258 1690 098E     		sub	a2,a2,a0
  57:lcd.c         ****    queue[w++]=dat;                        //...If/when not then store data...
 7259              		.loc 1 57 10
 7260 1692 6315F602 		bne	a2,a5,.L250
 7261              	.L251:
  57:lcd.c         ****    queue[w++]=dat;                        //...If/when not then store data...
 7262              		.loc 1 57 27 is_stmt 1
 7263 1696 97000000 		call	LCD_WR_Queue
 7263      E7800000 
 7264              	.LVL273:
  57:lcd.c         ****    queue[w++]=dat;                        //...If/when not then store data...
 7265              		.loc 1 57 14 is_stmt 0
 7266 169e 0C40     		lw	a1,0(s0)
  57:lcd.c         ****    queue[w++]=dat;                        //...If/when not then store data...
 7267              		.loc 1 57 22
 7268 16a0 9C40     		lw	a5,0(s1)
  57:lcd.c         ****    queue[w++]=dat;                        //...If/when not then store data...
 7269              		.loc 1 57 14
 7270 16a2 13871500 		addi	a4,a1,1
  57:lcd.c         ****    queue[w++]=dat;                        //...If/when not then store data...
 7271              		.loc 1 57 17
 7272 16a6 1356F741 		srai	a2,a4,31
 7273 16aa 93568601 		srli	a3,a2,24
 7274 16ae 3306D700 		add	a2,a4,a3
 7275 16b2 1376F60F 		andi	a2,a2,255
 7276 16b6 158E     		sub	a2,a2,a3
  57:lcd.c         ****    queue[w++]=dat;                        //...If/when not then store data...
 7277              		.loc 1 57 10
 7278 16b8 E30FF6FC 		beq	a2,a5,.L251
 7279              	.L250:
  58:lcd.c         ****    w%=256;                                //...and advance write index!
 7280              		.loc 1 58 4 is_stmt 1
 7281              	.LBE1579:
 7282              	.LBE1583:
GAS LISTING /tmp/ccIfjRGV.s 			page 170


 7283              	.LBE1589:
 7284              	.LBB1590:
 7285              	.LBB1591:
 7286              	.LBB1592:
  57:lcd.c         ****    queue[w++]=dat;                        //...If/when not then store data...
 7287              		.loc 1 57 14 is_stmt 0
 7288 16bc 93061600 		addi	a3,a2,1
  57:lcd.c         ****    queue[w++]=dat;                        //...If/when not then store data...
 7289              		.loc 1 57 17
 7290 16c0 13D7F641 		srai	a4,a3,31
 7291 16c4 13558701 		srli	a0,a4,24
 7292 16c8 3387A600 		add	a4,a3,a0
 7293              	.LBE1592:
 7294              	.LBE1591:
 7295              	.LBE1590:
 7296              	.LBB1601:
 7297              	.LBB1584:
 7298              	.LBB1580:
  58:lcd.c         ****    w%=256;                                //...and advance write index!
 7299              		.loc 1 58 14
 7300 16cc 8A05     		slli	a1,a1,2
 7301 16ce CA95     		add	a1,s2,a1
 7302              	.LBE1580:
 7303              	.LBE1584:
 7304              	.LBE1601:
 7305              	.LBB1602:
 7306              	.LBB1597:
 7307              	.LBB1593:
  57:lcd.c         ****    queue[w++]=dat;                        //...If/when not then store data...
 7308              		.loc 1 57 17
 7309 16d0 1377F70F 		andi	a4,a4,255
 7310              	.LBE1593:
 7311              	.LBE1597:
 7312              	.LBE1602:
 7313              	.LBB1603:
 7314              	.LBB1585:
 7315              	.LBB1581:
  58:lcd.c         ****    w%=256;                                //...and advance write index!
 7316              		.loc 1 58 14
 7317 16d4 93066003 		li	a3,54
 7318 16d8 94C1     		sw	a3,0(a1)
  59:lcd.c         **** }
 7319              		.loc 1 59 4 is_stmt 1
  59:lcd.c         **** }
 7320              		.loc 1 59 5 is_stmt 0
 7321 16da 10C0     		sw	a2,0(s0)
 7322              	.LVL274:
 7323              	.LBE1581:
 7324              	.LBE1585:
 7325              	.LBE1603:
 305:lcd.c         **** 	LCD_WR_REG(0x29); 
 7326              		.loc 1 305 2 is_stmt 1
  92:lcd.c         **** }
 7327              		.loc 1 92 5
 7328              	.LBB1604:
 7329              	.LBB1598:
 7330              	.LBB1594:
GAS LISTING /tmp/ccIfjRGV.s 			page 171


  57:lcd.c         ****    queue[w++]=dat;                        //...If/when not then store data...
 7331              		.loc 1 57 4
  57:lcd.c         ****    queue[w++]=dat;                        //...If/when not then store data...
 7332              		.loc 1 57 17 is_stmt 0
 7333 16dc 098F     		sub	a4,a4,a0
  57:lcd.c         ****    queue[w++]=dat;                        //...If/when not then store data...
 7334              		.loc 1 57 10
 7335 16de 6315F702 		bne	a4,a5,.L252
 7336              	.L253:
  57:lcd.c         ****    queue[w++]=dat;                        //...If/when not then store data...
 7337              		.loc 1 57 27 is_stmt 1
 7338 16e2 97000000 		call	LCD_WR_Queue
 7338      E7800000 
 7339              	.LVL275:
  57:lcd.c         ****    queue[w++]=dat;                        //...If/when not then store data...
 7340              		.loc 1 57 14 is_stmt 0
 7341 16ea 1040     		lw	a2,0(s0)
  57:lcd.c         ****    queue[w++]=dat;                        //...If/when not then store data...
 7342              		.loc 1 57 22
 7343 16ec 9C40     		lw	a5,0(s1)
  57:lcd.c         ****    queue[w++]=dat;                        //...If/when not then store data...
 7344              		.loc 1 57 14
 7345 16ee 93061600 		addi	a3,a2,1
  57:lcd.c         ****    queue[w++]=dat;                        //...If/when not then store data...
 7346              		.loc 1 57 17
 7347 16f2 13D7F641 		srai	a4,a3,31
 7348 16f6 93558701 		srli	a1,a4,24
 7349 16fa 3387B600 		add	a4,a3,a1
 7350 16fe 1377F70F 		andi	a4,a4,255
 7351 1702 0D8F     		sub	a4,a4,a1
  57:lcd.c         ****    queue[w++]=dat;                        //...If/when not then store data...
 7352              		.loc 1 57 10
 7353 1704 E30FF7FC 		beq	a4,a5,.L253
 7354              	.L252:
  58:lcd.c         ****    w%=256;                                //...and advance write index!
 7355              		.loc 1 58 4 is_stmt 1
 7356              	.LBE1594:
 7357              	.LBE1598:
 7358              	.LBE1604:
 7359              	.LBB1605:
 7360              	.LBB1606:
 7361              	.LBB1607:
  57:lcd.c         ****    queue[w++]=dat;                        //...If/when not then store data...
 7362              		.loc 1 57 14 is_stmt 0
 7363 1708 93051700 		addi	a1,a4,1
  57:lcd.c         ****    queue[w++]=dat;                        //...If/when not then store data...
 7364              		.loc 1 57 17
 7365 170c 93D6F541 		srai	a3,a1,31
 7366 1710 13D58601 		srli	a0,a3,24
 7367 1714 B386A500 		add	a3,a1,a0
 7368              	.LBE1607:
 7369              	.LBE1606:
 7370              	.LBE1605:
 7371              	.LBB1614:
 7372              	.LBB1599:
 7373              	.LBB1595:
  58:lcd.c         ****    w%=256;                                //...and advance write index!
GAS LISTING /tmp/ccIfjRGV.s 			page 172


 7374              		.loc 1 58 14
 7375 1718 0A06     		slli	a2,a2,2
 7376 171a 4A96     		add	a2,s2,a2
 7377              	.LBE1595:
 7378              	.LBE1599:
 7379              	.LBE1614:
 7380              	.LBB1615:
 7381              	.LBB1611:
 7382              	.LBB1608:
  57:lcd.c         ****    queue[w++]=dat;                        //...If/when not then store data...
 7383              		.loc 1 57 17
 7384 171c 93F6F60F 		andi	a3,a3,255
 7385              	.LBE1608:
 7386              	.LBE1611:
 7387              	.LBE1615:
 7388              	.LBB1616:
 7389              	.LBB1600:
 7390              	.LBB1596:
  58:lcd.c         ****    w%=256;                                //...and advance write index!
 7391              		.loc 1 58 14
 7392 1720 93058017 		li	a1,376
 7393 1724 0CC2     		sw	a1,0(a2)
  59:lcd.c         **** }
 7394              		.loc 1 59 4 is_stmt 1
  59:lcd.c         **** }
 7395              		.loc 1 59 5 is_stmt 0
 7396 1726 18C0     		sw	a4,0(s0)
 7397              	.LVL276:
 7398              	.LBE1596:
 7399              	.LBE1600:
 7400              	.LBE1616:
 306:lcd.c         **** } 
 7401              		.loc 1 306 2 is_stmt 1
 120:lcd.c         **** }
 7402              		.loc 1 120 5
 7403              	.LBB1617:
 7404              	.LBB1612:
 7405              	.LBB1609:
  57:lcd.c         ****    queue[w++]=dat;                        //...If/when not then store data...
 7406              		.loc 1 57 4
  57:lcd.c         ****    queue[w++]=dat;                        //...If/when not then store data...
 7407              		.loc 1 57 17 is_stmt 0
 7408 1728 898E     		sub	a3,a3,a0
  57:lcd.c         ****    queue[w++]=dat;                        //...If/when not then store data...
 7409              		.loc 1 57 10
 7410 172a 6395F602 		bne	a3,a5,.L254
 7411              	.L255:
  57:lcd.c         ****    queue[w++]=dat;                        //...If/when not then store data...
 7412              		.loc 1 57 27 is_stmt 1
 7413 172e 97000000 		call	LCD_WR_Queue
 7413      E7800000 
 7414              	.LVL277:
  57:lcd.c         ****    queue[w++]=dat;                        //...If/when not then store data...
 7415              		.loc 1 57 14 is_stmt 0
 7416 1736 1840     		lw	a4,0(s0)
  57:lcd.c         ****    queue[w++]=dat;                        //...If/when not then store data...
 7417              		.loc 1 57 10
GAS LISTING /tmp/ccIfjRGV.s 			page 173


 7418 1738 8C40     		lw	a1,0(s1)
  57:lcd.c         ****    queue[w++]=dat;                        //...If/when not then store data...
 7419              		.loc 1 57 14
 7420 173a 93071700 		addi	a5,a4,1
  57:lcd.c         ****    queue[w++]=dat;                        //...If/when not then store data...
 7421              		.loc 1 57 17
 7422 173e 93D6F741 		srai	a3,a5,31
 7423 1742 13D68601 		srli	a2,a3,24
 7424 1746 B386C700 		add	a3,a5,a2
 7425 174a 93F6F60F 		andi	a3,a3,255
 7426 174e 918E     		sub	a3,a3,a2
  57:lcd.c         ****    queue[w++]=dat;                        //...If/when not then store data...
 7427              		.loc 1 57 10
 7428 1750 E38FB6FC 		beq	a3,a1,.L255
 7429              	.L254:
  58:lcd.c         ****    w%=256;                                //...and advance write index!
 7430              		.loc 1 58 4 is_stmt 1
  59:lcd.c         **** }
 7431              		.loc 1 59 5 is_stmt 0
 7432 1754 14C0     		sw	a3,0(s0)
 7433              	.LBE1609:
 7434              	.LBE1612:
 7435              	.LBE1617:
 307:lcd.c         **** 
 7436              		.loc 1 307 1
 7437 1756 F240     		lw	ra,28(sp)
 7438              		.cfi_remember_state
 7439              		.cfi_restore 1
 7440 1758 6244     		lw	s0,24(sp)
 7441              		.cfi_restore 8
 7442              	.LBB1618:
 7443              	.LBB1613:
 7444              	.LBB1610:
  58:lcd.c         ****    w%=256;                                //...and advance write index!
 7445              		.loc 1 58 14
 7446 175a 0A07     		slli	a4,a4,2
 7447 175c 4A97     		add	a4,s2,a4
 7448 175e 93079002 		li	a5,41
 7449 1762 1CC3     		sw	a5,0(a4)
  59:lcd.c         **** }
 7450              		.loc 1 59 4 is_stmt 1
 7451              	.LVL278:
 7452              	.LBE1610:
 7453              	.LBE1613:
 7454              	.LBE1618:
 307:lcd.c         **** 
 7455              		.loc 1 307 1 is_stmt 0
 7456 1764 D244     		lw	s1,20(sp)
 7457              		.cfi_restore 9
 7458 1766 4249     		lw	s2,16(sp)
 7459              		.cfi_restore 18
 7460 1768 B249     		lw	s3,12(sp)
 7461              		.cfi_restore 19
 7462 176a 0561     		addi	sp,sp,32
 7463              	.LCFI29:
 7464              		.cfi_def_cfa_offset 0
 7465 176c 8280     		jr	ra
GAS LISTING /tmp/ccIfjRGV.s 			page 174


 7466              	.L105:
 7467              	.LCFI30:
 7468              		.cfi_restore_state
 7469              	.LBB1619:
 7470              	.LBB1620:
 7471              	.LBB1621:
  57:lcd.c         ****    queue[w++]=dat;                        //...If/when not then store data...
 7472              		.loc 1 57 27 is_stmt 1
 7473 176e 97000000 		call	LCD_WR_Queue
 7473      E7800000 
 7474              	.LVL279:
 7475              	.L346:
  57:lcd.c         ****    queue[w++]=dat;                        //...If/when not then store data...
 7476              		.loc 1 57 14 is_stmt 0
 7477 1776 0C40     		lw	a1,0(s0)
  57:lcd.c         ****    queue[w++]=dat;                        //...If/when not then store data...
 7478              		.loc 1 57 22
 7479 1778 9C40     		lw	a5,0(s1)
  57:lcd.c         ****    queue[w++]=dat;                        //...If/when not then store data...
 7480              		.loc 1 57 14
 7481 177a 13871500 		addi	a4,a1,1
  57:lcd.c         ****    queue[w++]=dat;                        //...If/when not then store data...
 7482              		.loc 1 57 17
 7483 177e 9356F741 		srai	a3,a4,31
 7484 1782 13D68601 		srli	a2,a3,24
 7485 1786 B306C700 		add	a3,a4,a2
 7486 178a 93F6F60F 		andi	a3,a3,255
 7487 178e 918E     		sub	a3,a3,a2
  57:lcd.c         ****    queue[w++]=dat;                        //...If/when not then store data...
 7488              		.loc 1 57 10
 7489 1790 E38FF6FC 		beq	a3,a5,.L105
  58:lcd.c         ****    w%=256;                                //...and advance write index!
 7490              		.loc 1 58 4 is_stmt 1
  58:lcd.c         ****    w%=256;                                //...and advance write index!
 7491              		.loc 1 58 14 is_stmt 0
 7492 1794 8A05     		slli	a1,a1,2
 7493 1796 CA95     		add	a1,s2,a1
 7494 1798 13071002 		li	a4,33
 7495 179c 98C1     		sw	a4,0(a1)
  59:lcd.c         **** }
 7496              		.loc 1 59 4 is_stmt 1
  59:lcd.c         **** }
 7497              		.loc 1 59 5 is_stmt 0
 7498 179e 14C0     		sw	a3,0(s0)
 7499 17a0 39A0     		j	.L347
 7500              	.L109:
 7501              	.LBE1621:
 7502              	.LBE1620:
 7503              	.LBE1619:
 7504              	.LBB1622:
 7505              	.LBB537:
 7506              	.LBB533:
  57:lcd.c         ****    queue[w++]=dat;                        //...If/when not then store data...
 7507              		.loc 1 57 27 is_stmt 1
 7508 17a2 97000000 		call	LCD_WR_Queue
 7508      E7800000 
 7509              	.LVL280:
GAS LISTING /tmp/ccIfjRGV.s 			page 175


  57:lcd.c         ****    queue[w++]=dat;                        //...If/when not then store data...
 7510              		.loc 1 57 14 is_stmt 0
 7511 17aa 1440     		lw	a3,0(s0)
  57:lcd.c         ****    queue[w++]=dat;                        //...If/when not then store data...
 7512              		.loc 1 57 22
 7513 17ac 9C40     		lw	a5,0(s1)
 7514              	.L347:
  57:lcd.c         ****    queue[w++]=dat;                        //...If/when not then store data...
 7515              		.loc 1 57 14
 7516 17ae 13871600 		addi	a4,a3,1
  57:lcd.c         ****    queue[w++]=dat;                        //...If/when not then store data...
 7517              		.loc 1 57 17
 7518 17b2 9355F741 		srai	a1,a4,31
 7519 17b6 13D68501 		srli	a2,a1,24
 7520 17ba B305C700 		add	a1,a4,a2
 7521 17be 93F5F50F 		andi	a1,a1,255
 7522 17c2 918D     		sub	a1,a1,a2
  57:lcd.c         ****    queue[w++]=dat;                        //...If/when not then store data...
 7523              		.loc 1 57 10
 7524 17c4 E38FF5FC 		beq	a1,a5,.L109
 7525 17c8 6FE0DFA2 		j	.L349
 7526              	.LBE533:
 7527              	.LBE537:
 7528              	.LBE1622:
 7529              		.cfi_endproc
 7530              	.LFE13:
 7532              		.section	.text.LCD_Clear,"ax",@progbits
 7533              		.align	1
 7534              		.globl	LCD_Clear
 7536              	LCD_Clear:
 7537              	.LFB14:
 316:lcd.c         **** 	u16 i,j;  	
 7538              		.loc 1 316 1 is_stmt 1
 7539              		.cfi_startproc
 7540              	.LVL281:
 317:lcd.c         **** 	LCD_Address_Set(0,0,LCD_W-1,LCD_H-1);
 7541              		.loc 1 317 2
 318:lcd.c         ****     for(i=0;i<LCD_W;i++)
 7542              		.loc 1 318 2
 316:lcd.c         **** 	u16 i,j;  	
 7543              		.loc 1 316 1 is_stmt 0
 7544 0000 4111     		addi	sp,sp,-16
 7545              	.LCFI31:
 7546              		.cfi_def_cfa_offset 16
 7547 0002 26C2     		sw	s1,4(sp)
 318:lcd.c         ****     for(i=0;i<LCD_W;i++)
 7548              		.loc 1 318 2
 7549 0004 9306F004 		li	a3,79
 7550              		.cfi_offset 9, -12
 316:lcd.c         **** 	u16 i,j;  	
 7551              		.loc 1 316 1
 7552 0008 AA84     		mv	s1,a0
 318:lcd.c         ****     for(i=0;i<LCD_W;i++)
 7553              		.loc 1 318 2
 7554 000a 1306F009 		li	a2,159
 7555 000e 8145     		li	a1,0
 7556 0010 0145     		li	a0,0
GAS LISTING /tmp/ccIfjRGV.s 			page 176


 7557              	.LVL282:
 316:lcd.c         **** 	u16 i,j;  	
 7558              		.loc 1 316 1
 7559 0012 4AC0     		sw	s2,0(sp)
 7560 0014 06C6     		sw	ra,12(sp)
 7561 0016 22C4     		sw	s0,8(sp)
 7562              		.cfi_offset 18, -16
 7563              		.cfi_offset 1, -4
 7564              		.cfi_offset 8, -8
 318:lcd.c         ****     for(i=0;i<LCD_W;i++)
 7565              		.loc 1 318 2
 7566 0018 1309000A 		li	s2,160
 7567 001c 97000000 		call	LCD_Address_Set
 7567      E7800000 
 7568              	.LVL283:
 319:lcd.c         **** 	  {
 7569              		.loc 1 319 5 is_stmt 1
 7570              	.L351:
 316:lcd.c         **** 	u16 i,j;  	
 7571              		.loc 1 316 1 is_stmt 0
 7572 0024 13040005 		li	s0,80
 7573              	.LVL284:
 7574              	.L352:
 323:lcd.c         **** 				}
 7575              		.loc 1 323 6 is_stmt 1 discriminator 3
 7576 0028 7D14     		addi	s0,s0,-1
 7577              	.LVL285:
 7578 002a 2685     		mv	a0,s1
 7579 002c 97000000 		call	LCD_WR_DATA
 7579      E7800000 
 7580              	.LVL286:
 321:lcd.c         **** 				{
 7581              		.loc 1 321 4 is_stmt 0 discriminator 3
 7582 0034 75F8     		bne	s0,zero,.L352
 7583              	.LVL287:
 7584 0036 7D19     		addi	s2,s2,-1
 7585              	.LVL288:
 319:lcd.c         **** 	  {
 7586              		.loc 1 319 5 discriminator 2
 7587 0038 E31609FE 		bne	s2,zero,.L351
 326:lcd.c         **** 
 7588              		.loc 1 326 1
 7589 003c B240     		lw	ra,12(sp)
 7590              		.cfi_restore 1
 7591 003e 2244     		lw	s0,8(sp)
 7592              		.cfi_restore 8
 7593 0040 9244     		lw	s1,4(sp)
 7594              		.cfi_restore 9
 7595              	.LVL289:
 7596 0042 0249     		lw	s2,0(sp)
 7597              		.cfi_restore 18
 7598              	.LVL290:
 7599 0044 4101     		addi	sp,sp,16
 7600              	.LCFI32:
 7601              		.cfi_def_cfa_offset 0
 7602 0046 8280     		jr	ra
 7603              		.cfi_endproc
GAS LISTING /tmp/ccIfjRGV.s 			page 177


 7604              	.LFE14:
 7606              		.section	.text.LCD_ShowChinese,"ax",@progbits
 7607              		.align	1
 7608              		.globl	LCD_ShowChinese
 7610              	LCD_ShowChinese:
 7611              	.LFB15:
 337:lcd.c         **** 	u8 i,j;
 7612              		.loc 1 337 1 is_stmt 1
 7613              		.cfi_startproc
 7614              	.LVL291:
 338:lcd.c         **** 	u8 *temp,size1;
 7615              		.loc 1 338 2
 339:lcd.c         **** 	if(size==16){temp=Hzk16;}               // Choose a font size
 7616              		.loc 1 339 2
 340:lcd.c         **** 	if(size==32){temp=Hzk32;}
 7617              		.loc 1 340 2
 341:lcd.c         ****     LCD_Address_Set(x,y,x+size-1,y+size-1); // Set a region of Chinese characters
 7618              		.loc 1 341 2
 337:lcd.c         **** 	u8 i,j;
 7619              		.loc 1 337 1 is_stmt 0
 7620 0000 0111     		addi	sp,sp,-32
 7621              	.LCFI33:
 7622              		.cfi_def_cfa_offset 32
 7623 0002 5AC0     		sw	s6,0(sp)
 7624              		.cfi_offset 22, -32
 7625 0004 338BD602 		mul	s6,a3,a3
 7626 0008 B687     		mv	a5,a3
 7627 000a 9306F5FF 		addi	a3,a0,-1
 7628              	.LVL292:
 7629 000e 26CA     		sw	s1,20(sp)
 7630 0010 4AC8     		sw	s2,16(sp)
 7631 0012 1388F5FF 		addi	a6,a1,-1
 7632              		.cfi_offset 9, -12
 7633              		.cfi_offset 18, -16
 7634 0016 3A89     		mv	s2,a4
 7635 0018 06CE     		sw	ra,28(sp)
 7636 001a 3387F600 		add	a4,a3,a5
 7637              	.LVL293:
 7638 001e 22CC     		sw	s0,24(sp)
 7639 0020 135B3B40 		srai	s6,s6,3
 7640 0024 9374FB0F 		andi	s1,s6,255
 7641 0028 4EC6     		sw	s3,12(sp)
 7642 002a 52C4     		sw	s4,8(sp)
 7643 002c 56C2     		sw	s5,4(sp)
 7644              		.cfi_offset 1, -4
 7645              		.cfi_offset 8, -8
 7646              		.cfi_offset 19, -20
 7647              		.cfi_offset 20, -24
 7648              		.cfi_offset 21, -28
 341:lcd.c         ****     LCD_Address_Set(x,y,x+size-1,y+size-1); // Set a region of Chinese characters
 7649              		.loc 1 341 4
 7650 002e 93080002 		li	a7,32
 7651 0032 B384C402 		mul	s1,s1,a2
 7652 0036 B306F800 		add	a3,a6,a5
 7653 003a 137BFB0F 		andi	s6,s6,0xff
 342:lcd.c         ****     size1=size*size/8;                      // The bytes occupied by a Chinese character
 7654              		.loc 1 342 5
GAS LISTING /tmp/ccIfjRGV.s 			page 178


 7655 003e 3A86     		mv	a2,a4
 7656              	.LVL294:
 341:lcd.c         ****     LCD_Address_Set(x,y,x+size-1,y+size-1); // Set a region of Chinese characters
 7657              		.loc 1 341 4
 7658 0040 63821707 		beq	a5,a7,.L357
 342:lcd.c         ****     size1=size*size/8;                      // The bytes occupied by a Chinese character
 7659              		.loc 1 342 5 is_stmt 1
 7660 0044 97000000 		call	LCD_Address_Set
 7660      E7800000 
 7661              	.LVL295:
 343:lcd.c         **** 	temp+=index*size1;                      // Start of writing
 7662              		.loc 1 343 5
 344:lcd.c         **** 	for(j=0;j<size1;j++)
 7663              		.loc 1 344 2
 344:lcd.c         **** 	for(j=0;j<size1;j++)
 7664              		.loc 1 344 6 is_stmt 0
 7665 004c B7070000 		lui	a5,%hi(.LANCHOR5)
 7666 0050 93870700 		addi	a5,a5,%lo(.LANCHOR5)
 7667 0054 BE94     		add	s1,a5,s1
 7668              	.LVL296:
 345:lcd.c         **** 	{
 7669              		.loc 1 345 2 is_stmt 1
 7670 0056 630D0B02 		beq	s6,zero,.L356
 7671              	.L358:
 337:lcd.c         **** 	u8 i,j;
 7672              		.loc 1 337 1 is_stmt 0
 7673 005a 014A     		li	s4,0
 354:lcd.c         **** 			}
 7674              		.loc 1 354 5
 7675 005c B70A0000 		lui	s5,%hi(BACK_COLOR)
 347:lcd.c         **** 		{
 7676              		.loc 1 347 3
 7677 0060 A149     		li	s3,8
 7678              	.LVL297:
 7679              	.L362:
 337:lcd.c         **** 	u8 i,j;
 7680              		.loc 1 337 1
 7681 0062 0144     		li	s0,0
 7682              	.L361:
 7683              	.LVL298:
 349:lcd.c         **** 				LCD_WR_DATA(color);         // set dot color
 7684              		.loc 1 349 5 is_stmt 1
 350:lcd.c         **** 			}
 7685              		.loc 1 350 5
 354:lcd.c         **** 			}
 7686              		.loc 1 354 5
 349:lcd.c         **** 				LCD_WR_DATA(color);         // set dot color
 7687              		.loc 1 349 9 is_stmt 0
 7688 0064 83C70400 		lbu	a5,0(s1)
 350:lcd.c         **** 			}
 7689              		.loc 1 350 5
 7690 0068 4A85     		mv	a0,s2
 349:lcd.c         **** 				LCD_WR_DATA(color);         // set dot color
 7691              		.loc 1 349 22
 7692 006a B3D78740 		sra	a5,a5,s0
 7693 006e 858B     		andi	a5,a5,1
 349:lcd.c         **** 				LCD_WR_DATA(color);         // set dot color
GAS LISTING /tmp/ccIfjRGV.s 			page 179


 7694              		.loc 1 349 7
 7695 0070 99E3     		bne	a5,zero,.L367
 7696              	.LVL299:
 354:lcd.c         **** 			}
 7697              		.loc 1 354 5
 7698 0072 03A50A00 		lw	a0,%lo(BACK_COLOR)(s5)
 7699              	.LVL300:
 7700              	.L367:
 7701 0076 0504     		addi	s0,s0,1
 7702              	.LVL301:
 7703 0078 97000000 		call	LCD_WR_DATA
 7703      E7800000 
 7704              	.LVL302:
 347:lcd.c         **** 		{
 7705              		.loc 1 347 3
 7706 0080 E31234FF 		bne	s0,s3,.L361
 357:lcd.c         **** 	 }
 7707              		.loc 1 357 3 is_stmt 1 discriminator 2
 345:lcd.c         **** 	{
 7708              		.loc 1 345 19 is_stmt 0 discriminator 2
 7709 0084 050A     		addi	s4,s4,1
 7710              	.LVL303:
 7711 0086 137AFA0F 		andi	s4,s4,0xff
 357:lcd.c         **** 	 }
 7712              		.loc 1 357 7 discriminator 2
 7713 008a 8504     		addi	s1,s1,1
 7714              	.LVL304:
 345:lcd.c         **** 	{
 7715              		.loc 1 345 2 discriminator 2
 7716 008c E36B6AFD 		bltu	s4,s6,.L362
 7717              	.LVL305:
 7718              	.L356:
 359:lcd.c         **** 
 7719              		.loc 1 359 1
 7720 0090 F240     		lw	ra,28(sp)
 7721              		.cfi_remember_state
 7722              		.cfi_restore 1
 7723 0092 6244     		lw	s0,24(sp)
 7724              		.cfi_restore 8
 7725 0094 D244     		lw	s1,20(sp)
 7726              		.cfi_restore 9
 7727              	.LVL306:
 7728 0096 4249     		lw	s2,16(sp)
 7729              		.cfi_restore 18
 7730              	.LVL307:
 7731 0098 B249     		lw	s3,12(sp)
 7732              		.cfi_restore 19
 7733 009a 224A     		lw	s4,8(sp)
 7734              		.cfi_restore 20
 7735 009c 924A     		lw	s5,4(sp)
 7736              		.cfi_restore 21
 7737 009e 024B     		lw	s6,0(sp)
 7738              		.cfi_restore 22
 7739 00a0 0561     		addi	sp,sp,32
 7740              	.LCFI34:
 7741              		.cfi_def_cfa_offset 0
 7742 00a2 8280     		jr	ra
GAS LISTING /tmp/ccIfjRGV.s 			page 180


 7743              	.LVL308:
 7744              	.L357:
 7745              	.LCFI35:
 7746              		.cfi_restore_state
 342:lcd.c         ****     size1=size*size/8;                      // The bytes occupied by a Chinese character
 7747              		.loc 1 342 5 is_stmt 1
 7748 00a4 97000000 		call	LCD_Address_Set
 7748      E7800000 
 7749              	.LVL309:
 343:lcd.c         **** 	temp+=index*size1;                      // Start of writing
 7750              		.loc 1 343 5
 344:lcd.c         **** 	for(j=0;j<size1;j++)
 7751              		.loc 1 344 2
 344:lcd.c         **** 	for(j=0;j<size1;j++)
 7752              		.loc 1 344 6 is_stmt 0
 7753 00ac B7070000 		lui	a5,%hi(.LANCHOR6)
 7754 00b0 93870700 		addi	a5,a5,%lo(.LANCHOR6)
 7755 00b4 BE94     		add	s1,a5,s1
 7756              	.LVL310:
 345:lcd.c         **** 	{
 7757              		.loc 1 345 2 is_stmt 1
 7758 00b6 55B7     		j	.L358
 7759              		.cfi_endproc
 7760              	.LFE15:
 7762              		.section	.text.LCD_DrawPoint,"ax",@progbits
 7763              		.align	1
 7764              		.globl	LCD_DrawPoint
 7766              	LCD_DrawPoint:
 7767              	.LFB16:
 368:lcd.c         **** 	LCD_Address_Set(x,y,x,y); // Set cursor position
 7768              		.loc 1 368 1
 7769              		.cfi_startproc
 7770              	.LVL311:
 369:lcd.c         **** 	LCD_WR_DATA(color);
 7771              		.loc 1 369 2
 368:lcd.c         **** 	LCD_Address_Set(x,y,x,y); // Set cursor position
 7772              		.loc 1 368 1 is_stmt 0
 7773 0000 4111     		addi	sp,sp,-16
 7774              	.LCFI36:
 7775              		.cfi_def_cfa_offset 16
 7776 0002 22C4     		sw	s0,8(sp)
 369:lcd.c         **** 	LCD_WR_DATA(color);
 7777              		.loc 1 369 2
 7778 0004 AE86     		mv	a3,a1
 7779              		.cfi_offset 8, -8
 368:lcd.c         **** 	LCD_Address_Set(x,y,x,y); // Set cursor position
 7780              		.loc 1 368 1
 7781 0006 3284     		mv	s0,a2
 369:lcd.c         **** 	LCD_WR_DATA(color);
 7782              		.loc 1 369 2
 7783 0008 2A86     		mv	a2,a0
 7784              	.LVL312:
 368:lcd.c         **** 	LCD_Address_Set(x,y,x,y); // Set cursor position
 7785              		.loc 1 368 1
 7786 000a 06C6     		sw	ra,12(sp)
 7787              		.cfi_offset 1, -4
 369:lcd.c         **** 	LCD_WR_DATA(color);
GAS LISTING /tmp/ccIfjRGV.s 			page 181


 7788              		.loc 1 369 2
 7789 000c 97000000 		call	LCD_Address_Set
 7789      E7800000 
 7790              	.LVL313:
 370:lcd.c         **** } 
 7791              		.loc 1 370 2 is_stmt 1
 7792 0014 2285     		mv	a0,s0
 371:lcd.c         **** 
 7793              		.loc 1 371 1 is_stmt 0
 7794 0016 2244     		lw	s0,8(sp)
 7795              		.cfi_restore 8
 7796              	.LVL314:
 7797 0018 B240     		lw	ra,12(sp)
 7798              		.cfi_restore 1
 7799 001a 4101     		addi	sp,sp,16
 7800              	.LCFI37:
 7801              		.cfi_def_cfa_offset 0
 370:lcd.c         **** } 
 7802              		.loc 1 370 2
 7803 001c 17030000 		tail	LCD_WR_DATA
 7803      67000300 
 7804              	.LVL315:
 7805              		.cfi_endproc
 7806              	.LFE16:
 7808              		.section	.text.LCD_Fill,"ax",@progbits
 7809              		.align	1
 7810              		.globl	LCD_Fill
 7812              	LCD_Fill:
 7813              	.LFB18:
 392:lcd.c         **** 	u16 i,j; 
 7814              		.loc 1 392 1 is_stmt 1
 7815              		.cfi_startproc
 7816              	.LVL316:
 393:lcd.c         **** 	LCD_Address_Set(xsta,ysta,xend,yend);          //Set cursor position
 7817              		.loc 1 393 2
 394:lcd.c         **** 	for(i=ysta;i<=yend;i++)
 7818              		.loc 1 394 2
 392:lcd.c         **** 	u16 i,j; 
 7819              		.loc 1 392 1 is_stmt 0
 7820 0000 0111     		addi	sp,sp,-32
 7821              	.LCFI38:
 7822              		.cfi_def_cfa_offset 32
 7823 0002 4EC6     		sw	s3,12(sp)
 7824 0004 56C2     		sw	s5,4(sp)
 7825              		.cfi_offset 19, -20
 7826              		.cfi_offset 21, -28
 7827 0006 AE89     		mv	s3,a1
 7828 0008 B68A     		mv	s5,a3
 7829 000a 26CA     		sw	s1,20(sp)
 7830 000c 4AC8     		sw	s2,16(sp)
 7831 000e 52C4     		sw	s4,8(sp)
 7832 0010 06CE     		sw	ra,28(sp)
 7833 0012 22CC     		sw	s0,24(sp)
 7834              		.cfi_offset 9, -12
 7835              		.cfi_offset 18, -16
 7836              		.cfi_offset 20, -24
 7837              		.cfi_offset 1, -4
GAS LISTING /tmp/ccIfjRGV.s 			page 182


 7838              		.cfi_offset 8, -8
 392:lcd.c         **** 	u16 i,j; 
 7839              		.loc 1 392 1
 7840 0014 2A8A     		mv	s4,a0
 7841 0016 B284     		mv	s1,a2
 7842 0018 3A89     		mv	s2,a4
 394:lcd.c         **** 	for(i=ysta;i<=yend;i++)
 7843              		.loc 1 394 2
 7844 001a 97000000 		call	LCD_Address_Set
 7844      E7800000 
 7845              	.LVL317:
 395:lcd.c         **** 	{													   	 	
 7846              		.loc 1 395 2 is_stmt 1
 7847 0022 63E03A03 		bgtu	s3,s5,.L370
 7848              	.LVL318:
 7849              	.L371:
 397:lcd.c         **** 	} 					  	    
 7850              		.loc 1 397 3 is_stmt 0
 7851 0026 5284     		mv	s0,s4
 7852 0028 63EA4401 		bgtu	s4,s1,.L374
 7853              	.LVL319:
 7854              	.L373:
 397:lcd.c         **** 	} 					  	    
 7855              		.loc 1 397 26 is_stmt 1 discriminator 3
 397:lcd.c         **** 	} 					  	    
 7856              		.loc 1 397 23 is_stmt 0 discriminator 3
 7857 002c 0504     		addi	s0,s0,1
 7858              	.LVL320:
 397:lcd.c         **** 	} 					  	    
 7859              		.loc 1 397 26 discriminator 3
 7860 002e 4A85     		mv	a0,s2
 7861 0030 97000000 		call	LCD_WR_DATA
 7861      E7800000 
 7862              	.LVL321:
 397:lcd.c         **** 	} 					  	    
 7863              		.loc 1 397 3 discriminator 3
 7864 0038 E3FA84FE 		bgeu	s1,s0,.L373
 7865              	.L374:
 395:lcd.c         **** 	{													   	 	
 7866              		.loc 1 395 22
 7867 003c 8509     		addi	s3,s3,1
 7868              	.LVL322:
 395:lcd.c         **** 	{													   	 	
 7869              		.loc 1 395 2
 7870 003e E3F43AFF 		bgeu	s5,s3,.L371
 7871              	.LVL323:
 7872              	.L370:
 399:lcd.c         **** 
 7873              		.loc 1 399 1
 7874 0042 F240     		lw	ra,28(sp)
 7875              		.cfi_restore 1
 7876 0044 6244     		lw	s0,24(sp)
 7877              		.cfi_restore 8
 7878 0046 D244     		lw	s1,20(sp)
 7879              		.cfi_restore 9
 7880              	.LVL324:
 7881 0048 4249     		lw	s2,16(sp)
GAS LISTING /tmp/ccIfjRGV.s 			page 183


 7882              		.cfi_restore 18
 7883              	.LVL325:
 7884 004a B249     		lw	s3,12(sp)
 7885              		.cfi_restore 19
 7886              	.LVL326:
 7887 004c 224A     		lw	s4,8(sp)
 7888              		.cfi_restore 20
 7889              	.LVL327:
 7890 004e 924A     		lw	s5,4(sp)
 7891              		.cfi_restore 21
 7892              	.LVL328:
 7893 0050 0561     		addi	sp,sp,32
 7894              	.LCFI39:
 7895              		.cfi_def_cfa_offset 0
 7896 0052 8280     		jr	ra
 7897              		.cfi_endproc
 7898              	.LFE18:
 7900              		.section	.text.LCD_DrawPoint_big,"ax",@progbits
 7901              		.align	1
 7902              		.globl	LCD_DrawPoint_big
 7904              	LCD_DrawPoint_big:
 7905              	.LFB17:
 380:lcd.c         **** 	LCD_Fill(x-1,y-1,x+1,y+1,color);
 7906              		.loc 1 380 1 is_stmt 1
 7907              		.cfi_startproc
 7908              	.LVL329:
 381:lcd.c         **** } 
 7909              		.loc 1 381 2
 7910 0000 3287     		mv	a4,a2
 7911 0002 93861500 		addi	a3,a1,1
 7912 0006 13061500 		addi	a2,a0,1
 7913              	.LVL330:
 7914 000a FD15     		addi	a1,a1,-1
 7915              	.LVL331:
 7916 000c 7D15     		addi	a0,a0,-1
 7917              	.LVL332:
 7918 000e 17030000 		tail	LCD_Fill
 7918      67000300 
 7919              	.LVL333:
 7920              		.cfi_endproc
 7921              	.LFE17:
 7923              		.section	.text.LCD_DrawLine,"ax",@progbits
 7924              		.align	1
 7925              		.globl	LCD_DrawLine
 7927              	LCD_DrawLine:
 7928              	.LFB19:
 409:lcd.c         **** 	u16 t; 
 7929              		.loc 1 409 1
 7930              		.cfi_startproc
 7931              	.LVL334:
 410:lcd.c         **** 	int xerr=0,yerr=0,delta_x,delta_y,distance;
 7932              		.loc 1 410 2
 411:lcd.c         **** 	int incx,incy,uRow,uCol;
 7933              		.loc 1 411 2
 412:lcd.c         **** 	delta_x=x2-x1;                       // Calculate coordinate increments
 7934              		.loc 1 412 2
 413:lcd.c         **** 	delta_y=y2-y1;
GAS LISTING /tmp/ccIfjRGV.s 			page 184


 7935              		.loc 1 413 2
 409:lcd.c         **** 	u16 t; 
 7936              		.loc 1 409 1 is_stmt 0
 7937 0000 7971     		addi	sp,sp,-48
 7938              	.LCFI40:
 7939              		.cfi_def_cfa_offset 48
 7940 0002 4ECE     		sw	s3,28(sp)
 7941 0004 52CC     		sw	s4,24(sp)
 7942 0006 5AC8     		sw	s6,16(sp)
 7943 0008 5EC6     		sw	s7,12(sp)
 7944 000a 62C4     		sw	s8,8(sp)
 7945 000c 66C2     		sw	s9,4(sp)
 7946 000e 06D6     		sw	ra,44(sp)
 7947 0010 22D4     		sw	s0,40(sp)
 7948 0012 26D2     		sw	s1,36(sp)
 7949 0014 4AD0     		sw	s2,32(sp)
 7950 0016 56CA     		sw	s5,20(sp)
 7951 0018 6AC0     		sw	s10,0(sp)
 7952              		.cfi_offset 19, -20
 7953              		.cfi_offset 20, -24
 7954              		.cfi_offset 22, -32
 7955              		.cfi_offset 23, -36
 7956              		.cfi_offset 24, -40
 7957              		.cfi_offset 25, -44
 7958              		.cfi_offset 1, -4
 7959              		.cfi_offset 8, -8
 7960              		.cfi_offset 9, -12
 7961              		.cfi_offset 18, -16
 7962              		.cfi_offset 21, -28
 7963              		.cfi_offset 26, -48
 413:lcd.c         **** 	delta_y=y2-y1;
 7964              		.loc 1 413 12
 7965 001a 330BA640 		sub	s6,a2,a0
 7966              	.LVL335:
 414:lcd.c         **** 	uRow=x1;                             // Coordinates of starting point of drawing
 7967              		.loc 1 414 2 is_stmt 1
 409:lcd.c         **** 	u16 t; 
 7968              		.loc 1 409 1 is_stmt 0
 7969 001e 3A8C     		mv	s8,a4
 414:lcd.c         **** 	uRow=x1;                             // Coordinates of starting point of drawing
 7970              		.loc 1 414 12
 7971 0020 B38BB640 		sub	s7,a3,a1
 7972              	.LVL336:
 415:lcd.c         **** 	uCol=y1;
 7973              		.loc 1 415 2 is_stmt 1
 415:lcd.c         **** 	uCol=y1;
 7974              		.loc 1 415 6 is_stmt 0
 7975 0024 AA89     		mv	s3,a0
 7976              	.LVL337:
 416:lcd.c         **** 	if(delta_x>0)incx=1;                 // Set single step direction
 7977              		.loc 1 416 2 is_stmt 1
 416:lcd.c         **** 	if(delta_x>0)incx=1;                 // Set single step direction
 7978              		.loc 1 416 6 is_stmt 0
 7979 0026 2E8A     		mv	s4,a1
 7980              	.LVL338:
 417:lcd.c         **** 	else if (delta_x==0)incx=0;          // Vertical line
 7981              		.loc 1 417 2 is_stmt 1
GAS LISTING /tmp/ccIfjRGV.s 			page 185


 417:lcd.c         **** 	else if (delta_x==0)incx=0;          // Vertical line
 7982              		.loc 1 417 19 is_stmt 0
 7983 0028 854C     		li	s9,1
 417:lcd.c         **** 	else if (delta_x==0)incx=0;          // Vertical line
 7984              		.loc 1 417 4
 7985 002a 63586007 		ble	s6,zero,.L396
 7986              	.L382:
 7987              	.LVL339:
 420:lcd.c         **** 	else if (delta_y==0)incy=0;          // Horizontal line
 7988              		.loc 1 420 2 is_stmt 1
 420:lcd.c         **** 	else if (delta_y==0)incy=0;          // Horizontal line
 7989              		.loc 1 420 19 is_stmt 0
 7990 002e 054D     		li	s10,1
 420:lcd.c         **** 	else if (delta_y==0)incy=0;          // Horizontal line
 7991              		.loc 1 420 4
 7992 0030 635E7007 		ble	s7,zero,.L397
 7993              	.L383:
 7994              	.LVL340:
 423:lcd.c         **** 	else distance=delta_y;
 7995              		.loc 1 423 2 is_stmt 1
 7996 0034 5A84     		mv	s0,s6
 7997 0036 63537B01 		bge	s6,s7,.L384
 7998              	.LVL341:
 7999 003a 5E84     		mv	s0,s7
 8000              	.LVL342:
 8001              	.L384:
 425:lcd.c         **** 	{
 8002              		.loc 1 425 2
 411:lcd.c         **** 	int incx,incy,uRow,uCol;
 8003              		.loc 1 411 13 is_stmt 0
 8004 003c 0149     		li	s2,0
 411:lcd.c         **** 	int incx,incy,uRow,uCol;
 8005              		.loc 1 411 6
 8006 003e 8144     		li	s1,0
 425:lcd.c         **** 	{
 8007              		.loc 1 425 7
 8008 0040 814A     		li	s5,0
 8009              	.LVL343:
 8010              	.L387:
 427:lcd.c         **** 		xerr+=delta_x;
 8011              		.loc 1 427 3 is_stmt 1
 8012              	.LBB1623:
 8013              	.LBB1624:
 369:lcd.c         **** 	LCD_WR_DATA(color);
 8014              		.loc 1 369 2
 8015 0042 D286     		mv	a3,s4
 8016 0044 4E86     		mv	a2,s3
 8017 0046 D285     		mv	a1,s4
 8018 0048 4E85     		mv	a0,s3
 8019 004a 97000000 		call	LCD_Address_Set
 8019      E7800000 
 8020              	.LVL344:
 370:lcd.c         **** } 
 8021              		.loc 1 370 2
 8022 0052 6285     		mv	a0,s8
 8023              	.LBE1624:
 8024              	.LBE1623:
GAS LISTING /tmp/ccIfjRGV.s 			page 186


 428:lcd.c         **** 		yerr+=delta_y;
 8025              		.loc 1 428 7 is_stmt 0
 8026 0054 DA94     		add	s1,s1,s6
 8027              	.LVL345:
 8028              	.LBB1626:
 8029              	.LBB1625:
 370:lcd.c         **** } 
 8030              		.loc 1 370 2
 8031 0056 97000000 		call	LCD_WR_DATA
 8031      E7800000 
 8032              	.LVL346:
 8033              	.LBE1625:
 8034              	.LBE1626:
 428:lcd.c         **** 		yerr+=delta_y;
 8035              		.loc 1 428 3 is_stmt 1
 429:lcd.c         **** 		if(xerr>distance)
 8036              		.loc 1 429 3
 432:lcd.c         **** 			uRow+=incx;
 8037              		.loc 1 432 4
 437:lcd.c         **** 			uCol+=incy;
 8038              		.loc 1 437 4
 429:lcd.c         **** 		if(xerr>distance)
 8039              		.loc 1 429 7 is_stmt 0
 8040 005e 5E99     		add	s2,s2,s7
 8041              	.LVL347:
 430:lcd.c         **** 		{
 8042              		.loc 1 430 3 is_stmt 1
 430:lcd.c         **** 		{
 8043              		.loc 1 430 5 is_stmt 0
 8044 0060 63549400 		ble	s1,s0,.L385
 432:lcd.c         **** 			uRow+=incx;
 8045              		.loc 1 432 8
 8046 0064 818C     		sub	s1,s1,s0
 8047              	.LVL348:
 433:lcd.c         **** 		}
 8048              		.loc 1 433 4 is_stmt 1
 433:lcd.c         **** 		}
 8049              		.loc 1 433 8 is_stmt 0
 8050 0066 E699     		add	s3,s3,s9
 8051              	.LVL349:
 8052              	.L385:
 435:lcd.c         **** 		{
 8053              		.loc 1 435 3 is_stmt 1
 435:lcd.c         **** 		{
 8054              		.loc 1 435 5 is_stmt 0
 8055 0068 63552401 		ble	s2,s0,.L386
 437:lcd.c         **** 			uCol+=incy;
 8056              		.loc 1 437 8
 8057 006c 33098940 		sub	s2,s2,s0
 8058              	.LVL350:
 438:lcd.c         **** 		}
 8059              		.loc 1 438 4 is_stmt 1
 438:lcd.c         **** 		}
 8060              		.loc 1 438 8 is_stmt 0
 8061 0070 6A9A     		add	s4,s4,s10
 8062              	.LVL351:
 8063              	.L386:
GAS LISTING /tmp/ccIfjRGV.s 			page 187


 425:lcd.c         **** 	{
 8064              		.loc 1 425 24 discriminator 2
 8065 0072 93871A00 		addi	a5,s5,1
 8066              	.LVL352:
 425:lcd.c         **** 	{
 8067              		.loc 1 425 2 discriminator 2
 8068 0076 63848A00 		beq	s5,s0,.L398
 8069 007a BE8A     		mv	s5,a5
 8070 007c D9B7     		j	.L387
 8071              	.L398:
 441:lcd.c         **** 
 8072              		.loc 1 441 1
 8073 007e B250     		lw	ra,44(sp)
 8074              		.cfi_remember_state
 8075              		.cfi_restore 1
 8076 0080 2254     		lw	s0,40(sp)
 8077              		.cfi_restore 8
 8078              	.LVL353:
 8079 0082 9254     		lw	s1,36(sp)
 8080              		.cfi_restore 9
 8081              	.LVL354:
 8082 0084 0259     		lw	s2,32(sp)
 8083              		.cfi_restore 18
 8084              	.LVL355:
 8085 0086 F249     		lw	s3,28(sp)
 8086              		.cfi_restore 19
 8087              	.LVL356:
 8088 0088 624A     		lw	s4,24(sp)
 8089              		.cfi_restore 20
 8090              	.LVL357:
 8091 008a D24A     		lw	s5,20(sp)
 8092              		.cfi_restore 21
 8093 008c 424B     		lw	s6,16(sp)
 8094              		.cfi_restore 22
 8095              	.LVL358:
 8096 008e B24B     		lw	s7,12(sp)
 8097              		.cfi_restore 23
 8098              	.LVL359:
 8099 0090 224C     		lw	s8,8(sp)
 8100              		.cfi_restore 24
 8101              	.LVL360:
 8102 0092 924C     		lw	s9,4(sp)
 8103              		.cfi_restore 25
 8104              	.LVL361:
 8105 0094 024D     		lw	s10,0(sp)
 8106              		.cfi_restore 26
 8107              	.LVL362:
 8108 0096 4561     		addi	sp,sp,48
 8109              	.LCFI41:
 8110              		.cfi_def_cfa_offset 0
 8111 0098 8280     		jr	ra
 8112              	.LVL363:
 8113              	.L396:
 8114              	.LCFI42:
 8115              		.cfi_restore_state
 418:lcd.c         **** 	else {incx=-1;delta_x=-delta_x;}
 8116              		.loc 1 418 7 is_stmt 1
GAS LISTING /tmp/ccIfjRGV.s 			page 188


 418:lcd.c         **** 	else {incx=-1;delta_x=-delta_x;}
 8117              		.loc 1 418 26 is_stmt 0
 8118 009a 814C     		li	s9,0
 418:lcd.c         **** 	else {incx=-1;delta_x=-delta_x;}
 8119              		.loc 1 418 10
 8120 009c E3090BF8 		beq	s6,zero,.L382
 419:lcd.c         **** 	if(delta_y>0)incy=1;
 8121              		.loc 1 419 8 is_stmt 1
 8122              	.LVL364:
 419:lcd.c         **** 	if(delta_y>0)incy=1;
 8123              		.loc 1 419 16
 419:lcd.c         **** 	if(delta_y>0)incy=1;
 8124              		.loc 1 419 23 is_stmt 0
 8125 00a0 330B6041 		neg	s6,s6
 8126              	.LVL365:
 419:lcd.c         **** 	if(delta_y>0)incy=1;
 8127              		.loc 1 419 12
 8128 00a4 FD5C     		li	s9,-1
 8129              	.LVL366:
 420:lcd.c         **** 	else if (delta_y==0)incy=0;          // Horizontal line
 8130              		.loc 1 420 2 is_stmt 1
 420:lcd.c         **** 	else if (delta_y==0)incy=0;          // Horizontal line
 8131              		.loc 1 420 19 is_stmt 0
 8132 00a6 054D     		li	s10,1
 420:lcd.c         **** 	else if (delta_y==0)incy=0;          // Horizontal line
 8133              		.loc 1 420 4
 8134 00a8 E34670F9 		bgt	s7,zero,.L383
 8135              	.L397:
 421:lcd.c         **** 	else {incy=-1;delta_y=-delta_y;}
 8136              		.loc 1 421 7 is_stmt 1
 421:lcd.c         **** 	else {incy=-1;delta_y=-delta_y;}
 8137              		.loc 1 421 26 is_stmt 0
 8138 00ac 014D     		li	s10,0
 421:lcd.c         **** 	else {incy=-1;delta_y=-delta_y;}
 8139              		.loc 1 421 10
 8140 00ae E3830BF8 		beq	s7,zero,.L383
 422:lcd.c         **** 	if(delta_x>delta_y)distance=delta_x; // Pick basic incremental axis
 8141              		.loc 1 422 8 is_stmt 1
 8142              	.LVL367:
 422:lcd.c         **** 	if(delta_x>delta_y)distance=delta_x; // Pick basic incremental axis
 8143              		.loc 1 422 16
 422:lcd.c         **** 	if(delta_x>delta_y)distance=delta_x; // Pick basic incremental axis
 8144              		.loc 1 422 23 is_stmt 0
 8145 00b2 B30B7041 		neg	s7,s7
 8146              	.LVL368:
 422:lcd.c         **** 	if(delta_x>delta_y)distance=delta_x; // Pick basic incremental axis
 8147              		.loc 1 422 12
 8148 00b6 7D5D     		li	s10,-1
 8149 00b8 B5BF     		j	.L383
 8150              		.cfi_endproc
 8151              	.LFE19:
 8153              		.section	.text.LCD_DrawRectangle,"ax",@progbits
 8154              		.align	1
 8155              		.globl	LCD_DrawRectangle
 8157              	LCD_DrawRectangle:
 8158              	.LFB20:
 451:lcd.c         **** 	LCD_DrawLine(x1,y1,x2,y1,color);
GAS LISTING /tmp/ccIfjRGV.s 			page 189


 8159              		.loc 1 451 1 is_stmt 1
 8160              		.cfi_startproc
 8161              	.LVL369:
 452:lcd.c         **** 	LCD_DrawLine(x1,y1,x1,y2,color);
 8162              		.loc 1 452 2
 451:lcd.c         **** 	LCD_DrawLine(x1,y1,x2,y1,color);
 8163              		.loc 1 451 1 is_stmt 0
 8164 0000 0111     		addi	sp,sp,-32
 8165              	.LCFI43:
 8166              		.cfi_def_cfa_offset 32
 8167 0002 22CC     		sw	s0,24(sp)
 8168              		.cfi_offset 8, -8
 8169 0004 3684     		mv	s0,a3
 452:lcd.c         **** 	LCD_DrawLine(x1,y1,x1,y2,color);
 8170              		.loc 1 452 2
 8171 0006 AE86     		mv	a3,a1
 8172              	.LVL370:
 451:lcd.c         **** 	LCD_DrawLine(x1,y1,x2,y1,color);
 8173              		.loc 1 451 1
 8174 0008 06CE     		sw	ra,28(sp)
 8175 000a 26CA     		sw	s1,20(sp)
 8176 000c 4AC8     		sw	s2,16(sp)
 8177 000e 4EC6     		sw	s3,12(sp)
 8178 0010 52C4     		sw	s4,8(sp)
 8179              		.cfi_offset 1, -4
 8180              		.cfi_offset 9, -12
 8181              		.cfi_offset 18, -16
 8182              		.cfi_offset 19, -20
 8183              		.cfi_offset 20, -24
 451:lcd.c         **** 	LCD_DrawLine(x1,y1,x2,y1,color);
 8184              		.loc 1 451 1
 8185 0012 3A89     		mv	s2,a4
 8186 0014 328A     		mv	s4,a2
 8187 0016 AA89     		mv	s3,a0
 8188 0018 AE84     		mv	s1,a1
 452:lcd.c         **** 	LCD_DrawLine(x1,y1,x1,y2,color);
 8189              		.loc 1 452 2
 8190 001a 97000000 		call	LCD_DrawLine
 8190      E7800000 
 8191              	.LVL371:
 453:lcd.c         **** 	LCD_DrawLine(x1,y2,x2,y2,color);
 8192              		.loc 1 453 2 is_stmt 1
 8193 0022 4A87     		mv	a4,s2
 8194 0024 A286     		mv	a3,s0
 8195 0026 4E86     		mv	a2,s3
 8196 0028 A685     		mv	a1,s1
 8197 002a 4E85     		mv	a0,s3
 8198 002c 97000000 		call	LCD_DrawLine
 8198      E7800000 
 8199              	.LVL372:
 454:lcd.c         **** 	LCD_DrawLine(x2,y1,x2,y2,color);
 8200              		.loc 1 454 2
 8201 0034 4A87     		mv	a4,s2
 8202 0036 A286     		mv	a3,s0
 8203 0038 5286     		mv	a2,s4
 8204 003a A285     		mv	a1,s0
 8205 003c 4E85     		mv	a0,s3
GAS LISTING /tmp/ccIfjRGV.s 			page 190


 8206 003e 97000000 		call	LCD_DrawLine
 8206      E7800000 
 8207              	.LVL373:
 455:lcd.c         **** }
 8208              		.loc 1 455 2
 8209 0046 A286     		mv	a3,s0
 456:lcd.c         **** 
 8210              		.loc 1 456 1 is_stmt 0
 8211 0048 6244     		lw	s0,24(sp)
 8212              		.cfi_restore 8
 8213              	.LVL374:
 8214 004a F240     		lw	ra,28(sp)
 8215              		.cfi_restore 1
 8216 004c B249     		lw	s3,12(sp)
 8217              		.cfi_restore 19
 8218              	.LVL375:
 455:lcd.c         **** }
 8219              		.loc 1 455 2
 8220 004e 4A87     		mv	a4,s2
 8221 0050 5286     		mv	a2,s4
 456:lcd.c         **** 
 8222              		.loc 1 456 1
 8223 0052 4249     		lw	s2,16(sp)
 8224              		.cfi_restore 18
 8225              	.LVL376:
 455:lcd.c         **** }
 8226              		.loc 1 455 2
 8227 0054 A685     		mv	a1,s1
 8228 0056 5285     		mv	a0,s4
 456:lcd.c         **** 
 8229              		.loc 1 456 1
 8230 0058 D244     		lw	s1,20(sp)
 8231              		.cfi_restore 9
 8232              	.LVL377:
 8233 005a 224A     		lw	s4,8(sp)
 8234              		.cfi_restore 20
 8235              	.LVL378:
 8236 005c 0561     		addi	sp,sp,32
 8237              	.LCFI44:
 8238              		.cfi_def_cfa_offset 0
 455:lcd.c         **** }
 8239              		.loc 1 455 2
 8240 005e 17030000 		tail	LCD_DrawLine
 8240      67000300 
 8241              	.LVL379:
 8242              		.cfi_endproc
 8243              	.LFE20:
 8245              		.section	.text.Draw_Circle,"ax",@progbits
 8246              		.align	1
 8247              		.globl	Draw_Circle
 8249              	Draw_Circle:
 8250              	.LFB21:
 466:lcd.c         **** 	int a,b;
 8251              		.loc 1 466 1 is_stmt 1
 8252              		.cfi_startproc
 8253              	.LVL380:
 467:lcd.c         **** 	// int di;
GAS LISTING /tmp/ccIfjRGV.s 			page 191


 8254              		.loc 1 467 2
 469:lcd.c         **** 	while(a<=b)
 8255              		.loc 1 469 2
 469:lcd.c         **** 	while(a<=b)
 8256              		.loc 1 469 6
 481:lcd.c         **** 		{
 8257              		.loc 1 481 18 is_stmt 0
 8258 0000 B307C602 		mul	a5,a2,a2
 466:lcd.c         **** 	int a,b;
 8259              		.loc 1 466 1
 8260 0004 5D71     		addi	sp,sp,-80
 8261              	.LCFI45:
 8262              		.cfi_def_cfa_offset 80
 8263 0006 CAC0     		sw	s2,64(sp)
 8264 0008 4EDE     		sw	s3,60(sp)
 8265 000a 52DC     		sw	s4,56(sp)
 8266 000c 56DA     		sw	s5,52(sp)
 8267 000e 5AD8     		sw	s6,48(sp)
 8268 0010 86C6     		sw	ra,76(sp)
 8269 0012 A2C4     		sw	s0,72(sp)
 8270 0014 A6C2     		sw	s1,68(sp)
 8271 0016 5ED6     		sw	s7,44(sp)
 8272 0018 62D4     		sw	s8,40(sp)
 8273 001a 66D2     		sw	s9,36(sp)
 8274 001c 6AD0     		sw	s10,32(sp)
 8275 001e 6ECE     		sw	s11,28(sp)
 8276              		.cfi_offset 18, -16
 8277              		.cfi_offset 19, -20
 8278              		.cfi_offset 20, -24
 8279              		.cfi_offset 21, -28
 8280              		.cfi_offset 22, -32
 8281              		.cfi_offset 1, -4
 8282              		.cfi_offset 8, -8
 8283              		.cfi_offset 9, -12
 8284              		.cfi_offset 23, -36
 8285              		.cfi_offset 24, -40
 8286              		.cfi_offset 25, -44
 8287              		.cfi_offset 26, -48
 8288              		.cfi_offset 27, -52
 469:lcd.c         **** 	while(a<=b)
 8289              		.loc 1 469 7
 8290 0020 3289     		mv	s2,a2
 8291              	.LVL381:
 470:lcd.c         **** 	{
 8292              		.loc 1 470 2 is_stmt 1
 481:lcd.c         **** 		{
 8293              		.loc 1 481 18 is_stmt 0
 8294 0022 3EC6     		sw	a5,12(sp)
 466:lcd.c         **** 	int a,b;
 8295              		.loc 1 466 1
 8296 0024 2A8B     		mv	s6,a0
 8297 0026 AE8A     		mv	s5,a1
 8298 0028 368A     		mv	s4,a3
 469:lcd.c         **** 	while(a<=b)
 8299              		.loc 1 469 3
 8300 002a 8149     		li	s3,0
 8301              	.LVL382:
GAS LISTING /tmp/ccIfjRGV.s 			page 192


 8302              	.L403:
 472:lcd.c         **** 		LCD_DrawPoint(x0+b,y0-a,color);  //0           
 8303              		.loc 1 472 3 is_stmt 1
 8304 002c 33843A41 		sub	s0,s5,s3
 8305 0030 330C2B41 		sub	s8,s6,s2
 8306              	.LVL383:
 8307              	.LBB1627:
 8308              	.LBB1628:
 369:lcd.c         **** 	LCD_WR_DATA(color);
 8309              		.loc 1 369 2
 8310 0034 A286     		mv	a3,s0
 8311 0036 A285     		mv	a1,s0
 8312 0038 6286     		mv	a2,s8
 8313 003a 6285     		mv	a0,s8
 8314 003c 97000000 		call	LCD_Address_Set
 8314      E7800000 
 8315              	.LVL384:
 370:lcd.c         **** } 
 8316              		.loc 1 370 2
 8317 0044 5285     		mv	a0,s4
 8318 0046 97000000 		call	LCD_WR_DATA
 8318      E7800000 
 8319              	.LVL385:
 8320              	.LBE1628:
 8321              	.LBE1627:
 473:lcd.c         **** 		LCD_DrawPoint(x0-a,y0+b,color);  //1                
 8322              		.loc 1 473 3
 8323 004e B30B6901 		add	s7,s2,s6
 8324              	.LVL386:
 8325              	.LBB1629:
 8326              	.LBB1630:
 369:lcd.c         **** 	LCD_WR_DATA(color);
 8327              		.loc 1 369 2
 8328 0052 A286     		mv	a3,s0
 8329 0054 A285     		mv	a1,s0
 8330 0056 5E86     		mv	a2,s7
 8331 0058 5E85     		mv	a0,s7
 8332 005a 97000000 		call	LCD_Address_Set
 8332      E7800000 
 8333              	.LVL387:
 370:lcd.c         **** } 
 8334              		.loc 1 370 2
 8335 0062 5285     		mv	a0,s4
 8336 0064 97000000 		call	LCD_WR_DATA
 8336      E7800000 
 8337              	.LVL388:
 8338              	.LBE1630:
 8339              	.LBE1629:
 474:lcd.c         **** 		LCD_DrawPoint(x0-a,y0-b,color);  //2             
 8340              		.loc 1 474 3
 8341 006c B3043B41 		sub	s1,s6,s3
 8342 0070 B30C5901 		add	s9,s2,s5
 8343              	.LVL389:
 8344              	.LBB1631:
 8345              	.LBB1632:
 369:lcd.c         **** 	LCD_WR_DATA(color);
 8346              		.loc 1 369 2
GAS LISTING /tmp/ccIfjRGV.s 			page 193


 8347 0074 2686     		mv	a2,s1
 8348 0076 E686     		mv	a3,s9
 8349 0078 E685     		mv	a1,s9
 8350 007a 2685     		mv	a0,s1
 8351 007c 97000000 		call	LCD_Address_Set
 8351      E7800000 
 8352              	.LVL390:
 370:lcd.c         **** } 
 8353              		.loc 1 370 2
 8354 0084 5285     		mv	a0,s4
 8355 0086 97000000 		call	LCD_WR_DATA
 8355      E7800000 
 8356              	.LVL391:
 8357              	.LBE1632:
 8358              	.LBE1631:
 475:lcd.c         **** 		LCD_DrawPoint(x0+b,y0+a,color);  //4               
 8359              		.loc 1 475 3
 8360 008e B38D2A41 		sub	s11,s5,s2
 8361              	.LVL392:
 8362              	.LBB1633:
 8363              	.LBB1634:
 369:lcd.c         **** 	LCD_WR_DATA(color);
 8364              		.loc 1 369 2
 8365 0092 2686     		mv	a2,s1
 8366 0094 EE86     		mv	a3,s11
 8367 0096 EE85     		mv	a1,s11
 8368 0098 2685     		mv	a0,s1
 8369 009a 97000000 		call	LCD_Address_Set
 8369      E7800000 
 8370              	.LVL393:
 370:lcd.c         **** } 
 8371              		.loc 1 370 2
 8372 00a2 139D1900 		slli	s10,s3,1
 8373 00a6 5285     		mv	a0,s4
 8374 00a8 97000000 		call	LCD_WR_DATA
 8374      E7800000 
 8375              	.LVL394:
 8376              	.LBE1634:
 8377              	.LBE1633:
 476:lcd.c         **** 		LCD_DrawPoint(x0+a,y0-b,color);  //5
 8378              		.loc 1 476 3
 8379 00b0 6A94     		add	s0,s0,s10
 8380              	.LVL395:
 8381              	.LBB1635:
 8382              	.LBB1636:
 369:lcd.c         **** 	LCD_WR_DATA(color);
 8383              		.loc 1 369 2
 8384 00b2 A286     		mv	a3,s0
 8385 00b4 5E86     		mv	a2,s7
 8386 00b6 A285     		mv	a1,s0
 8387 00b8 5E85     		mv	a0,s7
 8388 00ba 97000000 		call	LCD_Address_Set
 8388      E7800000 
 8389              	.LVL396:
 370:lcd.c         **** } 
 8390              		.loc 1 370 2
 8391 00c2 5285     		mv	a0,s4
GAS LISTING /tmp/ccIfjRGV.s 			page 194


 8392 00c4 97000000 		call	LCD_WR_DATA
 8392      E7800000 
 8393              	.LVL397:
 8394              	.LBE1636:
 8395              	.LBE1635:
 477:lcd.c         **** 		LCD_DrawPoint(x0+a,y0+b,color);             //6 
 8396              		.loc 1 477 3
 8397 00cc EA94     		add	s1,s1,s10
 8398              	.LVL398:
 8399              	.LBB1637:
 8400              	.LBB1638:
 369:lcd.c         **** 	LCD_WR_DATA(color);
 8401              		.loc 1 369 2
 8402 00ce EE86     		mv	a3,s11
 8403 00d0 2686     		mv	a2,s1
 8404 00d2 EE85     		mv	a1,s11
 8405 00d4 2685     		mv	a0,s1
 8406 00d6 97000000 		call	LCD_Address_Set
 8406      E7800000 
 8407              	.LVL399:
 370:lcd.c         **** } 
 8408              		.loc 1 370 2
 8409 00de 5285     		mv	a0,s4
 8410 00e0 97000000 		call	LCD_WR_DATA
 8410      E7800000 
 8411              	.LVL400:
 8412              	.LBE1638:
 8413              	.LBE1637:
 478:lcd.c         **** 		LCD_DrawPoint(x0-b,y0+a,color);             //7
 8414              		.loc 1 478 3
 8415              	.LBB1639:
 8416              	.LBB1640:
 369:lcd.c         **** 	LCD_WR_DATA(color);
 8417              		.loc 1 369 2
 8418 00e8 E686     		mv	a3,s9
 8419 00ea 2686     		mv	a2,s1
 8420 00ec E685     		mv	a1,s9
 8421 00ee 2685     		mv	a0,s1
 8422 00f0 97000000 		call	LCD_Address_Set
 8422      E7800000 
 8423              	.LVL401:
 370:lcd.c         **** } 
 8424              		.loc 1 370 2
 8425 00f8 5285     		mv	a0,s4
 8426 00fa 97000000 		call	LCD_WR_DATA
 8426      E7800000 
 8427              	.LVL402:
 8428              	.LBE1640:
 8429              	.LBE1639:
 479:lcd.c         **** 		a++;
 8430              		.loc 1 479 3
 8431              	.LBB1641:
 8432              	.LBB1642:
 369:lcd.c         **** 	LCD_WR_DATA(color);
 8433              		.loc 1 369 2
 8434 0102 A286     		mv	a3,s0
 8435 0104 6286     		mv	a2,s8
GAS LISTING /tmp/ccIfjRGV.s 			page 195


 8436 0106 A285     		mv	a1,s0
 8437 0108 6285     		mv	a0,s8
 8438 010a 97000000 		call	LCD_Address_Set
 8438      E7800000 
 8439              	.LVL403:
 370:lcd.c         **** } 
 8440              		.loc 1 370 2
 8441 0112 5285     		mv	a0,s4
 8442 0114 97000000 		call	LCD_WR_DATA
 8442      E7800000 
 8443              	.LVL404:
 8444              	.LBE1642:
 8445              	.LBE1641:
 480:lcd.c         **** 		if((a*a+b*b)>(r*r)) // Determine whether the points to be drawn are too far away
 8446              		.loc 1 480 3
 480:lcd.c         **** 		if((a*a+b*b)>(r*r)) // Determine whether the points to be drawn are too far away
 8447              		.loc 1 480 4 is_stmt 0
 8448 011c 8509     		addi	s3,s3,1
 8449              	.LVL405:
 481:lcd.c         **** 		{
 8450              		.loc 1 481 3 is_stmt 1
 481:lcd.c         **** 		{
 8451              		.loc 1 481 12 is_stmt 0
 8452 011e 33072903 		mul	a4,s2,s2
 481:lcd.c         **** 		{
 8453              		.loc 1 481 8
 8454 0122 B3873903 		mul	a5,s3,s3
 481:lcd.c         **** 		{
 8455              		.loc 1 481 10
 8456 0126 BA97     		add	a5,a5,a4
 483:lcd.c         **** 		}
 8457              		.loc 1 483 5
 8458 0128 3247     		lw	a4,12(sp)
 8459 012a B327F700 		sgt	a5,a5,a4
 8460 012e 3309F940 		sub	s2,s2,a5
 8461              	.LVL406:
 470:lcd.c         **** 	{
 8462              		.loc 1 470 7
 8463 0132 E35D39EF 		bge	s2,s3,.L403
 486:lcd.c         **** 
 8464              		.loc 1 486 1
 8465 0136 B640     		lw	ra,76(sp)
 8466              		.cfi_restore 1
 8467 0138 2644     		lw	s0,72(sp)
 8468              		.cfi_restore 8
 8469 013a 9644     		lw	s1,68(sp)
 8470              		.cfi_restore 9
 8471 013c 0649     		lw	s2,64(sp)
 8472              		.cfi_restore 18
 8473              	.LVL407:
 8474 013e F259     		lw	s3,60(sp)
 8475              		.cfi_restore 19
 8476              	.LVL408:
 8477 0140 625A     		lw	s4,56(sp)
 8478              		.cfi_restore 20
 8479              	.LVL409:
 8480 0142 D25A     		lw	s5,52(sp)
GAS LISTING /tmp/ccIfjRGV.s 			page 196


 8481              		.cfi_restore 21
 8482              	.LVL410:
 8483 0144 425B     		lw	s6,48(sp)
 8484              		.cfi_restore 22
 8485              	.LVL411:
 8486 0146 B25B     		lw	s7,44(sp)
 8487              		.cfi_restore 23
 8488 0148 225C     		lw	s8,40(sp)
 8489              		.cfi_restore 24
 8490 014a 925C     		lw	s9,36(sp)
 8491              		.cfi_restore 25
 8492 014c 025D     		lw	s10,32(sp)
 8493              		.cfi_restore 26
 8494 014e F24D     		lw	s11,28(sp)
 8495              		.cfi_restore 27
 8496 0150 6161     		addi	sp,sp,80
 8497              	.LCFI46:
 8498              		.cfi_def_cfa_offset 0
 8499 0152 8280     		jr	ra
 8500              		.cfi_endproc
 8501              	.LFE21:
 8503              		.section	.text.LCD_ShowChar,"ax",@progbits
 8504              		.align	1
 8505              		.globl	LCD_ShowChar
 8507              	LCD_ShowChar:
 8508              	.LFB22:
 498:lcd.c         ****     u8 temp;
 8509              		.loc 1 498 1 is_stmt 1
 8510              		.cfi_startproc
 8511              	.LVL412:
 499:lcd.c         ****     u8 pos,t;
 8512              		.loc 1 499 5
 500:lcd.c         **** 	  u16 x0=x;    
 8513              		.loc 1 500 5
 501:lcd.c         ****     if(x>LCD_W-8 || y>LCD_H-16)return;	// Outside of display area
 8514              		.loc 1 501 4
 502:lcd.c         **** 	num=num-' ';                        // Get offset value
 8515              		.loc 1 502 5
 502:lcd.c         **** 	num=num-' ';                        // Get offset value
 8516              		.loc 1 502 7 is_stmt 0
 8517 0000 93078009 		li	a5,152
 8518 0004 63E6A700 		bgtu	a0,a5,.L406
 502:lcd.c         **** 	num=num-' ';                        // Get offset value
 8519              		.loc 1 502 18 discriminator 2
 8520 0008 93070004 		li	a5,64
 8521 000c 63F3B700 		bleu	a1,a5,.L408
 8522              	.L406:
 8523              		.loc 1 534 1
 8524 0010 8280     		ret
 8525              	.L408:
 8526 0012 17030000 		tail	LCD_ShowChar.part.3
 8526      67000300 
 8527              	.LVL413:
 8528              		.cfi_endproc
 8529              	.LFE22:
 8531              		.section	.text.LCD_ShowString,"ax",@progbits
 8532              		.align	1
GAS LISTING /tmp/ccIfjRGV.s 			page 197


 8533              		.globl	LCD_ShowString
 8535              	LCD_ShowString:
 8536              	.LFB23:
 535:lcd.c         **** 
 536:lcd.c         **** 
 537:lcd.c         **** /*
 538:lcd.c         ****   Function description: display string
 539:lcd.c         **** Entry data: x, y:  start point coordinates
 540:lcd.c         ****   *p:  string start address
 541:lcd.c         **** Return value: None
 542:lcd.c         ****   Note: If character position is outside the display area
 543:lcd.c         ****         display is cleared in red color and the character
 544:lcd.c         **** 		position is set to (0,0)
 545:lcd.c         **** */
 546:lcd.c         **** void LCD_ShowString(u16 x,u16 y,const u8 *p,u16 color)
 547:lcd.c         **** {         
 8537              		.loc 1 547 1 is_stmt 1
 8538              		.cfi_startproc
 8539              	.LVL414:
 548:lcd.c         ****     while(*p!='\0')
 8540              		.loc 1 548 5
 8541              		.loc 1 548 10 is_stmt 0
 8542 0000 83470600 		lbu	a5,0(a2)
 8543 0004 C9C7     		beq	a5,zero,.L419
 547:lcd.c         ****     while(*p!='\0')
 8544              		.loc 1 547 1
 8545 0006 0111     		addi	sp,sp,-32
 8546              	.LCFI47:
 8547              		.cfi_def_cfa_offset 32
 8548 0008 5AC0     		sw	s6,0(sp)
 8549              		.cfi_offset 22, -32
 549:lcd.c         ****     {       
 550:lcd.c         ****         if(x>LCD_W-8){x=0;y+=16;}
 551:lcd.c         ****         if(y>LCD_H-16){y=x=0;LCD_Clear(RED);}
 8550              		.loc 1 551 30
 8551 000a 416B     		li	s6,65536
 547:lcd.c         ****     while(*p!='\0')
 8552              		.loc 1 547 1
 8553 000c 22CC     		sw	s0,24(sp)
 8554 000e 26CA     		sw	s1,20(sp)
 8555 0010 4AC8     		sw	s2,16(sp)
 8556 0012 4EC6     		sw	s3,12(sp)
 8557 0014 52C4     		sw	s4,8(sp)
 8558 0016 56C2     		sw	s5,4(sp)
 8559 0018 06CE     		sw	ra,28(sp)
 8560              		.cfi_offset 8, -8
 8561              		.cfi_offset 9, -12
 8562              		.cfi_offset 18, -16
 8563              		.cfi_offset 19, -20
 8564              		.cfi_offset 20, -24
 8565              		.cfi_offset 21, -28
 8566              		.cfi_offset 1, -4
 8567 001a 3284     		mv	s0,a2
 8568 001c 2A89     		mv	s2,a0
 8569 001e AE84     		mv	s1,a1
 8570 0020 B689     		mv	s3,a3
 550:lcd.c         ****         if(y>LCD_H-16){y=x=0;LCD_Clear(RED);}
GAS LISTING /tmp/ccIfjRGV.s 			page 198


 8571              		.loc 1 550 11
 8572 0022 930A8009 		li	s5,152
 8573              		.loc 1 551 30
 8574 0026 130B0B80 		addi	s6,s6,-2048
 8575              		.loc 1 551 11
 8576 002a 130A0004 		li	s4,64
 8577              	.LVL415:
 8578              	.L410:
 550:lcd.c         ****         if(y>LCD_H-16){y=x=0;LCD_Clear(RED);}
 8579              		.loc 1 550 9 is_stmt 1
 550:lcd.c         ****         if(y>LCD_H-16){y=x=0;LCD_Clear(RED);}
 8580              		.loc 1 550 23
 550:lcd.c         ****         if(y>LCD_H-16){y=x=0;LCD_Clear(RED);}
 8581              		.loc 1 550 27
 8582              		.loc 1 551 9
 550:lcd.c         ****         if(y>LCD_H-16){y=x=0;LCD_Clear(RED);}
 8583              		.loc 1 550 11 is_stmt 0
 8584 002e 63FE2A03 		bleu	s2,s5,.L411
 550:lcd.c         ****         if(y>LCD_H-16){y=x=0;LCD_Clear(RED);}
 8585              		.loc 1 550 28 discriminator 1
 8586 0032 C104     		addi	s1,s1,16
 8587              	.LVL416:
 8588              		.loc 1 551 9 is_stmt 1 discriminator 1
 552:lcd.c         ****         LCD_ShowChar(x,y,*p,0,color);
 8589              		.loc 1 552 9 discriminator 1
 551:lcd.c         ****         LCD_ShowChar(x,y,*p,0,color);
 8590              		.loc 1 551 11 is_stmt 0 discriminator 1
 8591 0034 63629A04 		bgtu	s1,s4,.L412
 8592              		.loc 1 552 9
 8593 0038 03460400 		lbu	a2,0(s0)
 8594              	.LVL417:
 8595              	.LBB1643:
 8596              	.LBB1644:
 499:lcd.c         ****     u8 pos,t;
 8597              		.loc 1 499 5 is_stmt 1
 500:lcd.c         **** 	  u16 x0=x;    
 8598              		.loc 1 500 5
 501:lcd.c         ****     if(x>LCD_W-8 || y>LCD_H-16)return;	// Outside of display area
 8599              		.loc 1 501 4
 502:lcd.c         **** 	num=num-' ';                        // Get offset value
 8600              		.loc 1 502 5
 8601              	.LBE1644:
 8602              	.LBE1643:
 8603              		.loc 1 552 9 is_stmt 0
 8604 003c 2149     		li	s2,8
 550:lcd.c         ****         if(y>LCD_H-16){y=x=0;LCD_Clear(RED);}
 8605              		.loc 1 550 24
 8606 003e 0145     		li	a0,0
 8607              	.LVL418:
 8608              	.L413:
 8609              	.LBB1649:
 8610              	.LBB1645:
 8611 0040 4E87     		mv	a4,s3
 8612 0042 8146     		li	a3,0
 8613 0044 A685     		mv	a1,s1
 8614              	.LBE1645:
 8615              	.LBE1649:
GAS LISTING /tmp/ccIfjRGV.s 			page 199


 553:lcd.c         ****         x+=8;
 554:lcd.c         ****         p++;
 8616              		.loc 1 554 10
 8617 0046 0504     		addi	s0,s0,1
 8618              	.LVL419:
 8619              	.LBB1650:
 8620              	.LBB1646:
 8621 0048 97000000 		call	LCD_ShowChar.part.3
 8621      E7800000 
 8622              	.LVL420:
 8623              	.LBE1646:
 8624              	.LBE1650:
 553:lcd.c         ****         x+=8;
 8625              		.loc 1 553 9 is_stmt 1
 8626              		.loc 1 554 9
 548:lcd.c         ****     {       
 8627              		.loc 1 548 10 is_stmt 0
 8628 0050 83470400 		lbu	a5,0(s0)
 8629 0054 E9FF     		bne	a5,zero,.L410
 555:lcd.c         ****     }  
 556:lcd.c         **** }
 8630              		.loc 1 556 1
 8631 0056 F240     		lw	ra,28(sp)
 8632              		.cfi_remember_state
 8633              		.cfi_restore 1
 8634 0058 6244     		lw	s0,24(sp)
 8635              		.cfi_restore 8
 8636              	.LVL421:
 8637 005a D244     		lw	s1,20(sp)
 8638              		.cfi_restore 9
 8639              	.LVL422:
 8640 005c 4249     		lw	s2,16(sp)
 8641              		.cfi_restore 18
 8642 005e B249     		lw	s3,12(sp)
 8643              		.cfi_restore 19
 8644              	.LVL423:
 8645 0060 224A     		lw	s4,8(sp)
 8646              		.cfi_restore 20
 8647 0062 924A     		lw	s5,4(sp)
 8648              		.cfi_restore 21
 8649 0064 024B     		lw	s6,0(sp)
 8650              		.cfi_restore 22
 8651 0066 0561     		addi	sp,sp,32
 8652              	.LCFI48:
 8653              		.cfi_def_cfa_offset 0
 8654 0068 8280     		jr	ra
 8655              	.LVL424:
 8656              	.L411:
 8657              	.LCFI49:
 8658              		.cfi_restore_state
 552:lcd.c         ****         x+=8;
 8659              		.loc 1 552 9 is_stmt 1
 551:lcd.c         ****         LCD_ShowChar(x,y,*p,0,color);
 8660              		.loc 1 551 11 is_stmt 0
 8661 006a 63679A00 		bgtu	s1,s4,.L412
 552:lcd.c         ****         x+=8;
 8662              		.loc 1 552 9
GAS LISTING /tmp/ccIfjRGV.s 			page 200


 8663 006e 4A85     		mv	a0,s2
 8664 0070 03460400 		lbu	a2,0(s0)
 8665              	.LVL425:
 8666              	.LBB1651:
 8667              	.LBB1647:
 499:lcd.c         ****     u8 pos,t;
 8668              		.loc 1 499 5 is_stmt 1
 500:lcd.c         **** 	  u16 x0=x;    
 8669              		.loc 1 500 5
 501:lcd.c         ****     if(x>LCD_W-8 || y>LCD_H-16)return;	// Outside of display area
 8670              		.loc 1 501 4
 502:lcd.c         **** 	num=num-' ';                        // Get offset value
 8671              		.loc 1 502 5
 8672              	.LBE1647:
 8673              	.LBE1651:
 552:lcd.c         ****         x+=8;
 8674              		.loc 1 552 9 is_stmt 0
 8675 0074 2109     		addi	s2,s2,8
 8676              	.LVL426:
 8677 0076 E9B7     		j	.L413
 8678              	.LVL427:
 8679              	.L412:
 551:lcd.c         ****         LCD_ShowChar(x,y,*p,0,color);
 8680              		.loc 1 551 24 is_stmt 1 discriminator 1
 551:lcd.c         ****         LCD_ShowChar(x,y,*p,0,color);
 8681              		.loc 1 551 30 discriminator 1
 8682 0078 5A85     		mv	a0,s6
 8683 007a 97000000 		call	LCD_Clear
 8683      E7800000 
 8684              	.LVL428:
 552:lcd.c         ****         x+=8;
 8685              		.loc 1 552 9 discriminator 1
 8686 0082 2149     		li	s2,8
 8687 0084 03460400 		lbu	a2,0(s0)
 8688              	.LVL429:
 8689              	.LBB1652:
 8690              	.LBB1648:
 499:lcd.c         ****     u8 pos,t;
 8691              		.loc 1 499 5 discriminator 1
 500:lcd.c         **** 	  u16 x0=x;    
 8692              		.loc 1 500 5 discriminator 1
 501:lcd.c         ****     if(x>LCD_W-8 || y>LCD_H-16)return;	// Outside of display area
 8693              		.loc 1 501 4 discriminator 1
 502:lcd.c         **** 	num=num-' ';                        // Get offset value
 8694              		.loc 1 502 5 discriminator 1
 8695              	.LBE1648:
 8696              	.LBE1652:
 551:lcd.c         ****         LCD_ShowChar(x,y,*p,0,color);
 8697              		.loc 1 551 25 is_stmt 0 discriminator 1
 8698 0088 8144     		li	s1,0
 552:lcd.c         ****         x+=8;
 8699              		.loc 1 552 9 discriminator 1
 8700 008a 0145     		li	a0,0
 8701 008c 55BF     		j	.L413
 8702              	.LVL430:
 8703              	.L419:
 8704              	.LCFI50:
GAS LISTING /tmp/ccIfjRGV.s 			page 201


 8705              		.cfi_def_cfa_offset 0
 8706              		.cfi_restore 1
 8707              		.cfi_restore 8
 8708              		.cfi_restore 9
 8709              		.cfi_restore 18
 8710              		.cfi_restore 19
 8711              		.cfi_restore 20
 8712              		.cfi_restore 21
 8713              		.cfi_restore 22
 8714 008e 8280     		ret
 8715              		.cfi_endproc
 8716              	.LFE23:
 8718              		.section	.text.LCD_ShowStr,"ax",@progbits
 8719              		.align	1
 8720              		.globl	LCD_ShowStr
 8722              	LCD_ShowStr:
 8723              	.LFB24:
 557:lcd.c         **** 
 558:lcd.c         **** 
 559:lcd.c         **** /*
 560:lcd.c         ****   Function description: display string
 561:lcd.c         **** Entry data: x, y:  start point coordinates
 562:lcd.c         ****   *p:  string start address
 563:lcd.c         **** mode:  1: transparent mode
 564:lcd.c         ****                      0: non-transparent mode
 565:lcd.c         **** Return value: None
 566:lcd.c         ****   Note: If character position is outside the display area
 567:lcd.c         ****         the character is not displayed
 568:lcd.c         **** */
 569:lcd.c         **** void LCD_ShowStr(u16 x,u16 y,const u8 *p,u16 color, u8 mode)
 570:lcd.c         **** {         
 8724              		.loc 1 570 1 is_stmt 1
 8725              		.cfi_startproc
 8726              	.LVL431:
 571:lcd.c         ****     while(*p!='\0')
 8727              		.loc 1 571 5
 570:lcd.c         ****     while(*p!='\0')
 8728              		.loc 1 570 1 is_stmt 0
 8729 0000 0111     		addi	sp,sp,-32
 8730              	.LCFI51:
 8731              		.cfi_def_cfa_offset 32
 8732 0002 22CC     		sw	s0,24(sp)
 8733 0004 06CE     		sw	ra,28(sp)
 8734 0006 26CA     		sw	s1,20(sp)
 8735 0008 4AC8     		sw	s2,16(sp)
 8736 000a 4EC6     		sw	s3,12(sp)
 8737 000c 52C4     		sw	s4,8(sp)
 8738 000e 56C2     		sw	s5,4(sp)
 8739 0010 5AC0     		sw	s6,0(sp)
 8740              		.cfi_offset 8, -8
 8741              		.cfi_offset 1, -4
 8742              		.cfi_offset 9, -12
 8743              		.cfi_offset 18, -16
 8744              		.cfi_offset 19, -20
 8745              		.cfi_offset 20, -24
 8746              		.cfi_offset 21, -28
 8747              		.cfi_offset 22, -32
GAS LISTING /tmp/ccIfjRGV.s 			page 202


 570:lcd.c         ****     while(*p!='\0')
 8748              		.loc 1 570 1
 8749 0012 3284     		mv	s0,a2
 8750              		.loc 1 571 11
 8751 0014 03460600 		lbu	a2,0(a2)
 8752              	.LVL432:
 8753              		.loc 1 571 10
 8754 0018 1DCA     		beq	a2,zero,.L422
 8755 001a 2A89     		mv	s2,a0
 8756 001c AE84     		mv	s1,a1
 8757 001e 368B     		mv	s6,a3
 8758 0020 BA8A     		mv	s5,a4
 8759 0022 93098009 		li	s3,152
 8760 0026 130A0004 		li	s4,64
 8761              	.LVL433:
 8762              	.L423:
 572:lcd.c         ****     {       
 573:lcd.c         ****         if(x>LCD_W-8){x=0;y+=16;}
 8763              		.loc 1 573 9 is_stmt 1
 8764              		.loc 1 573 23
 8765              		.loc 1 573 27
 574:lcd.c         ****         if(y>LCD_H-16) break;
 8766              		.loc 1 574 9
 573:lcd.c         ****         if(y>LCD_H-16) break;
 8767              		.loc 1 573 11 is_stmt 0
 8768 002a 63FC2903 		bleu	s2,s3,.L424
 573:lcd.c         ****         if(y>LCD_H-16) break;
 8769              		.loc 1 573 28 discriminator 1
 8770 002e C104     		addi	s1,s1,16
 8771              	.LVL434:
 8772              		.loc 1 574 9 is_stmt 1 discriminator 1
 8773              		.loc 1 574 11 is_stmt 0 discriminator 1
 8774 0030 636F9A00 		bgtu	s1,s4,.L422
 8775              		.loc 1 574 11
 8776 0034 2149     		li	s2,8
 573:lcd.c         ****         if(y>LCD_H-16) break;
 8777              		.loc 1 573 24
 8778 0036 0145     		li	a0,0
 8779              	.LVL435:
 8780              	.L426:
 8781              	.LBB1653:
 8782              	.LBB1654:
 8783 0038 5A87     		mv	a4,s6
 8784 003a D686     		mv	a3,s5
 8785 003c A685     		mv	a1,s1
 8786              	.LBE1654:
 8787              	.LBE1653:
 575:lcd.c         ****         LCD_ShowChar(x,y,*p,mode,color);
 576:lcd.c         ****         x+=8;
 577:lcd.c         ****         p++;
 8788              		.loc 1 577 10
 8789 003e 0504     		addi	s0,s0,1
 8790              	.LVL436:
 8791              	.LBB1656:
 8792              	.LBB1655:
 8793 0040 97000000 		call	LCD_ShowChar.part.3
 8793      E7800000 
GAS LISTING /tmp/ccIfjRGV.s 			page 203


 8794              	.LVL437:
 8795              	.LBE1655:
 8796              	.LBE1656:
 576:lcd.c         ****         p++;
 8797              		.loc 1 576 9 is_stmt 1
 8798              		.loc 1 577 9
 571:lcd.c         ****     {       
 8799              		.loc 1 571 11 is_stmt 0
 8800 0048 03460400 		lbu	a2,0(s0)
 571:lcd.c         ****     {       
 8801              		.loc 1 571 10
 8802 004c 79FE     		bne	a2,zero,.L423
 8803              	.LVL438:
 8804              	.L422:
 578:lcd.c         ****     }  
 579:lcd.c         **** }
 8805              		.loc 1 579 1
 8806 004e F240     		lw	ra,28(sp)
 8807              		.cfi_remember_state
 8808              		.cfi_restore 1
 8809 0050 6244     		lw	s0,24(sp)
 8810              		.cfi_restore 8
 8811              	.LVL439:
 8812 0052 D244     		lw	s1,20(sp)
 8813              		.cfi_restore 9
 8814 0054 4249     		lw	s2,16(sp)
 8815              		.cfi_restore 18
 8816 0056 B249     		lw	s3,12(sp)
 8817              		.cfi_restore 19
 8818 0058 224A     		lw	s4,8(sp)
 8819              		.cfi_restore 20
 8820 005a 924A     		lw	s5,4(sp)
 8821              		.cfi_restore 21
 8822 005c 024B     		lw	s6,0(sp)
 8823              		.cfi_restore 22
 8824 005e 0561     		addi	sp,sp,32
 8825              	.LCFI52:
 8826              		.cfi_def_cfa_offset 0
 8827 0060 8280     		jr	ra
 8828              	.LVL440:
 8829              	.L424:
 8830              	.LCFI53:
 8831              		.cfi_restore_state
 574:lcd.c         ****         LCD_ShowChar(x,y,*p,mode,color);
 8832              		.loc 1 574 11
 8833 0062 E3669AFE 		bgtu	s1,s4,.L422
 8834 0066 4A85     		mv	a0,s2
 8835 0068 2109     		addi	s2,s2,8
 8836              	.LVL441:
 8837 006a F9B7     		j	.L426
 8838              		.cfi_endproc
 8839              	.LFE24:
 8841              		.section	.text.mypow,"ax",@progbits
 8842              		.align	1
 8843              		.globl	mypow
 8845              	mypow:
 8846              	.LFB25:
GAS LISTING /tmp/ccIfjRGV.s 			page 204


 580:lcd.c         **** 
 581:lcd.c         **** 
 582:lcd.c         **** /*
 583:lcd.c         ****   Function description: Calculate m^n
 584:lcd.c         **** Entry data: m: base
 585:lcd.c         ****               n: exponent
 586:lcd.c         **** Return value: m^n
 587:lcd.c         **** */
 588:lcd.c         **** u32 mypow(u8 m,u8 n)
 589:lcd.c         **** {
 8847              		.loc 1 589 1 is_stmt 1
 8848              		.cfi_startproc
 8849              	.LVL442:
 590:lcd.c         **** 	u32 result=1;	 
 8850              		.loc 1 590 2
 591:lcd.c         **** 	while(n--)result*=m;    
 8851              		.loc 1 591 2
 8852              		.loc 1 591 9 is_stmt 0
 8853 0000 9387F5FF 		addi	a5,a1,-1
 8854 0004 93F7F70F 		andi	a5,a5,0xff
 8855              	.LVL443:
 590:lcd.c         **** 	u32 result=1;	 
 8856              		.loc 1 590 6
 8857 0008 0547     		li	a4,1
 8858              		.loc 1 591 7
 8859 000a 91C9     		beq	a1,zero,.L430
 8860 000c 9306F00F 		li	a3,255
 8861              	.LVL444:
 8862              	.L432:
 8863              		.loc 1 591 12 is_stmt 1 discriminator 2
 8864              		.loc 1 591 9 is_stmt 0 discriminator 2
 8865 0010 FD17     		addi	a5,a5,-1
 8866              	.LVL445:
 8867 0012 93F7F70F 		andi	a5,a5,0xff
 8868              		.loc 1 591 18 discriminator 2
 8869 0016 3307A702 		mul	a4,a4,a0
 8870              	.LVL446:
 8871              		.loc 1 591 7 discriminator 2
 8872 001a E39BD7FE 		bne	a5,a3,.L432
 8873              	.LVL447:
 8874              	.L430:
 592:lcd.c         **** 	return result;
 593:lcd.c         **** }
 8875              		.loc 1 593 1
 8876 001e 3A85     		mv	a0,a4
 8877              	.LVL448:
 8878 0020 8280     		ret
 8879              		.cfi_endproc
 8880              	.LFE25:
 8882              		.section	.text.LCD_ShowNum,"ax",@progbits
 8883              		.align	1
 8884              		.globl	LCD_ShowNum
 8886              	LCD_ShowNum:
 8887              	.LFB26:
 594:lcd.c         **** 
 595:lcd.c         **** 
 596:lcd.c         **** /*
GAS LISTING /tmp/ccIfjRGV.s 			page 205


 597:lcd.c         ****   Function description: display 16-bit integer numbers
 598:lcd.c         **** Entry data: x, y:  start point coordinates
 599:lcd.c         ****  num:  number to display
 600:lcd.c         ****  len:  number of digits to display
 601:lcd.c         **** Return value: None
 602:lcd.c         **** */
 603:lcd.c         **** void LCD_ShowNum(u16 x,u16 y,u16 num,u8 len,u16 color)
 604:lcd.c         **** {         	
 8888              		.loc 1 604 1 is_stmt 1
 8889              		.cfi_startproc
 8890              	.LVL449:
 605:lcd.c         **** 	u8 t,temp;
 8891              		.loc 1 605 2
 606:lcd.c         **** 	u8 enshow=0;
 8892              		.loc 1 606 2
 607:lcd.c         **** 	for(t=0;t<len;t++)
 8893              		.loc 1 607 2
 604:lcd.c         **** 	u8 t,temp;
 8894              		.loc 1 604 1 is_stmt 0
 8895 0000 5D71     		addi	sp,sp,-80
 8896              	.LCFI54:
 8897              		.cfi_def_cfa_offset 80
 8898 0002 86C6     		sw	ra,76(sp)
 8899 0004 A2C4     		sw	s0,72(sp)
 8900 0006 A6C2     		sw	s1,68(sp)
 8901 0008 CAC0     		sw	s2,64(sp)
 8902 000a 4EDE     		sw	s3,60(sp)
 8903 000c 52DC     		sw	s4,56(sp)
 8904 000e 56DA     		sw	s5,52(sp)
 8905 0010 5AD8     		sw	s6,48(sp)
 8906 0012 5ED6     		sw	s7,44(sp)
 8907 0014 62D4     		sw	s8,40(sp)
 8908 0016 66D2     		sw	s9,36(sp)
 8909 0018 6AD0     		sw	s10,32(sp)
 8910 001a 6ECE     		sw	s11,28(sp)
 8911              		.cfi_offset 1, -4
 8912              		.cfi_offset 8, -8
 8913              		.cfi_offset 9, -12
 8914              		.cfi_offset 18, -16
 8915              		.cfi_offset 19, -20
 8916              		.cfi_offset 20, -24
 8917              		.cfi_offset 21, -28
 8918              		.cfi_offset 22, -32
 8919              		.cfi_offset 23, -36
 8920              		.cfi_offset 24, -40
 8921              		.cfi_offset 25, -44
 8922              		.cfi_offset 26, -48
 8923              		.cfi_offset 27, -52
 604:lcd.c         **** 	u8 t,temp;
 8924              		.loc 1 604 1
 8925 001c 3AC6     		sw	a4,12(sp)
 8926              		.loc 1 607 2
 8927 001e C9C2     		beq	a3,zero,.L435
 8928 0020 9384E6FF 		addi	s1,a3,-2
 8929 0024 2A8A     		mv	s4,a0
 8930 0026 AE8D     		mv	s11,a1
 8931 0028 B28C     		mv	s9,a2
GAS LISTING /tmp/ccIfjRGV.s 			page 206


 8932 002a 93F4F40F 		andi	s1,s1,0xff
 8933 002e 814A     		li	s5,0
 606:lcd.c         **** 	u8 enshow=0;
 8934              		.loc 1 606 5
 8935 0030 014B     		li	s6,0
 8936              	.LBB1657:
 8937              	.LBB1658:
 591:lcd.c         **** 	return result;
 8938              		.loc 1 591 7
 8939 0032 1304F00F 		li	s0,255
 8940              	.LBE1658:
 8941              	.LBE1657:
 608:lcd.c         **** 	{
 609:lcd.c         **** 		temp=(num/mypow(10,len-t-1))%10;
 8942              		.loc 1 609 31
 8943 0036 294C     		li	s8,10
 8944              	.LBB1661:
 8945              	.LBB1662:
 502:lcd.c         **** 	num=num-' ';                        // Get offset value
 8946              		.loc 1 502 7
 8947 0038 130D8009 		li	s10,152
 502:lcd.c         **** 	num=num-' ';                        // Get offset value
 8948              		.loc 1 502 18
 8949 003c 13090004 		li	s2,64
 8950              	.LBE1662:
 8951              	.LBE1661:
 610:lcd.c         **** 		if(enshow==0&&t<(len-1))
 8952              		.loc 1 610 23
 8953 0040 9389F6FF 		addi	s3,a3,-1
 607:lcd.c         **** 	{
 8954              		.loc 1 607 2
 8955 0044 930BE00F 		li	s7,254
 8956              	.LVL450:
 8957              	.L441:
 609:lcd.c         **** 		if(enshow==0&&t<(len-1))
 8958              		.loc 1 609 3 is_stmt 1
 8959              	.LBB1664:
 8960              	.LBB1659:
 590:lcd.c         **** 	while(n--)result*=m;    
 8961              		.loc 1 590 2
 591:lcd.c         **** 	return result;
 8962              		.loc 1 591 2
 591:lcd.c         **** 	return result;
 8963              		.loc 1 591 7 is_stmt 0
 8964 0048 638B8406 		beq	s1,s0,.L443
 8965 004c A687     		mv	a5,s1
 590:lcd.c         **** 	while(n--)result*=m;    
 8966              		.loc 1 590 6
 8967 004e 0546     		li	a2,1
 8968              	.LVL451:
 8969              	.L438:
 591:lcd.c         **** 	return result;
 8970              		.loc 1 591 12 is_stmt 1
 591:lcd.c         **** 	return result;
 8971              		.loc 1 591 18 is_stmt 0
 8972 0050 13172600 		slli	a4,a2,2
 591:lcd.c         **** 	return result;
GAS LISTING /tmp/ccIfjRGV.s 			page 207


 8973              		.loc 1 591 9
 8974 0054 FD17     		addi	a5,a5,-1
 8975              	.LVL452:
 591:lcd.c         **** 	return result;
 8976              		.loc 1 591 18
 8977 0056 3A96     		add	a2,a4,a2
 8978              	.LVL453:
 591:lcd.c         **** 	return result;
 8979              		.loc 1 591 9
 8980 0058 93F7F70F 		andi	a5,a5,0xff
 591:lcd.c         **** 	return result;
 8981              		.loc 1 591 18
 8982 005c 0606     		slli	a2,a2,1
 8983              	.LVL454:
 591:lcd.c         **** 	return result;
 8984              		.loc 1 591 7
 8985 005e E39987FE 		bne	a5,s0,.L438
 8986 0062 33D6CC02 		divu	a2,s9,a2
 8987              	.LVL455:
 8988              	.L437:
 592:lcd.c         **** }
 8989              		.loc 1 592 2 is_stmt 1
 8990              	.LBE1659:
 8991              	.LBE1664:
 609:lcd.c         **** 		if(enshow==0&&t<(len-1))
 8992              		.loc 1 609 31 is_stmt 0
 8993 0066 33768603 		remu	a2,a2,s8
 8994              	.LVL456:
 8995              		.loc 1 610 3 is_stmt 1
 8996              		.loc 1 610 5 is_stmt 0
 8997 006a 63160B00 		bne	s6,zero,.L439
 8998              		.loc 1 610 15 discriminator 1
 8999 006e 63D43A01 		ble	s3,s5,.L439
 611:lcd.c         **** 		{
 612:lcd.c         **** 			if(temp==0)
 9000              		.loc 1 612 4 is_stmt 1
 9001              		.loc 1 612 6 is_stmt 0
 9002 0072 21CA     		beq	a2,zero,.L448
 9003 0074 054B     		li	s6,1
 9004              	.LVL457:
 9005              	.L439:
 613:lcd.c         **** 			{
 614:lcd.c         **** 				LCD_ShowChar(x+8*t,y,' ',0,color);
 615:lcd.c         **** 				continue;
 616:lcd.c         **** 			}else enshow=1; 
 617:lcd.c         **** 		 	 
 618:lcd.c         **** 		}
 619:lcd.c         **** 	 	LCD_ShowChar(x+8*t,y,temp+48,0,color); 
 9006              		.loc 1 619 4 is_stmt 1
 9007              	.LBB1665:
 9008              	.LBB1663:
 499:lcd.c         ****     u8 pos,t;
 9009              		.loc 1 499 5
 500:lcd.c         **** 	  u16 x0=x;    
 9010              		.loc 1 500 5
 501:lcd.c         ****     if(x>LCD_W-8 || y>LCD_H-16)return;	// Outside of display area
 9011              		.loc 1 501 4
GAS LISTING /tmp/ccIfjRGV.s 			page 208


 502:lcd.c         **** 	num=num-' ';                        // Get offset value
 9012              		.loc 1 502 5
 502:lcd.c         **** 	num=num-' ';                        // Get offset value
 9013              		.loc 1 502 7 is_stmt 0
 9014 0076 636E4D01 		bgtu	s4,s10,.L440
 502:lcd.c         **** 	num=num-' ';                        // Get offset value
 9015              		.loc 1 502 18
 9016 007a 636CB901 		bgtu	s11,s2,.L440
 9017 007e 3247     		lw	a4,12(sp)
 9018 0080 8146     		li	a3,0
 9019 0082 13060603 		addi	a2,a2,48
 9020              	.LVL458:
 9021 0086 EE85     		mv	a1,s11
 9022 0088 5285     		mv	a0,s4
 9023 008a 97000000 		call	LCD_ShowChar.part.3
 9023      E7800000 
 9024              	.LVL459:
 9025              	.L440:
 9026 0092 FD14     		addi	s1,s1,-1
 9027 0094 93F4F40F 		andi	s1,s1,0xff
 9028 0098 850A     		addi	s5,s5,1
 9029              	.LVL460:
 9030 009a 210A     		addi	s4,s4,8
 9031              	.LBE1663:
 9032              	.LBE1665:
 607:lcd.c         **** 	{
 9033              		.loc 1 607 2 discriminator 2
 9034 009c E39674FB 		bne	s1,s7,.L441
 9035              	.LVL461:
 9036              	.L435:
 620:lcd.c         **** 	}
 621:lcd.c         **** } 
 9037              		.loc 1 621 1
 9038 00a0 B640     		lw	ra,76(sp)
 9039              		.cfi_remember_state
 9040              		.cfi_restore 1
 9041 00a2 2644     		lw	s0,72(sp)
 9042              		.cfi_restore 8
 9043 00a4 9644     		lw	s1,68(sp)
 9044              		.cfi_restore 9
 9045 00a6 0649     		lw	s2,64(sp)
 9046              		.cfi_restore 18
 9047 00a8 F259     		lw	s3,60(sp)
 9048              		.cfi_restore 19
 9049 00aa 625A     		lw	s4,56(sp)
 9050              		.cfi_restore 20
 9051 00ac D25A     		lw	s5,52(sp)
 9052              		.cfi_restore 21
 9053 00ae 425B     		lw	s6,48(sp)
 9054              		.cfi_restore 22
 9055 00b0 B25B     		lw	s7,44(sp)
 9056              		.cfi_restore 23
 9057 00b2 225C     		lw	s8,40(sp)
 9058              		.cfi_restore 24
 9059 00b4 925C     		lw	s9,36(sp)
 9060              		.cfi_restore 25
 9061 00b6 025D     		lw	s10,32(sp)
GAS LISTING /tmp/ccIfjRGV.s 			page 209


 9062              		.cfi_restore 26
 9063 00b8 F24D     		lw	s11,28(sp)
 9064              		.cfi_restore 27
 9065 00ba 6161     		addi	sp,sp,80
 9066              	.LCFI55:
 9067              		.cfi_def_cfa_offset 0
 9068              	.LVL462:
 9069 00bc 8280     		jr	ra
 9070              	.LVL463:
 9071              	.L443:
 9072              	.LCFI56:
 9073              		.cfi_restore_state
 9074              	.LBB1666:
 9075              	.LBB1660:
 591:lcd.c         **** 	return result;
 9076              		.loc 1 591 7
 9077 00be 6686     		mv	a2,s9
 9078 00c0 5DB7     		j	.L437
 9079              	.LVL464:
 9080              	.L448:
 9081              	.LBE1660:
 9082              	.LBE1666:
 614:lcd.c         **** 				continue;
 9083              		.loc 1 614 5 is_stmt 1
 9084              	.LBB1667:
 9085              	.LBB1668:
 499:lcd.c         ****     u8 pos,t;
 9086              		.loc 1 499 5
 500:lcd.c         **** 	  u16 x0=x;    
 9087              		.loc 1 500 5
 501:lcd.c         ****     if(x>LCD_W-8 || y>LCD_H-16)return;	// Outside of display area
 9088              		.loc 1 501 4
 502:lcd.c         **** 	num=num-' ';                        // Get offset value
 9089              		.loc 1 502 5
 502:lcd.c         **** 	num=num-' ';                        // Get offset value
 9090              		.loc 1 502 7 is_stmt 0
 9091 00c2 E3684DFD 		bgtu	s4,s10,.L440
 502:lcd.c         **** 	num=num-' ';                        // Get offset value
 9092              		.loc 1 502 18
 9093 00c6 E366B9FD 		bgtu	s11,s2,.L440
 9094 00ca 3247     		lw	a4,12(sp)
 9095 00cc 8146     		li	a3,0
 9096 00ce 13060002 		li	a2,32
 9097              	.LVL465:
 9098 00d2 EE85     		mv	a1,s11
 9099 00d4 5285     		mv	a0,s4
 9100 00d6 97000000 		call	LCD_ShowChar.part.3
 9100      E7800000 
 9101              	.LVL466:
 9102 00de 55BF     		j	.L440
 9103              	.LBE1668:
 9104              	.LBE1667:
 9105              		.cfi_endproc
 9106              	.LFE26:
 9108              		.globl	__mulsf3
 9109              		.globl	__fixunssfsi
 9110              		.section	.text.LCD_ShowNum1,"ax",@progbits
GAS LISTING /tmp/ccIfjRGV.s 			page 210


 9111              		.align	1
 9112              		.globl	LCD_ShowNum1
 9114              	LCD_ShowNum1:
 9115              	.LFB27:
 622:lcd.c         **** 
 623:lcd.c         **** 
 624:lcd.c         **** /*
 625:lcd.c         ****   Function description: display float number with 2 decimal places
 626:lcd.c         **** Entry data: x, y:  start point coordinates
 627:lcd.c         ****  num:  float number to display
 628:lcd.c         ****  len:  number of digits to display
 629:lcd.c         **** Return value: None
 630:lcd.c         **** */
 631:lcd.c         **** void LCD_ShowNum1(u16 x,u16 y,float num,u8 len,u16 color)
 632:lcd.c         **** {         	
 9116              		.loc 1 632 1 is_stmt 1
 9117              		.cfi_startproc
 9118              	.LVL467:
 633:lcd.c         **** 	u8 t,temp;
 9119              		.loc 1 633 2
 634:lcd.c         **** 	// u8 enshow=0;
 635:lcd.c         **** 	u16 num1;
 9120              		.loc 1 635 2
 636:lcd.c         **** 	num1=num*100;
 9121              		.loc 1 636 2
 632:lcd.c         **** 	u8 t,temp;
 9122              		.loc 1 632 1 is_stmt 0
 9123 0000 7971     		addi	sp,sp,-48
 9124              	.LCFI57:
 9125              		.cfi_def_cfa_offset 48
 9126              		.loc 1 636 10
 9127 0002 B7070000 		lui	a5,%hi(.LC1)
 632:lcd.c         **** 	u8 t,temp;
 9128              		.loc 1 632 1
 9129 0006 62C4     		sw	s8,8(sp)
 9130              		.cfi_offset 24, -40
 9131 0008 2E8C     		mv	s8,a1
 9132              		.loc 1 636 10
 9133 000a 83A50700 		lw	a1,%lo(.LC1)(a5)
 9134              	.LVL468:
 632:lcd.c         **** 	u8 t,temp;
 9135              		.loc 1 632 1
 9136 000e 5AC8     		sw	s6,16(sp)
 9137              		.cfi_offset 22, -32
 9138 0010 2A8B     		mv	s6,a0
 9139              		.loc 1 636 10
 9140 0012 3285     		mv	a0,a2
 9141              	.LVL469:
 632:lcd.c         **** 	u8 t,temp;
 9142              		.loc 1 632 1
 9143 0014 06D6     		sw	ra,44(sp)
 9144 0016 4ECE     		sw	s3,28(sp)
 9145 0018 56CA     		sw	s5,20(sp)
 9146 001a 22D4     		sw	s0,40(sp)
 9147              		.cfi_offset 1, -4
 9148              		.cfi_offset 19, -20
 9149              		.cfi_offset 21, -28
GAS LISTING /tmp/ccIfjRGV.s 			page 211


 9150              		.cfi_offset 8, -8
 9151 001c B68A     		mv	s5,a3
 9152 001e 26D2     		sw	s1,36(sp)
 9153 0020 4AD0     		sw	s2,32(sp)
 9154 0022 52CC     		sw	s4,24(sp)
 9155 0024 5EC6     		sw	s7,12(sp)
 9156 0026 66C2     		sw	s9,4(sp)
 9157 0028 6AC0     		sw	s10,0(sp)
 9158              		.cfi_offset 9, -12
 9159              		.cfi_offset 18, -16
 9160              		.cfi_offset 20, -24
 9161              		.cfi_offset 23, -36
 9162              		.cfi_offset 25, -44
 9163              		.cfi_offset 26, -48
 632:lcd.c         **** 	u8 t,temp;
 9164              		.loc 1 632 1
 9165 002a BA89     		mv	s3,a4
 9166              		.loc 1 636 10
 9167 002c 97000000 		call	__mulsf3
 9167      E7800000 
 9168              	.LVL470:
 9169              		.loc 1 636 6
 9170 0034 97000000 		call	__fixunssfsi
 9170      E7800000 
 9171              	.LVL471:
 637:lcd.c         **** 	for(t=0;t<len;t++)
 9172              		.loc 1 637 2 is_stmt 1
 9173 003c 638C0A06 		beq	s5,zero,.L449
 9174 0040 AA8C     		mv	s9,a0
 9175 0042 8144     		li	s1,0
 9176              	.LBB1669:
 9177              	.LBB1670:
 591:lcd.c         **** 	return result;
 9178              		.loc 1 591 7 is_stmt 0
 9179 0044 1309F00F 		li	s2,255
 9180              	.LBE1670:
 9181              	.LBE1669:
 9182              	.LBB1673:
 9183              	.LBB1674:
 502:lcd.c         **** 	num=num-' ';                        // Get offset value
 9184              		.loc 1 502 7
 9185 0048 930B8009 		li	s7,152
 502:lcd.c         **** 	num=num-' ';                        // Get offset value
 9186              		.loc 1 502 18
 9187 004c 130D0004 		li	s10,64
 9188              	.LBE1674:
 9189              	.LBE1673:
 638:lcd.c         **** 	{
 639:lcd.c         **** 		temp=(num1/mypow(10,len-t-1))%10;
 9190              		.loc 1 639 32
 9191 0050 294A     		li	s4,10
 9192              	.LVL472:
 9193              	.L450:
 9194              		.loc 1 639 3 is_stmt 1
 9195              		.loc 1 639 14 is_stmt 0
 9196 0052 1387FAFF 		addi	a4,s5,-1
 9197 0056 058F     		sub	a4,a4,s1
GAS LISTING /tmp/ccIfjRGV.s 			page 212


 9198 0058 1377F70F 		andi	a4,a4,0xff
 9199              	.LVL473:
 9200              	.LBB1676:
 9201              	.LBB1671:
 590:lcd.c         **** 	while(n--)result*=m;    
 9202              		.loc 1 590 2 is_stmt 1
 591:lcd.c         **** 	return result;
 9203              		.loc 1 591 2
 591:lcd.c         **** 	return result;
 9204              		.loc 1 591 9 is_stmt 0
 9205 005c 9307F7FF 		addi	a5,a4,-1
 9206 0060 93F7F70F 		andi	a5,a5,0xff
 9207              	.LVL474:
 591:lcd.c         **** 	return result;
 9208              		.loc 1 591 7
 9209 0064 49CF     		beq	a4,zero,.L458
 590:lcd.c         **** 	while(n--)result*=m;    
 9210              		.loc 1 590 6
 9211 0066 0546     		li	a2,1
 9212              	.LVL475:
 9213              	.L452:
 591:lcd.c         **** 	return result;
 9214              		.loc 1 591 12 is_stmt 1
 591:lcd.c         **** 	return result;
 9215              		.loc 1 591 18 is_stmt 0
 9216 0068 13172600 		slli	a4,a2,2
 591:lcd.c         **** 	return result;
 9217              		.loc 1 591 9
 9218 006c FD17     		addi	a5,a5,-1
 9219              	.LVL476:
 591:lcd.c         **** 	return result;
 9220              		.loc 1 591 18
 9221 006e 3A96     		add	a2,a4,a2
 9222              	.LVL477:
 591:lcd.c         **** 	return result;
 9223              		.loc 1 591 9
 9224 0070 93F7F70F 		andi	a5,a5,0xff
 591:lcd.c         **** 	return result;
 9225              		.loc 1 591 18
 9226 0074 0606     		slli	a2,a2,1
 9227              	.LVL478:
 591:lcd.c         **** 	return result;
 9228              		.loc 1 591 7
 9229 0076 E39927FF 		bne	a5,s2,.L452
 9230 007a 33D4CC02 		divu	s0,s9,a2
 9231              	.LVL479:
 9232              	.L451:
 592:lcd.c         **** }
 9233              		.loc 1 592 2 is_stmt 1
 9234              	.LBE1671:
 9235              	.LBE1676:
 640:lcd.c         **** 		if(t==(len-2))
 9236              		.loc 1 640 3
 9237              		.loc 1 640 13 is_stmt 0
 9238 007e 9387EAFF 		addi	a5,s5,-2
 9239              		.loc 1 640 5
 9240 0082 6387F404 		beq	s1,a5,.L463
GAS LISTING /tmp/ccIfjRGV.s 			page 213


 9241              	.L453:
 641:lcd.c         **** 		{
 642:lcd.c         **** 			LCD_ShowChar(x+8*(len-2),y,'.',0,color);
 643:lcd.c         **** 			t++;
 644:lcd.c         **** 			len+=1;
 645:lcd.c         **** 		}
 646:lcd.c         **** 	 	LCD_ShowChar(x+8*t,y,temp+48,0,color);
 9242              		.loc 1 646 4 is_stmt 1 discriminator 2
 9243              		.loc 1 646 20 is_stmt 0 discriminator 2
 9244 0086 13953400 		slli	a0,s1,3
 9245              		.loc 1 646 4 discriminator 2
 9246 008a 5A95     		add	a0,a0,s6
 9247              	.LVL480:
 9248              	.LBB1677:
 9249              	.LBB1678:
 499:lcd.c         ****     u8 pos,t;
 9250              		.loc 1 499 5 is_stmt 1 discriminator 2
 500:lcd.c         **** 	  u16 x0=x;    
 9251              		.loc 1 500 5 discriminator 2
 501:lcd.c         ****     if(x>LCD_W-8 || y>LCD_H-16)return;	// Outside of display area
 9252              		.loc 1 501 4 discriminator 2
 502:lcd.c         **** 	num=num-' ';                        // Get offset value
 9253              		.loc 1 502 5 discriminator 2
 502:lcd.c         **** 	num=num-' ';                        // Get offset value
 9254              		.loc 1 502 7 is_stmt 0 discriminator 2
 9255 008c 63EFAB00 		bgtu	a0,s7,.L455
 502:lcd.c         **** 	num=num-' ';                        // Get offset value
 9256              		.loc 1 502 18
 9257 0090 636D8D01 		bgtu	s8,s10,.L455
 9258 0094 4E87     		mv	a4,s3
 9259 0096 8146     		li	a3,0
 9260 0098 E285     		mv	a1,s8
 9261              	.LBE1678:
 9262              	.LBE1677:
 639:lcd.c         **** 		if(t==(len-2))
 9263              		.loc 1 639 32
 9264 009a 33764403 		remu	a2,s0,s4
 9265              	.LBB1680:
 9266              	.LBB1679:
 9267 009e 13060603 		addi	a2,a2,48
 9268 00a2 97000000 		call	LCD_ShowChar.part.3
 9268      E7800000 
 9269              	.LVL481:
 9270              	.L455:
 9271              	.LBE1679:
 9272              	.LBE1680:
 637:lcd.c         **** 	{
 9273              		.loc 1 637 17 discriminator 2
 9274 00aa 8504     		addi	s1,s1,1
 9275              	.LVL482:
 9276 00ac 93F4F40F 		andi	s1,s1,0xff
 9277              	.LVL483:
 637:lcd.c         **** 	{
 9278              		.loc 1 637 2 discriminator 2
 9279 00b0 E3E154FB 		bgtu	s5,s1,.L450
 9280              	.LVL484:
 9281              	.L449:
GAS LISTING /tmp/ccIfjRGV.s 			page 214


 647:lcd.c         **** 	}
 648:lcd.c         **** }
 9282              		.loc 1 648 1
 9283 00b4 B250     		lw	ra,44(sp)
 9284              		.cfi_remember_state
 9285              		.cfi_restore 1
 9286 00b6 2254     		lw	s0,40(sp)
 9287              		.cfi_restore 8
 9288 00b8 9254     		lw	s1,36(sp)
 9289              		.cfi_restore 9
 9290 00ba 0259     		lw	s2,32(sp)
 9291              		.cfi_restore 18
 9292 00bc F249     		lw	s3,28(sp)
 9293              		.cfi_restore 19
 9294              	.LVL485:
 9295 00be 624A     		lw	s4,24(sp)
 9296              		.cfi_restore 20
 9297 00c0 D24A     		lw	s5,20(sp)
 9298              		.cfi_restore 21
 9299              	.LVL486:
 9300 00c2 424B     		lw	s6,16(sp)
 9301              		.cfi_restore 22
 9302              	.LVL487:
 9303 00c4 B24B     		lw	s7,12(sp)
 9304              		.cfi_restore 23
 9305 00c6 224C     		lw	s8,8(sp)
 9306              		.cfi_restore 24
 9307              	.LVL488:
 9308 00c8 924C     		lw	s9,4(sp)
 9309              		.cfi_restore 25
 9310 00ca 024D     		lw	s10,0(sp)
 9311              		.cfi_restore 26
 9312 00cc 4561     		addi	sp,sp,48
 9313              	.LCFI58:
 9314              		.cfi_def_cfa_offset 0
 9315 00ce 8280     		jr	ra
 9316              	.LVL489:
 9317              	.L463:
 9318              	.LCFI59:
 9319              		.cfi_restore_state
 642:lcd.c         **** 			t++;
 9320              		.loc 1 642 4 is_stmt 1
 642:lcd.c         **** 			t++;
 9321              		.loc 1 642 20 is_stmt 0
 9322 00d0 13953400 		slli	a0,s1,3
 642:lcd.c         **** 			t++;
 9323              		.loc 1 642 4
 9324 00d4 5A95     		add	a0,a0,s6
 9325              	.LVL490:
 9326              	.LBB1681:
 9327              	.LBB1675:
 499:lcd.c         ****     u8 pos,t;
 9328              		.loc 1 499 5 is_stmt 1
 500:lcd.c         **** 	  u16 x0=x;    
 9329              		.loc 1 500 5
 501:lcd.c         ****     if(x>LCD_W-8 || y>LCD_H-16)return;	// Outside of display area
 9330              		.loc 1 501 4
GAS LISTING /tmp/ccIfjRGV.s 			page 215


 502:lcd.c         **** 	num=num-' ';                        // Get offset value
 9331              		.loc 1 502 5
 502:lcd.c         **** 	num=num-' ';                        // Get offset value
 9332              		.loc 1 502 7 is_stmt 0
 9333 00d6 63EDAB00 		bgtu	a0,s7,.L454
 502:lcd.c         **** 	num=num-' ';                        // Get offset value
 9334              		.loc 1 502 18
 9335 00da 636B8D01 		bgtu	s8,s10,.L454
 9336 00de 4E87     		mv	a4,s3
 9337 00e0 8146     		li	a3,0
 9338 00e2 1306E002 		li	a2,46
 9339 00e6 E285     		mv	a1,s8
 9340 00e8 97000000 		call	LCD_ShowChar.part.3
 9340      E7800000 
 9341              	.LVL491:
 9342              	.L454:
 9343              	.LBE1675:
 9344              	.LBE1681:
 643:lcd.c         **** 			len+=1;
 9345              		.loc 1 643 4 is_stmt 1
 643:lcd.c         **** 			len+=1;
 9346              		.loc 1 643 5 is_stmt 0
 9347 00f0 8504     		addi	s1,s1,1
 9348              	.LVL492:
 644:lcd.c         **** 		}
 9349              		.loc 1 644 7
 9350 00f2 850A     		addi	s5,s5,1
 9351              	.LVL493:
 643:lcd.c         **** 			len+=1;
 9352              		.loc 1 643 5
 9353 00f4 93F4F40F 		andi	s1,s1,0xff
 9354              	.LVL494:
 644:lcd.c         **** 		}
 9355              		.loc 1 644 4 is_stmt 1
 644:lcd.c         **** 		}
 9356              		.loc 1 644 7 is_stmt 0
 9357 00f8 93FAFA0F 		andi	s5,s5,0xff
 9358              	.LVL495:
 9359 00fc 69B7     		j	.L453
 9360              	.LVL496:
 9361              	.L458:
 9362              	.LBB1682:
 9363              	.LBB1672:
 591:lcd.c         **** 	return result;
 9364              		.loc 1 591 7
 9365 00fe 6684     		mv	s0,s9
 9366 0100 BDBF     		j	.L451
 9367              	.LBE1672:
 9368              	.LBE1682:
 9369              		.cfi_endproc
 9370              	.LFE27:
 9372              		.section	.text.LCD_ShowPicture,"ax",@progbits
 9373              		.align	1
 9374              		.globl	LCD_ShowPicture
 9376              	LCD_ShowPicture:
 9377              	.LFB28:
 649:lcd.c         **** 
GAS LISTING /tmp/ccIfjRGV.s 			page 216


 650:lcd.c         **** 
 651:lcd.c         **** /*
 652:lcd.c         ****   Function description: display the image 
 653:lcd.c         **** Entry data: x1, y1:  start coordinates
 654:lcd.c         **** x2, y2:  end coordinates
 655:lcd.c         ****               *image:  pointer to image buffer
 656:lcd.c         **** Return value: None
 657:lcd.c         ****   Note: image buffere contains 16-bit pixel colors
 658:lcd.c         ****         and its size must be (x2-x1+1) * (y2-y1+1) * 2
 659:lcd.c         ****   */
 660:lcd.c         **** void LCD_ShowPicture(u16 x1, u16 y1, u16 x2, u16 y2, u8 *image)
 661:lcd.c         **** {
 9378              		.loc 1 661 1 is_stmt 1
 9379              		.cfi_startproc
 9380              	.LVL497:
 662:lcd.c         **** 	int i;
 9381              		.loc 1 662 2
 663:lcd.c         **** 	int size = (x2-x1+1) * (y2-y1+1) * 2;
 9382              		.loc 1 663 2
 661:lcd.c         **** 	int i;
 9383              		.loc 1 661 1 is_stmt 0
 9384 0000 4111     		addi	sp,sp,-16
 9385              	.LCFI60:
 9386              		.cfi_def_cfa_offset 16
 9387 0002 26C2     		sw	s1,4(sp)
 9388              		.loc 1 663 28
 9389 0004 B387B640 		sub	a5,a3,a1
 9390              		.cfi_offset 9, -12
 9391              		.loc 1 663 16
 9392 0008 B304A640 		sub	s1,a2,a0
 9393              		.loc 1 663 35
 9394 000c 8504     		addi	s1,s1,1
 9395              		.loc 1 663 31
 9396 000e 8507     		addi	a5,a5,1
 9397              		.loc 1 663 35
 9398 0010 B384F402 		mul	s1,s1,a5
 661:lcd.c         **** 	int i;
 9399              		.loc 1 661 1
 9400 0014 22C4     		sw	s0,8(sp)
 9401 0016 06C6     		sw	ra,12(sp)
 9402              		.cfi_offset 8, -8
 9403              		.cfi_offset 1, -4
 661:lcd.c         **** 	int i;
 9404              		.loc 1 661 1
 9405 0018 3A84     		mv	s0,a4
 9406              		.loc 1 663 35
 9407 001a 8604     		slli	s1,s1,1
 9408              	.LVL498:
 664:lcd.c         **** 	LCD_Address_Set(x1,y1,x2,y2);
 9409              		.loc 1 664 2 is_stmt 1
 9410 001c 97000000 		call	LCD_Address_Set
 9410      E7800000 
 9411              	.LVL499:
 665:lcd.c         **** 	for(i=0;i<size;i++)
 9412              		.loc 1 665 2
 9413 0024 635C9000 		ble	s1,zero,.L464
 9414 0028 A294     		add	s1,s0,s1
GAS LISTING /tmp/ccIfjRGV.s 			page 217


 9415              	.LVL500:
 9416              	.L466:
 666:lcd.c         **** 	{ 	
 667:lcd.c         **** 		LCD_WR_DATA8(image[i]);
 9417              		.loc 1 667 3 discriminator 3
 9418 002a 03450400 		lbu	a0,0(s0)
 9419 002e 0504     		addi	s0,s0,1
 9420              	.LVL501:
 9421 0030 97000000 		call	LCD_WR_DATA8
 9421      E7800000 
 9422              	.LVL502:
 665:lcd.c         **** 	for(i=0;i<size;i++)
 9423              		.loc 1 665 2 is_stmt 0 discriminator 3
 9424 0038 E39984FE 		bne	s1,s0,.L466
 9425              	.L464:
 668:lcd.c         **** 	}			
 669:lcd.c         **** }
 9426              		.loc 1 669 1
 9427 003c B240     		lw	ra,12(sp)
 9428              		.cfi_restore 1
 9429 003e 2244     		lw	s0,8(sp)
 9430              		.cfi_restore 8
 9431 0040 9244     		lw	s1,4(sp)
 9432              		.cfi_restore 9
 9433 0042 4101     		addi	sp,sp,16
 9434              	.LCFI61:
 9435              		.cfi_def_cfa_offset 0
 9436 0044 8280     		jr	ra
 9437              		.cfi_endproc
 9438              	.LFE28:
 9440              		.globl	queue
 9441              		.globl	w
 9442              		.globl	r
 9443              		.globl	lcd_conf
 9444              		.comm	BACK_COLOR,4,4
 9445              		.globl	Hzk16
 9446              		.globl	asc2_1608
 9447              		.globl	Hzk32
 9448              		.section	.bss.queue,"aw",@nobits
 9449              		.align	2
 9450              		.set	.LANCHOR2,. + 0
 9453              	queue:
 9454 0000 00000000 		.zero	1024
 9454      00000000 
 9454      00000000 
 9454      00000000 
 9454      00000000 
 9455              		.section	.data.Hzk16,"aw"
 9456              		.align	2
 9457              		.set	.LANCHOR5,. + 0
 9460              	Hzk16:
 9461 0000 80       		.byte	-128
 9462 0001 00       		.byte	0
 9463 0002 80       		.byte	-128
 9464 0003 00       		.byte	0
 9465 0004 80       		.byte	-128
 9466 0005 00       		.byte	0
GAS LISTING /tmp/ccIfjRGV.s 			page 218


 9467 0006 80       		.byte	-128
 9468 0007 00       		.byte	0
 9469 0008 FC       		.byte	-4
 9470 0009 1F       		.byte	31
 9471 000a 84       		.byte	-124
 9472 000b 10       		.byte	16
 9473 000c 84       		.byte	-124
 9474 000d 10       		.byte	16
 9475 000e 84       		.byte	-124
 9476 000f 10       		.byte	16
 9477 0010 84       		.byte	-124
 9478 0011 10       		.byte	16
 9479 0012 84       		.byte	-124
 9480 0013 10       		.byte	16
 9481 0014 FC       		.byte	-4
 9482 0015 1F       		.byte	31
 9483 0016 84       		.byte	-124
 9484 0017 10       		.byte	16
 9485 0018 80       		.byte	-128
 9486 0019 00       		.byte	0
 9487 001a 80       		.byte	-128
 9488 001b 00       		.byte	0
 9489 001c 80       		.byte	-128
 9490 001d 00       		.byte	0
 9491 001e 80       		.byte	-128
 9492 001f 00       		.byte	0
 9493 0020 F8       		.byte	-8
 9494 0021 0F       		.byte	15
 9495 0022 08       		.byte	8
 9496 0023 08       		.byte	8
 9497 0024 F8       		.byte	-8
 9498 0025 0F       		.byte	15
 9499 0026 08       		.byte	8
 9500 0027 08       		.byte	8
 9501 0028 F8       		.byte	-8
 9502 0029 0F       		.byte	15
 9503 002a 80       		.byte	-128
 9504 002b 00       		.byte	0
 9505 002c FF       		.byte	-1
 9506 002d 7F       		.byte	127
 9507 002e 00       		.byte	0
 9508 002f 00       		.byte	0
 9509 0030 F8       		.byte	-8
 9510 0031 0F       		.byte	15
 9511 0032 08       		.byte	8
 9512 0033 08       		.byte	8
 9513 0034 08       		.byte	8
 9514 0035 08       		.byte	8
 9515 0036 F8       		.byte	-8
 9516 0037 0F       		.byte	15
 9517 0038 80       		.byte	-128
 9518 0039 00       		.byte	0
 9519 003a 84       		.byte	-124
 9520 003b 10       		.byte	16
 9521 003c A2       		.byte	-94
 9522 003d 20       		.byte	32
 9523 003e 40       		.byte	64
GAS LISTING /tmp/ccIfjRGV.s 			page 219


 9524 003f 00       		.byte	0
 9525 0040 00       		.byte	0
 9526 0041 00       		.byte	0
 9527 0042 FE       		.byte	-2
 9528 0043 3F       		.byte	63
 9529 0044 02       		.byte	2
 9530 0045 20       		.byte	32
 9531 0046 F2       		.byte	-14
 9532 0047 27       		.byte	39
 9533 0048 02       		.byte	2
 9534 0049 20       		.byte	32
 9535 004a 02       		.byte	2
 9536 004b 20       		.byte	32
 9537 004c FA       		.byte	-6
 9538 004d 2F       		.byte	47
 9539 004e 22       		.byte	34
 9540 004f 21       		.byte	33
 9541 0050 22       		.byte	34
 9542 0051 21       		.byte	33
 9543 0052 22       		.byte	34
 9544 0053 21       		.byte	33
 9545 0054 12       		.byte	18
 9546 0055 29       		.byte	41
 9547 0056 12       		.byte	18
 9548 0057 29       		.byte	41
 9549 0058 0A       		.byte	10
 9550 0059 2E       		.byte	46
 9551 005a 02       		.byte	2
 9552 005b 20       		.byte	32
 9553 005c FE       		.byte	-2
 9554 005d 3F       		.byte	63
 9555 005e 02       		.byte	2
 9556 005f 20       		.byte	32
 9557 0060 80       		.byte	-128
 9558 0061 00       		.byte	0
 9559 0062 80       		.byte	-128
 9560 0063 00       		.byte	0
 9561 0064 80       		.byte	-128
 9562 0065 00       		.byte	0
 9563 0066 FC       		.byte	-4
 9564 0067 1F       		.byte	31
 9565 0068 84       		.byte	-124
 9566 0069 10       		.byte	16
 9567 006a 84       		.byte	-124
 9568 006b 10       		.byte	16
 9569 006c 84       		.byte	-124
 9570 006d 10       		.byte	16
 9571 006e FC       		.byte	-4
 9572 006f 1F       		.byte	31
 9573 0070 84       		.byte	-124
 9574 0071 10       		.byte	16
 9575 0072 84       		.byte	-124
 9576 0073 10       		.byte	16
 9577 0074 84       		.byte	-124
 9578 0075 10       		.byte	16
 9579 0076 FC       		.byte	-4
 9580 0077 1F       		.byte	31
GAS LISTING /tmp/ccIfjRGV.s 			page 220


 9581 0078 84       		.byte	-124
 9582 0079 50       		.byte	80
 9583 007a 80       		.byte	-128
 9584 007b 40       		.byte	64
 9585 007c 80       		.byte	-128
 9586 007d 40       		.byte	64
 9587 007e 00       		.byte	0
 9588 007f 7F       		.byte	127
 9589 0080 00       		.byte	0
 9590 0081 00       		.byte	0
 9591 0082 FE       		.byte	-2
 9592 0083 1F       		.byte	31
 9593 0084 00       		.byte	0
 9594 0085 08       		.byte	8
 9595 0086 00       		.byte	0
 9596 0087 04       		.byte	4
 9597 0088 00       		.byte	0
 9598 0089 02       		.byte	2
 9599 008a 80       		.byte	-128
 9600 008b 01       		.byte	1
 9601 008c 80       		.byte	-128
 9602 008d 00       		.byte	0
 9603 008e FF       		.byte	-1
 9604 008f 7F       		.byte	127
 9605 0090 80       		.byte	-128
 9606 0091 00       		.byte	0
 9607 0092 80       		.byte	-128
 9608 0093 00       		.byte	0
 9609 0094 80       		.byte	-128
 9610 0095 00       		.byte	0
 9611 0096 80       		.byte	-128
 9612 0097 00       		.byte	0
 9613 0098 80       		.byte	-128
 9614 0099 00       		.byte	0
 9615 009a 80       		.byte	-128
 9616 009b 00       		.byte	0
 9617 009c A0       		.byte	-96
 9618 009d 00       		.byte	0
 9619 009e 40       		.byte	64
 9620 009f 00       		.byte	0
 9621 00a0 10       		.byte	16
 9622 00a1 08       		.byte	8
 9623 00a2 B8       		.byte	-72
 9624 00a3 08       		.byte	8
 9625 00a4 0F       		.byte	15
 9626 00a5 09       		.byte	9
 9627 00a6 08       		.byte	8
 9628 00a7 09       		.byte	9
 9629 00a8 08       		.byte	8
 9630 00a9 08       		.byte	8
 9631 00aa BF       		.byte	-65
 9632 00ab 08       		.byte	8
 9633 00ac 08       		.byte	8
 9634 00ad 09       		.byte	9
 9635 00ae 1C       		.byte	28
 9636 00af 09       		.byte	9
 9637 00b0 2C       		.byte	44
GAS LISTING /tmp/ccIfjRGV.s 			page 221


 9638 00b1 08       		.byte	8
 9639 00b2 0A       		.byte	10
 9640 00b3 78       		.byte	120
 9641 00b4 CA       		.byte	-54
 9642 00b5 0F       		.byte	15
 9643 00b6 09       		.byte	9
 9644 00b7 08       		.byte	8
 9645 00b8 08       		.byte	8
 9646 00b9 08       		.byte	8
 9647 00ba 08       		.byte	8
 9648 00bb 08       		.byte	8
 9649 00bc 08       		.byte	8
 9650 00bd 08       		.byte	8
 9651 00be 08       		.byte	8
 9652 00bf 08       		.byte	8
 9653 00c0 08       		.byte	8
 9654 00c1 04       		.byte	4
 9655 00c2 08       		.byte	8
 9656 00c3 04       		.byte	4
 9657 00c4 08       		.byte	8
 9658 00c5 04       		.byte	4
 9659 00c6 C8       		.byte	-56
 9660 00c7 7F       		.byte	127
 9661 00c8 3F       		.byte	63
 9662 00c9 04       		.byte	4
 9663 00ca 08       		.byte	8
 9664 00cb 04       		.byte	4
 9665 00cc 08       		.byte	8
 9666 00cd 04       		.byte	4
 9667 00ce A8       		.byte	-88
 9668 00cf 3F       		.byte	63
 9669 00d0 18       		.byte	24
 9670 00d1 21       		.byte	33
 9671 00d2 0C       		.byte	12
 9672 00d3 11       		.byte	17
 9673 00d4 0B       		.byte	11
 9674 00d5 12       		.byte	18
 9675 00d6 08       		.byte	8
 9676 00d7 0A       		.byte	10
 9677 00d8 08       		.byte	8
 9678 00d9 04       		.byte	4
 9679 00da 08       		.byte	8
 9680 00db 0A       		.byte	10
 9681 00dc 8A       		.byte	-118
 9682 00dd 11       		.byte	17
 9683 00de 64       		.byte	100
 9684 00df 60       		.byte	96
 9685              		.section	.data.Hzk32,"aw"
 9686              		.align	2
 9687              		.set	.LANCHOR6,. + 0
 9690              	Hzk32:
 9691 0000 00       		.byte	0
 9692 0001 00       		.byte	0
 9693 0002 00       		.byte	0
 9694 0003 00       		.byte	0
 9695 0004 00       		.byte	0
 9696 0005 00       		.byte	0
GAS LISTING /tmp/ccIfjRGV.s 			page 222


 9697 0006 00       		.byte	0
 9698 0007 00       		.byte	0
 9699 0008 00       		.byte	0
 9700 0009 80       		.byte	-128
 9701 000a 00       		.byte	0
 9702 000b 00       		.byte	0
 9703 000c 00       		.byte	0
 9704 000d 80       		.byte	-128
 9705 000e 01       		.byte	1
 9706 000f 00       		.byte	0
 9707 0010 00       		.byte	0
 9708 0011 80       		.byte	-128
 9709 0012 01       		.byte	1
 9710 0013 00       		.byte	0
 9711 0014 00       		.byte	0
 9712 0015 80       		.byte	-128
 9713 0016 01       		.byte	1
 9714 0017 00       		.byte	0
 9715 0018 00       		.byte	0
 9716 0019 80       		.byte	-128
 9717 001a 01       		.byte	1
 9718 001b 00       		.byte	0
 9719 001c 00       		.byte	0
 9720 001d 80       		.byte	-128
 9721 001e 01       		.byte	1
 9722 001f 00       		.byte	0
 9723 0020 10       		.byte	16
 9724 0021 80       		.byte	-128
 9725 0022 01       		.byte	1
 9726 0023 0C       		.byte	12
 9727 0024 F0       		.byte	-16
 9728 0025 FF       		.byte	-1
 9729 0026 FF       		.byte	-1
 9730 0027 0F       		.byte	15
 9731 0028 30       		.byte	48
 9732 0029 80       		.byte	-128
 9733 002a 01       		.byte	1
 9734 002b 04       		.byte	4
 9735 002c 30       		.byte	48
 9736 002d 80       		.byte	-128
 9737 002e 01       		.byte	1
 9738 002f 04       		.byte	4
 9739 0030 30       		.byte	48
 9740 0031 80       		.byte	-128
 9741 0032 01       		.byte	1
 9742 0033 04       		.byte	4
 9743 0034 30       		.byte	48
 9744 0035 80       		.byte	-128
 9745 0036 01       		.byte	1
 9746 0037 04       		.byte	4
 9747 0038 30       		.byte	48
 9748 0039 80       		.byte	-128
 9749 003a 01       		.byte	1
 9750 003b 04       		.byte	4
 9751 003c 30       		.byte	48
 9752 003d 80       		.byte	-128
 9753 003e 01       		.byte	1
GAS LISTING /tmp/ccIfjRGV.s 			page 223


 9754 003f 04       		.byte	4
 9755 0040 30       		.byte	48
 9756 0041 80       		.byte	-128
 9757 0042 01       		.byte	1
 9758 0043 04       		.byte	4
 9759 0044 30       		.byte	48
 9760 0045 80       		.byte	-128
 9761 0046 01       		.byte	1
 9762 0047 04       		.byte	4
 9763 0048 F0       		.byte	-16
 9764 0049 FF       		.byte	-1
 9765 004a FF       		.byte	-1
 9766 004b 07       		.byte	7
 9767 004c 30       		.byte	48
 9768 004d 80       		.byte	-128
 9769 004e 01       		.byte	1
 9770 004f 04       		.byte	4
 9771 0050 30       		.byte	48
 9772 0051 80       		.byte	-128
 9773 0052 01       		.byte	1
 9774 0053 04       		.byte	4
 9775 0054 00       		.byte	0
 9776 0055 80       		.byte	-128
 9777 0056 01       		.byte	1
 9778 0057 00       		.byte	0
 9779 0058 00       		.byte	0
 9780 0059 80       		.byte	-128
 9781 005a 01       		.byte	1
 9782 005b 00       		.byte	0
 9783 005c 00       		.byte	0
 9784 005d 80       		.byte	-128
 9785 005e 01       		.byte	1
 9786 005f 00       		.byte	0
 9787 0060 00       		.byte	0
 9788 0061 80       		.byte	-128
 9789 0062 01       		.byte	1
 9790 0063 00       		.byte	0
 9791 0064 00       		.byte	0
 9792 0065 80       		.byte	-128
 9793 0066 01       		.byte	1
 9794 0067 00       		.byte	0
 9795 0068 00       		.byte	0
 9796 0069 80       		.byte	-128
 9797 006a 01       		.byte	1
 9798 006b 00       		.byte	0
 9799 006c 00       		.byte	0
 9800 006d 80       		.byte	-128
 9801 006e 01       		.byte	1
 9802 006f 00       		.byte	0
 9803 0070 00       		.byte	0
 9804 0071 80       		.byte	-128
 9805 0072 01       		.byte	1
 9806 0073 00       		.byte	0
 9807 0074 00       		.byte	0
 9808 0075 80       		.byte	-128
 9809 0076 01       		.byte	1
 9810 0077 00       		.byte	0
GAS LISTING /tmp/ccIfjRGV.s 			page 224


 9811 0078 00       		.byte	0
 9812 0079 80       		.byte	-128
 9813 007a 00       		.byte	0
 9814 007b 00       		.byte	0
 9815 007c 00       		.byte	0
 9816 007d 00       		.byte	0
 9817 007e 00       		.byte	0
 9818 007f 00       		.byte	0
 9819 0080 00       		.byte	0
 9820 0081 00       		.byte	0
 9821 0082 00       		.byte	0
 9822 0083 00       		.byte	0
 9823 0084 00       		.byte	0
 9824 0085 00       		.byte	0
 9825 0086 00       		.byte	0
 9826 0087 00       		.byte	0
 9827 0088 00       		.byte	0
 9828 0089 00       		.byte	0
 9829 008a 00       		.byte	0
 9830 008b 00       		.byte	0
 9831 008c 00       		.byte	0
 9832 008d 01       		.byte	1
 9833 008e 80       		.byte	-128
 9834 008f 01       		.byte	1
 9835 0090 00       		.byte	0
 9836 0091 FF       		.byte	-1
 9837 0092 FF       		.byte	-1
 9838 0093 01       		.byte	1
 9839 0094 00       		.byte	0
 9840 0095 03       		.byte	3
 9841 0096 80       		.byte	-128
 9842 0097 01       		.byte	1
 9843 0098 00       		.byte	0
 9844 0099 03       		.byte	3
 9845 009a 80       		.byte	-128
 9846 009b 01       		.byte	1
 9847 009c 00       		.byte	0
 9848 009d FF       		.byte	-1
 9849 009e FF       		.byte	-1
 9850 009f 01       		.byte	1
 9851 00a0 00       		.byte	0
 9852 00a1 03       		.byte	3
 9853 00a2 80       		.byte	-128
 9854 00a3 01       		.byte	1
 9855 00a4 00       		.byte	0
 9856 00a5 03       		.byte	3
 9857 00a6 80       		.byte	-128
 9858 00a7 01       		.byte	1
 9859 00a8 00       		.byte	0
 9860 00a9 FF       		.byte	-1
 9861 00aa FF       		.byte	-1
 9862 00ab 01       		.byte	1
 9863 00ac 00       		.byte	0
 9864 00ad 81       		.byte	-127
 9865 00ae 81       		.byte	-127
 9866 00af 00       		.byte	0
 9867 00b0 00       		.byte	0
GAS LISTING /tmp/ccIfjRGV.s 			page 225


 9868 00b1 00       		.byte	0
 9869 00b2 03       		.byte	3
 9870 00b3 00       		.byte	0
 9871 00b4 00       		.byte	0
 9872 00b5 00       		.byte	0
 9873 00b6 03       		.byte	3
 9874 00b7 1C       		.byte	28
 9875 00b8 FC       		.byte	-4
 9876 00b9 FF       		.byte	-1
 9877 00ba FF       		.byte	-1
 9878 00bb 3F       		.byte	63
 9879 00bc 00       		.byte	0
 9880 00bd 00       		.byte	0
 9881 00be 40       		.byte	64
 9882 00bf 00       		.byte	0
 9883 00c0 00       		.byte	0
 9884 00c1 03       		.byte	3
 9885 00c2 C0       		.byte	-64
 9886 00c3 01       		.byte	1
 9887 00c4 00       		.byte	0
 9888 00c5 FF       		.byte	-1
 9889 00c6 FF       		.byte	-1
 9890 00c7 01       		.byte	1
 9891 00c8 00       		.byte	0
 9892 00c9 03       		.byte	3
 9893 00ca C0       		.byte	-64
 9894 00cb 00       		.byte	0
 9895 00cc 00       		.byte	0
 9896 00cd 03       		.byte	3
 9897 00ce C0       		.byte	-64
 9898 00cf 00       		.byte	0
 9899 00d0 00       		.byte	0
 9900 00d1 03       		.byte	3
 9901 00d2 C0       		.byte	-64
 9902 00d3 00       		.byte	0
 9903 00d4 00       		.byte	0
 9904 00d5 FF       		.byte	-1
 9905 00d6 FF       		.byte	-1
 9906 00d7 00       		.byte	0
 9907 00d8 00       		.byte	0
 9908 00d9 01       		.byte	1
 9909 00da 41       		.byte	65
 9910 00db 00       		.byte	0
 9911 00dc 00       		.byte	0
 9912 00dd 04       		.byte	4
 9913 00de 01       		.byte	1
 9914 00df 00       		.byte	0
 9915 00e0 00       		.byte	0
 9916 00e1 0E       		.byte	14
 9917 00e2 71       		.byte	113
 9918 00e3 00       		.byte	0
 9919 00e4 00       		.byte	0
 9920 00e5 07       		.byte	7
 9921 00e6 81       		.byte	-127
 9922 00e7 01       		.byte	1
 9923 00e8 80       		.byte	-128
 9924 00e9 01       		.byte	1
GAS LISTING /tmp/ccIfjRGV.s 			page 226


 9925 00ea 01       		.byte	1
 9926 00eb 07       		.byte	7
 9927 00ec 60       		.byte	96
 9928 00ed 00       		.byte	0
 9929 00ee 01       		.byte	1
 9930 00ef 0E       		.byte	14
 9931 00f0 18       		.byte	24
 9932 00f1 98       		.byte	-104
 9933 00f2 01       		.byte	1
 9934 00f3 1C       		.byte	28
 9935 00f4 04       		.byte	4
 9936 00f5 E0       		.byte	-32
 9937 00f6 01       		.byte	1
 9938 00f7 18       		.byte	24
 9939 00f8 00       		.byte	0
 9940 00f9 C0       		.byte	-64
 9941 00fa 00       		.byte	0
 9942 00fb 00       		.byte	0
 9943 00fc 00       		.byte	0
 9944 00fd 00       		.byte	0
 9945 00fe 00       		.byte	0
 9946 00ff 00       		.byte	0
 9947 0100 00       		.byte	0
 9948 0101 00       		.byte	0
 9949 0102 00       		.byte	0
 9950 0103 00       		.byte	0
 9951 0104 00       		.byte	0
 9952 0105 00       		.byte	0
 9953 0106 00       		.byte	0
 9954 0107 00       		.byte	0
 9955 0108 00       		.byte	0
 9956 0109 00       		.byte	0
 9957 010a 00       		.byte	0
 9958 010b 08       		.byte	8
 9959 010c F0       		.byte	-16
 9960 010d FF       		.byte	-1
 9961 010e FF       		.byte	-1
 9962 010f 1F       		.byte	31
 9963 0110 30       		.byte	48
 9964 0111 00       		.byte	0
 9965 0112 00       		.byte	0
 9966 0113 0C       		.byte	12
 9967 0114 30       		.byte	48
 9968 0115 00       		.byte	0
 9969 0116 00       		.byte	0
 9970 0117 0C       		.byte	12
 9971 0118 30       		.byte	48
 9972 0119 00       		.byte	0
 9973 011a 10       		.byte	16
 9974 011b 0C       		.byte	12
 9975 011c 30       		.byte	48
 9976 011d FE       		.byte	-2
 9977 011e 3F       		.byte	63
 9978 011f 0C       		.byte	12
 9979 0120 30       		.byte	48
 9980 0121 04       		.byte	4
 9981 0122 00       		.byte	0
GAS LISTING /tmp/ccIfjRGV.s 			page 227


 9982 0123 0C       		.byte	12
 9983 0124 30       		.byte	48
 9984 0125 00       		.byte	0
 9985 0126 00       		.byte	0
 9986 0127 0C       		.byte	12
 9987 0128 30       		.byte	48
 9988 0129 00       		.byte	0
 9989 012a 00       		.byte	0
 9990 012b 0C       		.byte	12
 9991 012c 30       		.byte	48
 9992 012d 00       		.byte	0
 9993 012e 00       		.byte	0
 9994 012f 0C       		.byte	12
 9995 0130 30       		.byte	48
 9996 0131 00       		.byte	0
 9997 0132 C0       		.byte	-64
 9998 0133 0C       		.byte	12
 9999 0134 F0       		.byte	-16
 10000 0135 FF       		.byte	-1
 10001 0136 FF       		.byte	-1
 10002 0137 0D       		.byte	13
 10003 0138 30       		.byte	48
 10004 0139 30       		.byte	48
 10005 013a 06       		.byte	6
 10006 013b 0E       		.byte	14
 10007 013c 30       		.byte	48
 10008 013d 30       		.byte	48
 10009 013e 06       		.byte	6
 10010 013f 0C       		.byte	12
 10011 0140 30       		.byte	48
 10012 0141 10       		.byte	16
 10013 0142 06       		.byte	6
 10014 0143 0C       		.byte	12
 10015 0144 30       		.byte	48
 10016 0145 10       		.byte	16
 10017 0146 06       		.byte	6
 10018 0147 0C       		.byte	12
 10019 0148 30       		.byte	48
 10020 0149 10       		.byte	16
 10021 014a 06       		.byte	6
 10022 014b 0C       		.byte	12
 10023 014c 30       		.byte	48
 10024 014d 18       		.byte	24
 10025 014e 86       		.byte	-122
 10026 014f 0C       		.byte	12
 10027 0150 30       		.byte	48
 10028 0151 18       		.byte	24
 10029 0152 86       		.byte	-122
 10030 0153 0C       		.byte	12
 10031 0154 30       		.byte	48
 10032 0155 08       		.byte	8
 10033 0156 06       		.byte	6
 10034 0157 0D       		.byte	13
 10035 0158 30       		.byte	48
 10036 0159 0C       		.byte	12
 10037 015a 86       		.byte	-122
 10038 015b 0D       		.byte	13
GAS LISTING /tmp/ccIfjRGV.s 			page 228


 10039 015c 30       		.byte	48
 10040 015d 06       		.byte	6
 10041 015e EE       		.byte	-18
 10042 015f 0F       		.byte	15
 10043 0160 30       		.byte	48
 10044 0161 02       		.byte	2
 10045 0162 FC       		.byte	-4
 10046 0163 0D       		.byte	13
 10047 0164 30       		.byte	48
 10048 0165 01       		.byte	1
 10049 0166 00       		.byte	0
 10050 0167 0C       		.byte	12
 10051 0168 F0       		.byte	-16
 10052 0169 00       		.byte	0
 10053 016a 00       		.byte	0
 10054 016b 0C       		.byte	12
 10055 016c 30       		.byte	48
 10056 016d 00       		.byte	0
 10057 016e 00       		.byte	0
 10058 016f 0C       		.byte	12
 10059 0170 F0       		.byte	-16
 10060 0171 FF       		.byte	-1
 10061 0172 FF       		.byte	-1
 10062 0173 0F       		.byte	15
 10063 0174 30       		.byte	48
 10064 0175 00       		.byte	0
 10065 0176 00       		.byte	0
 10066 0177 0C       		.byte	12
 10067 0178 10       		.byte	16
 10068 0179 00       		.byte	0
 10069 017a 00       		.byte	0
 10070 017b 04       		.byte	4
 10071 017c 00       		.byte	0
 10072 017d 00       		.byte	0
 10073 017e 00       		.byte	0
 10074 017f 00       		.byte	0
 10075 0180 00       		.byte	0
 10076 0181 00       		.byte	0
 10077 0182 00       		.byte	0
 10078 0183 00       		.byte	0
 10079 0184 00       		.byte	0
 10080 0185 00       		.byte	0
 10081 0186 00       		.byte	0
 10082 0187 00       		.byte	0
 10083 0188 00       		.byte	0
 10084 0189 C0       		.byte	-64
 10085 018a 00       		.byte	0
 10086 018b 00       		.byte	0
 10087 018c 00       		.byte	0
 10088 018d C0       		.byte	-64
 10089 018e 01       		.byte	1
 10090 018f 00       		.byte	0
 10091 0190 00       		.byte	0
 10092 0191 C0       		.byte	-64
 10093 0192 00       		.byte	0
 10094 0193 00       		.byte	0
 10095 0194 00       		.byte	0
GAS LISTING /tmp/ccIfjRGV.s 			page 229


 10096 0195 C0       		.byte	-64
 10097 0196 00       		.byte	0
 10098 0197 00       		.byte	0
 10099 0198 00       		.byte	0
 10100 0199 C0       		.byte	-64
 10101 019a 00       		.byte	0
 10102 019b 00       		.byte	0
 10103 019c 00       		.byte	0
 10104 019d C0       		.byte	-64
 10105 019e 00       		.byte	0
 10106 019f 00       		.byte	0
 10107 01a0 E0       		.byte	-32
 10108 01a1 FF       		.byte	-1
 10109 01a2 FF       		.byte	-1
 10110 01a3 03       		.byte	3
 10111 01a4 60       		.byte	96
 10112 01a5 C0       		.byte	-64
 10113 01a6 00       		.byte	0
 10114 01a7 03       		.byte	3
 10115 01a8 60       		.byte	96
 10116 01a9 C0       		.byte	-64
 10117 01aa 00       		.byte	0
 10118 01ab 03       		.byte	3
 10119 01ac 60       		.byte	96
 10120 01ad C0       		.byte	-64
 10121 01ae 00       		.byte	0
 10122 01af 03       		.byte	3
 10123 01b0 60       		.byte	96
 10124 01b1 C0       		.byte	-64
 10125 01b2 00       		.byte	0
 10126 01b3 03       		.byte	3
 10127 01b4 60       		.byte	96
 10128 01b5 C0       		.byte	-64
 10129 01b6 00       		.byte	0
 10130 01b7 03       		.byte	3
 10131 01b8 60       		.byte	96
 10132 01b9 C0       		.byte	-64
 10133 01ba 00       		.byte	0
 10134 01bb 03       		.byte	3
 10135 01bc E0       		.byte	-32
 10136 01bd FF       		.byte	-1
 10137 01be FF       		.byte	-1
 10138 01bf 03       		.byte	3
 10139 01c0 60       		.byte	96
 10140 01c1 C0       		.byte	-64
 10141 01c2 00       		.byte	0
 10142 01c3 03       		.byte	3
 10143 01c4 60       		.byte	96
 10144 01c5 C0       		.byte	-64
 10145 01c6 00       		.byte	0
 10146 01c7 03       		.byte	3
 10147 01c8 60       		.byte	96
 10148 01c9 C0       		.byte	-64
 10149 01ca 00       		.byte	0
 10150 01cb 03       		.byte	3
 10151 01cc 60       		.byte	96
 10152 01cd C0       		.byte	-64
GAS LISTING /tmp/ccIfjRGV.s 			page 230


 10153 01ce 00       		.byte	0
 10154 01cf 03       		.byte	3
 10155 01d0 60       		.byte	96
 10156 01d1 C0       		.byte	-64
 10157 01d2 00       		.byte	0
 10158 01d3 03       		.byte	3
 10159 01d4 E0       		.byte	-32
 10160 01d5 FF       		.byte	-1
 10161 01d6 FF       		.byte	-1
 10162 01d7 03       		.byte	3
 10163 01d8 60       		.byte	96
 10164 01d9 C0       		.byte	-64
 10165 01da 00       		.byte	0
 10166 01db 01       		.byte	1
 10167 01dc 60       		.byte	96
 10168 01dd C0       		.byte	-64
 10169 01de 00       		.byte	0
 10170 01df 00       		.byte	0
 10171 01e0 00       		.byte	0
 10172 01e1 C0       		.byte	-64
 10173 01e2 00       		.byte	0
 10174 01e3 08       		.byte	8
 10175 01e4 00       		.byte	0
 10176 01e5 C0       		.byte	-64
 10177 01e6 00       		.byte	0
 10178 01e7 10       		.byte	16
 10179 01e8 00       		.byte	0
 10180 01e9 C0       		.byte	-64
 10181 01ea 00       		.byte	0
 10182 01eb 10       		.byte	16
 10183 01ec 00       		.byte	0
 10184 01ed C0       		.byte	-64
 10185 01ee 00       		.byte	0
 10186 01ef 18       		.byte	24
 10187 01f0 00       		.byte	0
 10188 01f1 C0       		.byte	-64
 10189 01f2 01       		.byte	1
 10190 01f3 38       		.byte	56
 10191 01f4 00       		.byte	0
 10192 01f5 80       		.byte	-128
 10193 01f6 FF       		.byte	-1
 10194 01f7 1F       		.byte	31
 10195 01f8 00       		.byte	0
 10196 01f9 00       		.byte	0
 10197 01fa 00       		.byte	0
 10198 01fb 00       		.byte	0
 10199 01fc 00       		.byte	0
 10200 01fd 00       		.byte	0
 10201 01fe 00       		.byte	0
 10202 01ff 00       		.byte	0
 10203 0200 00       		.byte	0
 10204 0201 00       		.byte	0
 10205 0202 00       		.byte	0
 10206 0203 00       		.byte	0
 10207 0204 00       		.byte	0
 10208 0205 00       		.byte	0
 10209 0206 00       		.byte	0
GAS LISTING /tmp/ccIfjRGV.s 			page 231


 10210 0207 00       		.byte	0
 10211 0208 00       		.byte	0
 10212 0209 00       		.byte	0
 10213 020a 00       		.byte	0
 10214 020b 00       		.byte	0
 10215 020c 00       		.byte	0
 10216 020d 00       		.byte	0
 10217 020e 00       		.byte	0
 10218 020f 03       		.byte	3
 10219 0210 C0       		.byte	-64
 10220 0211 FF       		.byte	-1
 10221 0212 FF       		.byte	-1
 10222 0213 07       		.byte	7
 10223 0214 00       		.byte	0
 10224 0215 00       		.byte	0
 10225 0216 80       		.byte	-128
 10226 0217 07       		.byte	7
 10227 0218 00       		.byte	0
 10228 0219 00       		.byte	0
 10229 021a C0       		.byte	-64
 10230 021b 00       		.byte	0
 10231 021c 00       		.byte	0
 10232 021d 00       		.byte	0
 10233 021e 60       		.byte	96
 10234 021f 00       		.byte	0
 10235 0220 00       		.byte	0
 10236 0221 00       		.byte	0
 10237 0222 18       		.byte	24
 10238 0223 00       		.byte	0
 10239 0224 00       		.byte	0
 10240 0225 00       		.byte	0
 10241 0226 0C       		.byte	12
 10242 0227 00       		.byte	0
 10243 0228 00       		.byte	0
 10244 0229 80       		.byte	-128
 10245 022a 03       		.byte	3
 10246 022b 00       		.byte	0
 10247 022c 00       		.byte	0
 10248 022d 80       		.byte	-128
 10249 022e 03       		.byte	3
 10250 022f 00       		.byte	0
 10251 0230 00       		.byte	0
 10252 0231 80       		.byte	-128
 10253 0232 01       		.byte	1
 10254 0233 00       		.byte	0
 10255 0234 00       		.byte	0
 10256 0235 80       		.byte	-128
 10257 0236 01       		.byte	1
 10258 0237 08       		.byte	8
 10259 0238 00       		.byte	0
 10260 0239 80       		.byte	-128
 10261 023a 01       		.byte	1
 10262 023b 1C       		.byte	28
 10263 023c FC       		.byte	-4
 10264 023d FF       		.byte	-1
 10265 023e FF       		.byte	-1
 10266 023f 3F       		.byte	63
GAS LISTING /tmp/ccIfjRGV.s 			page 232


 10267 0240 00       		.byte	0
 10268 0241 80       		.byte	-128
 10269 0242 01       		.byte	1
 10270 0243 00       		.byte	0
 10271 0244 00       		.byte	0
 10272 0245 80       		.byte	-128
 10273 0246 01       		.byte	1
 10274 0247 00       		.byte	0
 10275 0248 00       		.byte	0
 10276 0249 80       		.byte	-128
 10277 024a 01       		.byte	1
 10278 024b 00       		.byte	0
 10279 024c 00       		.byte	0
 10280 024d 80       		.byte	-128
 10281 024e 01       		.byte	1
 10282 024f 00       		.byte	0
 10283 0250 00       		.byte	0
 10284 0251 80       		.byte	-128
 10285 0252 01       		.byte	1
 10286 0253 00       		.byte	0
 10287 0254 00       		.byte	0
 10288 0255 80       		.byte	-128
 10289 0256 01       		.byte	1
 10290 0257 00       		.byte	0
 10291 0258 00       		.byte	0
 10292 0259 80       		.byte	-128
 10293 025a 01       		.byte	1
 10294 025b 00       		.byte	0
 10295 025c 00       		.byte	0
 10296 025d 80       		.byte	-128
 10297 025e 01       		.byte	1
 10298 025f 00       		.byte	0
 10299 0260 00       		.byte	0
 10300 0261 80       		.byte	-128
 10301 0262 01       		.byte	1
 10302 0263 00       		.byte	0
 10303 0264 00       		.byte	0
 10304 0265 80       		.byte	-128
 10305 0266 01       		.byte	1
 10306 0267 00       		.byte	0
 10307 0268 00       		.byte	0
 10308 0269 80       		.byte	-128
 10309 026a 01       		.byte	1
 10310 026b 00       		.byte	0
 10311 026c 00       		.byte	0
 10312 026d 80       		.byte	-128
 10313 026e 01       		.byte	1
 10314 026f 00       		.byte	0
 10315 0270 00       		.byte	0
 10316 0271 FC       		.byte	-4
 10317 0272 01       		.byte	1
 10318 0273 00       		.byte	0
 10319 0274 00       		.byte	0
 10320 0275 E0       		.byte	-32
 10321 0276 00       		.byte	0
 10322 0277 00       		.byte	0
 10323 0278 00       		.byte	0
GAS LISTING /tmp/ccIfjRGV.s 			page 233


 10324 0279 40       		.byte	64
 10325 027a 00       		.byte	0
 10326 027b 00       		.byte	0
 10327 027c 00       		.byte	0
 10328 027d 00       		.byte	0
 10329 027e 00       		.byte	0
 10330 027f 00       		.byte	0
 10331              		.section	.rodata.LCD_ShowNum1.cst4,"aM",@progbits,4
 10332              		.align	2
 10333              	.LC1:
 10334 0000 0000C842 		.word	1120403456
 10335              		.section	.rodata.asc2_1608,"a"
 10336              		.align	2
 10337              		.set	.LANCHOR4,. + 0
 10340              	asc2_1608:
 10341 0000 00       		.byte	0
 10342 0001 00       		.byte	0
 10343 0002 00       		.byte	0
 10344 0003 00       		.byte	0
 10345 0004 00       		.byte	0
 10346 0005 00       		.byte	0
 10347 0006 00       		.byte	0
 10348 0007 00       		.byte	0
 10349 0008 00       		.byte	0
 10350 0009 00       		.byte	0
 10351 000a 00       		.byte	0
 10352 000b 00       		.byte	0
 10353 000c 00       		.byte	0
 10354 000d 00       		.byte	0
 10355 000e 00       		.byte	0
 10356 000f 00       		.byte	0
 10357 0010 00       		.byte	0
 10358 0011 00       		.byte	0
 10359 0012 00       		.byte	0
 10360 0013 08       		.byte	8
 10361 0014 08       		.byte	8
 10362 0015 08       		.byte	8
 10363 0016 08       		.byte	8
 10364 0017 08       		.byte	8
 10365 0018 08       		.byte	8
 10366 0019 08       		.byte	8
 10367 001a 00       		.byte	0
 10368 001b 00       		.byte	0
 10369 001c 18       		.byte	24
 10370 001d 18       		.byte	24
 10371 001e 00       		.byte	0
 10372 001f 00       		.byte	0
 10373 0020 00       		.byte	0
 10374 0021 48       		.byte	72
 10375 0022 6C       		.byte	108
 10376 0023 24       		.byte	36
 10377 0024 12       		.byte	18
 10378 0025 00       		.byte	0
 10379 0026 00       		.byte	0
 10380 0027 00       		.byte	0
 10381 0028 00       		.byte	0
 10382 0029 00       		.byte	0
GAS LISTING /tmp/ccIfjRGV.s 			page 234


 10383 002a 00       		.byte	0
 10384 002b 00       		.byte	0
 10385 002c 00       		.byte	0
 10386 002d 00       		.byte	0
 10387 002e 00       		.byte	0
 10388 002f 00       		.byte	0
 10389 0030 00       		.byte	0
 10390 0031 00       		.byte	0
 10391 0032 00       		.byte	0
 10392 0033 24       		.byte	36
 10393 0034 24       		.byte	36
 10394 0035 24       		.byte	36
 10395 0036 7F       		.byte	127
 10396 0037 12       		.byte	18
 10397 0038 12       		.byte	18
 10398 0039 12       		.byte	18
 10399 003a 7F       		.byte	127
 10400 003b 12       		.byte	18
 10401 003c 12       		.byte	18
 10402 003d 12       		.byte	18
 10403 003e 00       		.byte	0
 10404 003f 00       		.byte	0
 10405 0040 00       		.byte	0
 10406 0041 00       		.byte	0
 10407 0042 08       		.byte	8
 10408 0043 1C       		.byte	28
 10409 0044 2A       		.byte	42
 10410 0045 2A       		.byte	42
 10411 0046 0A       		.byte	10
 10412 0047 0C       		.byte	12
 10413 0048 18       		.byte	24
 10414 0049 28       		.byte	40
 10415 004a 28       		.byte	40
 10416 004b 2A       		.byte	42
 10417 004c 2A       		.byte	42
 10418 004d 1C       		.byte	28
 10419 004e 08       		.byte	8
 10420 004f 08       		.byte	8
 10421 0050 00       		.byte	0
 10422 0051 00       		.byte	0
 10423 0052 00       		.byte	0
 10424 0053 22       		.byte	34
 10425 0054 25       		.byte	37
 10426 0055 15       		.byte	21
 10427 0056 15       		.byte	21
 10428 0057 15       		.byte	21
 10429 0058 2A       		.byte	42
 10430 0059 58       		.byte	88
 10431 005a 54       		.byte	84
 10432 005b 54       		.byte	84
 10433 005c 54       		.byte	84
 10434 005d 22       		.byte	34
 10435 005e 00       		.byte	0
 10436 005f 00       		.byte	0
 10437 0060 00       		.byte	0
 10438 0061 00       		.byte	0
 10439 0062 00       		.byte	0
GAS LISTING /tmp/ccIfjRGV.s 			page 235


 10440 0063 0C       		.byte	12
 10441 0064 12       		.byte	18
 10442 0065 12       		.byte	18
 10443 0066 12       		.byte	18
 10444 0067 0A       		.byte	10
 10445 0068 76       		.byte	118
 10446 0069 25       		.byte	37
 10447 006a 29       		.byte	41
 10448 006b 11       		.byte	17
 10449 006c 91       		.byte	-111
 10450 006d 6E       		.byte	110
 10451 006e 00       		.byte	0
 10452 006f 00       		.byte	0
 10453 0070 00       		.byte	0
 10454 0071 06       		.byte	6
 10455 0072 06       		.byte	6
 10456 0073 04       		.byte	4
 10457 0074 03       		.byte	3
 10458 0075 00       		.byte	0
 10459 0076 00       		.byte	0
 10460 0077 00       		.byte	0
 10461 0078 00       		.byte	0
 10462 0079 00       		.byte	0
 10463 007a 00       		.byte	0
 10464 007b 00       		.byte	0
 10465 007c 00       		.byte	0
 10466 007d 00       		.byte	0
 10467 007e 00       		.byte	0
 10468 007f 00       		.byte	0
 10469 0080 00       		.byte	0
 10470 0081 40       		.byte	64
 10471 0082 20       		.byte	32
 10472 0083 10       		.byte	16
 10473 0084 10       		.byte	16
 10474 0085 08       		.byte	8
 10475 0086 08       		.byte	8
 10476 0087 08       		.byte	8
 10477 0088 08       		.byte	8
 10478 0089 08       		.byte	8
 10479 008a 08       		.byte	8
 10480 008b 10       		.byte	16
 10481 008c 10       		.byte	16
 10482 008d 20       		.byte	32
 10483 008e 40       		.byte	64
 10484 008f 00       		.byte	0
 10485 0090 00       		.byte	0
 10486 0091 02       		.byte	2
 10487 0092 04       		.byte	4
 10488 0093 08       		.byte	8
 10489 0094 08       		.byte	8
 10490 0095 10       		.byte	16
 10491 0096 10       		.byte	16
 10492 0097 10       		.byte	16
 10493 0098 10       		.byte	16
 10494 0099 10       		.byte	16
 10495 009a 10       		.byte	16
 10496 009b 08       		.byte	8
GAS LISTING /tmp/ccIfjRGV.s 			page 236


 10497 009c 08       		.byte	8
 10498 009d 04       		.byte	4
 10499 009e 02       		.byte	2
 10500 009f 00       		.byte	0
 10501 00a0 00       		.byte	0
 10502 00a1 00       		.byte	0
 10503 00a2 00       		.byte	0
 10504 00a3 00       		.byte	0
 10505 00a4 08       		.byte	8
 10506 00a5 08       		.byte	8
 10507 00a6 6B       		.byte	107
 10508 00a7 1C       		.byte	28
 10509 00a8 1C       		.byte	28
 10510 00a9 6B       		.byte	107
 10511 00aa 08       		.byte	8
 10512 00ab 08       		.byte	8
 10513 00ac 00       		.byte	0
 10514 00ad 00       		.byte	0
 10515 00ae 00       		.byte	0
 10516 00af 00       		.byte	0
 10517 00b0 00       		.byte	0
 10518 00b1 00       		.byte	0
 10519 00b2 00       		.byte	0
 10520 00b3 00       		.byte	0
 10521 00b4 08       		.byte	8
 10522 00b5 08       		.byte	8
 10523 00b6 08       		.byte	8
 10524 00b7 08       		.byte	8
 10525 00b8 7F       		.byte	127
 10526 00b9 08       		.byte	8
 10527 00ba 08       		.byte	8
 10528 00bb 08       		.byte	8
 10529 00bc 08       		.byte	8
 10530 00bd 00       		.byte	0
 10531 00be 00       		.byte	0
 10532 00bf 00       		.byte	0
 10533 00c0 00       		.byte	0
 10534 00c1 00       		.byte	0
 10535 00c2 00       		.byte	0
 10536 00c3 00       		.byte	0
 10537 00c4 00       		.byte	0
 10538 00c5 00       		.byte	0
 10539 00c6 00       		.byte	0
 10540 00c7 00       		.byte	0
 10541 00c8 00       		.byte	0
 10542 00c9 00       		.byte	0
 10543 00ca 00       		.byte	0
 10544 00cb 00       		.byte	0
 10545 00cc 06       		.byte	6
 10546 00cd 06       		.byte	6
 10547 00ce 04       		.byte	4
 10548 00cf 03       		.byte	3
 10549 00d0 00       		.byte	0
 10550 00d1 00       		.byte	0
 10551 00d2 00       		.byte	0
 10552 00d3 00       		.byte	0
 10553 00d4 00       		.byte	0
GAS LISTING /tmp/ccIfjRGV.s 			page 237


 10554 00d5 00       		.byte	0
 10555 00d6 00       		.byte	0
 10556 00d7 00       		.byte	0
 10557 00d8 FE       		.byte	-2
 10558 00d9 00       		.byte	0
 10559 00da 00       		.byte	0
 10560 00db 00       		.byte	0
 10561 00dc 00       		.byte	0
 10562 00dd 00       		.byte	0
 10563 00de 00       		.byte	0
 10564 00df 00       		.byte	0
 10565 00e0 00       		.byte	0
 10566 00e1 00       		.byte	0
 10567 00e2 00       		.byte	0
 10568 00e3 00       		.byte	0
 10569 00e4 00       		.byte	0
 10570 00e5 00       		.byte	0
 10571 00e6 00       		.byte	0
 10572 00e7 00       		.byte	0
 10573 00e8 00       		.byte	0
 10574 00e9 00       		.byte	0
 10575 00ea 00       		.byte	0
 10576 00eb 00       		.byte	0
 10577 00ec 06       		.byte	6
 10578 00ed 06       		.byte	6
 10579 00ee 00       		.byte	0
 10580 00ef 00       		.byte	0
 10581 00f0 00       		.byte	0
 10582 00f1 00       		.byte	0
 10583 00f2 80       		.byte	-128
 10584 00f3 40       		.byte	64
 10585 00f4 40       		.byte	64
 10586 00f5 20       		.byte	32
 10587 00f6 20       		.byte	32
 10588 00f7 10       		.byte	16
 10589 00f8 10       		.byte	16
 10590 00f9 08       		.byte	8
 10591 00fa 08       		.byte	8
 10592 00fb 04       		.byte	4
 10593 00fc 04       		.byte	4
 10594 00fd 02       		.byte	2
 10595 00fe 02       		.byte	2
 10596 00ff 00       		.byte	0
 10597 0100 00       		.byte	0
 10598 0101 00       		.byte	0
 10599 0102 00       		.byte	0
 10600 0103 18       		.byte	24
 10601 0104 24       		.byte	36
 10602 0105 42       		.byte	66
 10603 0106 42       		.byte	66
 10604 0107 42       		.byte	66
 10605 0108 42       		.byte	66
 10606 0109 42       		.byte	66
 10607 010a 42       		.byte	66
 10608 010b 42       		.byte	66
 10609 010c 24       		.byte	36
 10610 010d 18       		.byte	24
GAS LISTING /tmp/ccIfjRGV.s 			page 238


 10611 010e 00       		.byte	0
 10612 010f 00       		.byte	0
 10613 0110 00       		.byte	0
 10614 0111 00       		.byte	0
 10615 0112 00       		.byte	0
 10616 0113 08       		.byte	8
 10617 0114 0E       		.byte	14
 10618 0115 08       		.byte	8
 10619 0116 08       		.byte	8
 10620 0117 08       		.byte	8
 10621 0118 08       		.byte	8
 10622 0119 08       		.byte	8
 10623 011a 08       		.byte	8
 10624 011b 08       		.byte	8
 10625 011c 08       		.byte	8
 10626 011d 3E       		.byte	62
 10627 011e 00       		.byte	0
 10628 011f 00       		.byte	0
 10629 0120 00       		.byte	0
 10630 0121 00       		.byte	0
 10631 0122 00       		.byte	0
 10632 0123 3C       		.byte	60
 10633 0124 42       		.byte	66
 10634 0125 42       		.byte	66
 10635 0126 42       		.byte	66
 10636 0127 20       		.byte	32
 10637 0128 20       		.byte	32
 10638 0129 10       		.byte	16
 10639 012a 08       		.byte	8
 10640 012b 04       		.byte	4
 10641 012c 42       		.byte	66
 10642 012d 7E       		.byte	126
 10643 012e 00       		.byte	0
 10644 012f 00       		.byte	0
 10645 0130 00       		.byte	0
 10646 0131 00       		.byte	0
 10647 0132 00       		.byte	0
 10648 0133 3C       		.byte	60
 10649 0134 42       		.byte	66
 10650 0135 42       		.byte	66
 10651 0136 20       		.byte	32
 10652 0137 18       		.byte	24
 10653 0138 20       		.byte	32
 10654 0139 40       		.byte	64
 10655 013a 40       		.byte	64
 10656 013b 42       		.byte	66
 10657 013c 22       		.byte	34
 10658 013d 1C       		.byte	28
 10659 013e 00       		.byte	0
 10660 013f 00       		.byte	0
 10661 0140 00       		.byte	0
 10662 0141 00       		.byte	0
 10663 0142 00       		.byte	0
 10664 0143 20       		.byte	32
 10665 0144 30       		.byte	48
 10666 0145 28       		.byte	40
 10667 0146 24       		.byte	36
GAS LISTING /tmp/ccIfjRGV.s 			page 239


 10668 0147 24       		.byte	36
 10669 0148 22       		.byte	34
 10670 0149 22       		.byte	34
 10671 014a 7E       		.byte	126
 10672 014b 20       		.byte	32
 10673 014c 20       		.byte	32
 10674 014d 78       		.byte	120
 10675 014e 00       		.byte	0
 10676 014f 00       		.byte	0
 10677 0150 00       		.byte	0
 10678 0151 00       		.byte	0
 10679 0152 00       		.byte	0
 10680 0153 7E       		.byte	126
 10681 0154 02       		.byte	2
 10682 0155 02       		.byte	2
 10683 0156 02       		.byte	2
 10684 0157 1A       		.byte	26
 10685 0158 26       		.byte	38
 10686 0159 40       		.byte	64
 10687 015a 40       		.byte	64
 10688 015b 42       		.byte	66
 10689 015c 22       		.byte	34
 10690 015d 1C       		.byte	28
 10691 015e 00       		.byte	0
 10692 015f 00       		.byte	0
 10693 0160 00       		.byte	0
 10694 0161 00       		.byte	0
 10695 0162 00       		.byte	0
 10696 0163 38       		.byte	56
 10697 0164 24       		.byte	36
 10698 0165 02       		.byte	2
 10699 0166 02       		.byte	2
 10700 0167 1A       		.byte	26
 10701 0168 26       		.byte	38
 10702 0169 42       		.byte	66
 10703 016a 42       		.byte	66
 10704 016b 42       		.byte	66
 10705 016c 24       		.byte	36
 10706 016d 18       		.byte	24
 10707 016e 00       		.byte	0
 10708 016f 00       		.byte	0
 10709 0170 00       		.byte	0
 10710 0171 00       		.byte	0
 10711 0172 00       		.byte	0
 10712 0173 7E       		.byte	126
 10713 0174 22       		.byte	34
 10714 0175 22       		.byte	34
 10715 0176 10       		.byte	16
 10716 0177 10       		.byte	16
 10717 0178 08       		.byte	8
 10718 0179 08       		.byte	8
 10719 017a 08       		.byte	8
 10720 017b 08       		.byte	8
 10721 017c 08       		.byte	8
 10722 017d 08       		.byte	8
 10723 017e 00       		.byte	0
 10724 017f 00       		.byte	0
GAS LISTING /tmp/ccIfjRGV.s 			page 240


 10725 0180 00       		.byte	0
 10726 0181 00       		.byte	0
 10727 0182 00       		.byte	0
 10728 0183 3C       		.byte	60
 10729 0184 42       		.byte	66
 10730 0185 42       		.byte	66
 10731 0186 42       		.byte	66
 10732 0187 24       		.byte	36
 10733 0188 18       		.byte	24
 10734 0189 24       		.byte	36
 10735 018a 42       		.byte	66
 10736 018b 42       		.byte	66
 10737 018c 42       		.byte	66
 10738 018d 3C       		.byte	60
 10739 018e 00       		.byte	0
 10740 018f 00       		.byte	0
 10741 0190 00       		.byte	0
 10742 0191 00       		.byte	0
 10743 0192 00       		.byte	0
 10744 0193 18       		.byte	24
 10745 0194 24       		.byte	36
 10746 0195 42       		.byte	66
 10747 0196 42       		.byte	66
 10748 0197 42       		.byte	66
 10749 0198 64       		.byte	100
 10750 0199 58       		.byte	88
 10751 019a 40       		.byte	64
 10752 019b 40       		.byte	64
 10753 019c 24       		.byte	36
 10754 019d 1C       		.byte	28
 10755 019e 00       		.byte	0
 10756 019f 00       		.byte	0
 10757 01a0 00       		.byte	0
 10758 01a1 00       		.byte	0
 10759 01a2 00       		.byte	0
 10760 01a3 00       		.byte	0
 10761 01a4 00       		.byte	0
 10762 01a5 00       		.byte	0
 10763 01a6 18       		.byte	24
 10764 01a7 18       		.byte	24
 10765 01a8 00       		.byte	0
 10766 01a9 00       		.byte	0
 10767 01aa 00       		.byte	0
 10768 01ab 00       		.byte	0
 10769 01ac 18       		.byte	24
 10770 01ad 18       		.byte	24
 10771 01ae 00       		.byte	0
 10772 01af 00       		.byte	0
 10773 01b0 00       		.byte	0
 10774 01b1 00       		.byte	0
 10775 01b2 00       		.byte	0
 10776 01b3 00       		.byte	0
 10777 01b4 00       		.byte	0
 10778 01b5 00       		.byte	0
 10779 01b6 00       		.byte	0
 10780 01b7 08       		.byte	8
 10781 01b8 00       		.byte	0
GAS LISTING /tmp/ccIfjRGV.s 			page 241


 10782 01b9 00       		.byte	0
 10783 01ba 00       		.byte	0
 10784 01bb 00       		.byte	0
 10785 01bc 00       		.byte	0
 10786 01bd 08       		.byte	8
 10787 01be 08       		.byte	8
 10788 01bf 04       		.byte	4
 10789 01c0 00       		.byte	0
 10790 01c1 00       		.byte	0
 10791 01c2 00       		.byte	0
 10792 01c3 40       		.byte	64
 10793 01c4 20       		.byte	32
 10794 01c5 10       		.byte	16
 10795 01c6 08       		.byte	8
 10796 01c7 04       		.byte	4
 10797 01c8 02       		.byte	2
 10798 01c9 04       		.byte	4
 10799 01ca 08       		.byte	8
 10800 01cb 10       		.byte	16
 10801 01cc 20       		.byte	32
 10802 01cd 40       		.byte	64
 10803 01ce 00       		.byte	0
 10804 01cf 00       		.byte	0
 10805 01d0 00       		.byte	0
 10806 01d1 00       		.byte	0
 10807 01d2 00       		.byte	0
 10808 01d3 00       		.byte	0
 10809 01d4 00       		.byte	0
 10810 01d5 00       		.byte	0
 10811 01d6 7F       		.byte	127
 10812 01d7 00       		.byte	0
 10813 01d8 00       		.byte	0
 10814 01d9 00       		.byte	0
 10815 01da 7F       		.byte	127
 10816 01db 00       		.byte	0
 10817 01dc 00       		.byte	0
 10818 01dd 00       		.byte	0
 10819 01de 00       		.byte	0
 10820 01df 00       		.byte	0
 10821 01e0 00       		.byte	0
 10822 01e1 00       		.byte	0
 10823 01e2 00       		.byte	0
 10824 01e3 02       		.byte	2
 10825 01e4 04       		.byte	4
 10826 01e5 08       		.byte	8
 10827 01e6 10       		.byte	16
 10828 01e7 20       		.byte	32
 10829 01e8 40       		.byte	64
 10830 01e9 20       		.byte	32
 10831 01ea 10       		.byte	16
 10832 01eb 08       		.byte	8
 10833 01ec 04       		.byte	4
 10834 01ed 02       		.byte	2
 10835 01ee 00       		.byte	0
 10836 01ef 00       		.byte	0
 10837 01f0 00       		.byte	0
 10838 01f1 00       		.byte	0
GAS LISTING /tmp/ccIfjRGV.s 			page 242


 10839 01f2 00       		.byte	0
 10840 01f3 3C       		.byte	60
 10841 01f4 42       		.byte	66
 10842 01f5 42       		.byte	66
 10843 01f6 46       		.byte	70
 10844 01f7 40       		.byte	64
 10845 01f8 20       		.byte	32
 10846 01f9 10       		.byte	16
 10847 01fa 10       		.byte	16
 10848 01fb 00       		.byte	0
 10849 01fc 18       		.byte	24
 10850 01fd 18       		.byte	24
 10851 01fe 00       		.byte	0
 10852 01ff 00       		.byte	0
 10853 0200 00       		.byte	0
 10854 0201 00       		.byte	0
 10855 0202 00       		.byte	0
 10856 0203 1C       		.byte	28
 10857 0204 22       		.byte	34
 10858 0205 5A       		.byte	90
 10859 0206 55       		.byte	85
 10860 0207 55       		.byte	85
 10861 0208 55       		.byte	85
 10862 0209 55       		.byte	85
 10863 020a 2D       		.byte	45
 10864 020b 42       		.byte	66
 10865 020c 22       		.byte	34
 10866 020d 1C       		.byte	28
 10867 020e 00       		.byte	0
 10868 020f 00       		.byte	0
 10869 0210 00       		.byte	0
 10870 0211 00       		.byte	0
 10871 0212 00       		.byte	0
 10872 0213 08       		.byte	8
 10873 0214 08       		.byte	8
 10874 0215 18       		.byte	24
 10875 0216 14       		.byte	20
 10876 0217 14       		.byte	20
 10877 0218 24       		.byte	36
 10878 0219 3C       		.byte	60
 10879 021a 22       		.byte	34
 10880 021b 42       		.byte	66
 10881 021c 42       		.byte	66
 10882 021d E7       		.byte	-25
 10883 021e 00       		.byte	0
 10884 021f 00       		.byte	0
 10885 0220 00       		.byte	0
 10886 0221 00       		.byte	0
 10887 0222 00       		.byte	0
 10888 0223 1F       		.byte	31
 10889 0224 22       		.byte	34
 10890 0225 22       		.byte	34
 10891 0226 22       		.byte	34
 10892 0227 1E       		.byte	30
 10893 0228 22       		.byte	34
 10894 0229 42       		.byte	66
 10895 022a 42       		.byte	66
GAS LISTING /tmp/ccIfjRGV.s 			page 243


 10896 022b 42       		.byte	66
 10897 022c 22       		.byte	34
 10898 022d 1F       		.byte	31
 10899 022e 00       		.byte	0
 10900 022f 00       		.byte	0
 10901 0230 00       		.byte	0
 10902 0231 00       		.byte	0
 10903 0232 00       		.byte	0
 10904 0233 7C       		.byte	124
 10905 0234 42       		.byte	66
 10906 0235 42       		.byte	66
 10907 0236 01       		.byte	1
 10908 0237 01       		.byte	1
 10909 0238 01       		.byte	1
 10910 0239 01       		.byte	1
 10911 023a 01       		.byte	1
 10912 023b 42       		.byte	66
 10913 023c 22       		.byte	34
 10914 023d 1C       		.byte	28
 10915 023e 00       		.byte	0
 10916 023f 00       		.byte	0
 10917 0240 00       		.byte	0
 10918 0241 00       		.byte	0
 10919 0242 00       		.byte	0
 10920 0243 1F       		.byte	31
 10921 0244 22       		.byte	34
 10922 0245 42       		.byte	66
 10923 0246 42       		.byte	66
 10924 0247 42       		.byte	66
 10925 0248 42       		.byte	66
 10926 0249 42       		.byte	66
 10927 024a 42       		.byte	66
 10928 024b 42       		.byte	66
 10929 024c 22       		.byte	34
 10930 024d 1F       		.byte	31
 10931 024e 00       		.byte	0
 10932 024f 00       		.byte	0
 10933 0250 00       		.byte	0
 10934 0251 00       		.byte	0
 10935 0252 00       		.byte	0
 10936 0253 3F       		.byte	63
 10937 0254 42       		.byte	66
 10938 0255 12       		.byte	18
 10939 0256 12       		.byte	18
 10940 0257 1E       		.byte	30
 10941 0258 12       		.byte	18
 10942 0259 12       		.byte	18
 10943 025a 02       		.byte	2
 10944 025b 42       		.byte	66
 10945 025c 42       		.byte	66
 10946 025d 3F       		.byte	63
 10947 025e 00       		.byte	0
 10948 025f 00       		.byte	0
 10949 0260 00       		.byte	0
 10950 0261 00       		.byte	0
 10951 0262 00       		.byte	0
 10952 0263 3F       		.byte	63
GAS LISTING /tmp/ccIfjRGV.s 			page 244


 10953 0264 42       		.byte	66
 10954 0265 12       		.byte	18
 10955 0266 12       		.byte	18
 10956 0267 1E       		.byte	30
 10957 0268 12       		.byte	18
 10958 0269 12       		.byte	18
 10959 026a 02       		.byte	2
 10960 026b 02       		.byte	2
 10961 026c 02       		.byte	2
 10962 026d 07       		.byte	7
 10963 026e 00       		.byte	0
 10964 026f 00       		.byte	0
 10965 0270 00       		.byte	0
 10966 0271 00       		.byte	0
 10967 0272 00       		.byte	0
 10968 0273 3C       		.byte	60
 10969 0274 22       		.byte	34
 10970 0275 22       		.byte	34
 10971 0276 01       		.byte	1
 10972 0277 01       		.byte	1
 10973 0278 01       		.byte	1
 10974 0279 71       		.byte	113
 10975 027a 21       		.byte	33
 10976 027b 22       		.byte	34
 10977 027c 22       		.byte	34
 10978 027d 1C       		.byte	28
 10979 027e 00       		.byte	0
 10980 027f 00       		.byte	0
 10981 0280 00       		.byte	0
 10982 0281 00       		.byte	0
 10983 0282 00       		.byte	0
 10984 0283 E7       		.byte	-25
 10985 0284 42       		.byte	66
 10986 0285 42       		.byte	66
 10987 0286 42       		.byte	66
 10988 0287 42       		.byte	66
 10989 0288 7E       		.byte	126
 10990 0289 42       		.byte	66
 10991 028a 42       		.byte	66
 10992 028b 42       		.byte	66
 10993 028c 42       		.byte	66
 10994 028d E7       		.byte	-25
 10995 028e 00       		.byte	0
 10996 028f 00       		.byte	0
 10997 0290 00       		.byte	0
 10998 0291 00       		.byte	0
 10999 0292 00       		.byte	0
 11000 0293 3E       		.byte	62
 11001 0294 08       		.byte	8
 11002 0295 08       		.byte	8
 11003 0296 08       		.byte	8
 11004 0297 08       		.byte	8
 11005 0298 08       		.byte	8
 11006 0299 08       		.byte	8
 11007 029a 08       		.byte	8
 11008 029b 08       		.byte	8
 11009 029c 08       		.byte	8
GAS LISTING /tmp/ccIfjRGV.s 			page 245


 11010 029d 3E       		.byte	62
 11011 029e 00       		.byte	0
 11012 029f 00       		.byte	0
 11013 02a0 00       		.byte	0
 11014 02a1 00       		.byte	0
 11015 02a2 00       		.byte	0
 11016 02a3 7C       		.byte	124
 11017 02a4 10       		.byte	16
 11018 02a5 10       		.byte	16
 11019 02a6 10       		.byte	16
 11020 02a7 10       		.byte	16
 11021 02a8 10       		.byte	16
 11022 02a9 10       		.byte	16
 11023 02aa 10       		.byte	16
 11024 02ab 10       		.byte	16
 11025 02ac 10       		.byte	16
 11026 02ad 10       		.byte	16
 11027 02ae 11       		.byte	17
 11028 02af 0F       		.byte	15
 11029 02b0 00       		.byte	0
 11030 02b1 00       		.byte	0
 11031 02b2 00       		.byte	0
 11032 02b3 77       		.byte	119
 11033 02b4 22       		.byte	34
 11034 02b5 12       		.byte	18
 11035 02b6 0A       		.byte	10
 11036 02b7 0E       		.byte	14
 11037 02b8 0A       		.byte	10
 11038 02b9 12       		.byte	18
 11039 02ba 12       		.byte	18
 11040 02bb 22       		.byte	34
 11041 02bc 22       		.byte	34
 11042 02bd 77       		.byte	119
 11043 02be 00       		.byte	0
 11044 02bf 00       		.byte	0
 11045 02c0 00       		.byte	0
 11046 02c1 00       		.byte	0
 11047 02c2 00       		.byte	0
 11048 02c3 07       		.byte	7
 11049 02c4 02       		.byte	2
 11050 02c5 02       		.byte	2
 11051 02c6 02       		.byte	2
 11052 02c7 02       		.byte	2
 11053 02c8 02       		.byte	2
 11054 02c9 02       		.byte	2
 11055 02ca 02       		.byte	2
 11056 02cb 02       		.byte	2
 11057 02cc 42       		.byte	66
 11058 02cd 7F       		.byte	127
 11059 02ce 00       		.byte	0
 11060 02cf 00       		.byte	0
 11061 02d0 00       		.byte	0
 11062 02d1 00       		.byte	0
 11063 02d2 00       		.byte	0
 11064 02d3 77       		.byte	119
 11065 02d4 36       		.byte	54
 11066 02d5 36       		.byte	54
GAS LISTING /tmp/ccIfjRGV.s 			page 246


 11067 02d6 36       		.byte	54
 11068 02d7 36       		.byte	54
 11069 02d8 2A       		.byte	42
 11070 02d9 2A       		.byte	42
 11071 02da 2A       		.byte	42
 11072 02db 2A       		.byte	42
 11073 02dc 2A       		.byte	42
 11074 02dd 6B       		.byte	107
 11075 02de 00       		.byte	0
 11076 02df 00       		.byte	0
 11077 02e0 00       		.byte	0
 11078 02e1 00       		.byte	0
 11079 02e2 00       		.byte	0
 11080 02e3 E3       		.byte	-29
 11081 02e4 46       		.byte	70
 11082 02e5 46       		.byte	70
 11083 02e6 4A       		.byte	74
 11084 02e7 4A       		.byte	74
 11085 02e8 52       		.byte	82
 11086 02e9 52       		.byte	82
 11087 02ea 52       		.byte	82
 11088 02eb 62       		.byte	98
 11089 02ec 62       		.byte	98
 11090 02ed 47       		.byte	71
 11091 02ee 00       		.byte	0
 11092 02ef 00       		.byte	0
 11093 02f0 00       		.byte	0
 11094 02f1 00       		.byte	0
 11095 02f2 00       		.byte	0
 11096 02f3 1C       		.byte	28
 11097 02f4 22       		.byte	34
 11098 02f5 41       		.byte	65
 11099 02f6 41       		.byte	65
 11100 02f7 41       		.byte	65
 11101 02f8 41       		.byte	65
 11102 02f9 41       		.byte	65
 11103 02fa 41       		.byte	65
 11104 02fb 41       		.byte	65
 11105 02fc 22       		.byte	34
 11106 02fd 1C       		.byte	28
 11107 02fe 00       		.byte	0
 11108 02ff 00       		.byte	0
 11109 0300 00       		.byte	0
 11110 0301 00       		.byte	0
 11111 0302 00       		.byte	0
 11112 0303 3F       		.byte	63
 11113 0304 42       		.byte	66
 11114 0305 42       		.byte	66
 11115 0306 42       		.byte	66
 11116 0307 42       		.byte	66
 11117 0308 3E       		.byte	62
 11118 0309 02       		.byte	2
 11119 030a 02       		.byte	2
 11120 030b 02       		.byte	2
 11121 030c 02       		.byte	2
 11122 030d 07       		.byte	7
 11123 030e 00       		.byte	0
GAS LISTING /tmp/ccIfjRGV.s 			page 247


 11124 030f 00       		.byte	0
 11125 0310 00       		.byte	0
 11126 0311 00       		.byte	0
 11127 0312 00       		.byte	0
 11128 0313 1C       		.byte	28
 11129 0314 22       		.byte	34
 11130 0315 41       		.byte	65
 11131 0316 41       		.byte	65
 11132 0317 41       		.byte	65
 11133 0318 41       		.byte	65
 11134 0319 41       		.byte	65
 11135 031a 4D       		.byte	77
 11136 031b 53       		.byte	83
 11137 031c 32       		.byte	50
 11138 031d 1C       		.byte	28
 11139 031e 60       		.byte	96
 11140 031f 00       		.byte	0
 11141 0320 00       		.byte	0
 11142 0321 00       		.byte	0
 11143 0322 00       		.byte	0
 11144 0323 3F       		.byte	63
 11145 0324 42       		.byte	66
 11146 0325 42       		.byte	66
 11147 0326 42       		.byte	66
 11148 0327 3E       		.byte	62
 11149 0328 12       		.byte	18
 11150 0329 12       		.byte	18
 11151 032a 22       		.byte	34
 11152 032b 22       		.byte	34
 11153 032c 42       		.byte	66
 11154 032d C7       		.byte	-57
 11155 032e 00       		.byte	0
 11156 032f 00       		.byte	0
 11157 0330 00       		.byte	0
 11158 0331 00       		.byte	0
 11159 0332 00       		.byte	0
 11160 0333 7C       		.byte	124
 11161 0334 42       		.byte	66
 11162 0335 42       		.byte	66
 11163 0336 02       		.byte	2
 11164 0337 04       		.byte	4
 11165 0338 18       		.byte	24
 11166 0339 20       		.byte	32
 11167 033a 40       		.byte	64
 11168 033b 42       		.byte	66
 11169 033c 42       		.byte	66
 11170 033d 3E       		.byte	62
 11171 033e 00       		.byte	0
 11172 033f 00       		.byte	0
 11173 0340 00       		.byte	0
 11174 0341 00       		.byte	0
 11175 0342 00       		.byte	0
 11176 0343 7F       		.byte	127
 11177 0344 49       		.byte	73
 11178 0345 08       		.byte	8
 11179 0346 08       		.byte	8
 11180 0347 08       		.byte	8
GAS LISTING /tmp/ccIfjRGV.s 			page 248


 11181 0348 08       		.byte	8
 11182 0349 08       		.byte	8
 11183 034a 08       		.byte	8
 11184 034b 08       		.byte	8
 11185 034c 08       		.byte	8
 11186 034d 1C       		.byte	28
 11187 034e 00       		.byte	0
 11188 034f 00       		.byte	0
 11189 0350 00       		.byte	0
 11190 0351 00       		.byte	0
 11191 0352 00       		.byte	0
 11192 0353 E7       		.byte	-25
 11193 0354 42       		.byte	66
 11194 0355 42       		.byte	66
 11195 0356 42       		.byte	66
 11196 0357 42       		.byte	66
 11197 0358 42       		.byte	66
 11198 0359 42       		.byte	66
 11199 035a 42       		.byte	66
 11200 035b 42       		.byte	66
 11201 035c 42       		.byte	66
 11202 035d 3C       		.byte	60
 11203 035e 00       		.byte	0
 11204 035f 00       		.byte	0
 11205 0360 00       		.byte	0
 11206 0361 00       		.byte	0
 11207 0362 00       		.byte	0
 11208 0363 E7       		.byte	-25
 11209 0364 42       		.byte	66
 11210 0365 42       		.byte	66
 11211 0366 22       		.byte	34
 11212 0367 24       		.byte	36
 11213 0368 24       		.byte	36
 11214 0369 14       		.byte	20
 11215 036a 14       		.byte	20
 11216 036b 18       		.byte	24
 11217 036c 08       		.byte	8
 11218 036d 08       		.byte	8
 11219 036e 00       		.byte	0
 11220 036f 00       		.byte	0
 11221 0370 00       		.byte	0
 11222 0371 00       		.byte	0
 11223 0372 00       		.byte	0
 11224 0373 6B       		.byte	107
 11225 0374 49       		.byte	73
 11226 0375 49       		.byte	73
 11227 0376 49       		.byte	73
 11228 0377 49       		.byte	73
 11229 0378 55       		.byte	85
 11230 0379 55       		.byte	85
 11231 037a 36       		.byte	54
 11232 037b 22       		.byte	34
 11233 037c 22       		.byte	34
 11234 037d 22       		.byte	34
 11235 037e 00       		.byte	0
 11236 037f 00       		.byte	0
 11237 0380 00       		.byte	0
GAS LISTING /tmp/ccIfjRGV.s 			page 249


 11238 0381 00       		.byte	0
 11239 0382 00       		.byte	0
 11240 0383 E7       		.byte	-25
 11241 0384 42       		.byte	66
 11242 0385 24       		.byte	36
 11243 0386 24       		.byte	36
 11244 0387 18       		.byte	24
 11245 0388 18       		.byte	24
 11246 0389 18       		.byte	24
 11247 038a 24       		.byte	36
 11248 038b 24       		.byte	36
 11249 038c 42       		.byte	66
 11250 038d E7       		.byte	-25
 11251 038e 00       		.byte	0
 11252 038f 00       		.byte	0
 11253 0390 00       		.byte	0
 11254 0391 00       		.byte	0
 11255 0392 00       		.byte	0
 11256 0393 77       		.byte	119
 11257 0394 22       		.byte	34
 11258 0395 22       		.byte	34
 11259 0396 14       		.byte	20
 11260 0397 14       		.byte	20
 11261 0398 08       		.byte	8
 11262 0399 08       		.byte	8
 11263 039a 08       		.byte	8
 11264 039b 08       		.byte	8
 11265 039c 08       		.byte	8
 11266 039d 1C       		.byte	28
 11267 039e 00       		.byte	0
 11268 039f 00       		.byte	0
 11269 03a0 00       		.byte	0
 11270 03a1 00       		.byte	0
 11271 03a2 00       		.byte	0
 11272 03a3 7E       		.byte	126
 11273 03a4 21       		.byte	33
 11274 03a5 20       		.byte	32
 11275 03a6 10       		.byte	16
 11276 03a7 10       		.byte	16
 11277 03a8 08       		.byte	8
 11278 03a9 04       		.byte	4
 11279 03aa 04       		.byte	4
 11280 03ab 42       		.byte	66
 11281 03ac 42       		.byte	66
 11282 03ad 3F       		.byte	63
 11283 03ae 00       		.byte	0
 11284 03af 00       		.byte	0
 11285 03b0 00       		.byte	0
 11286 03b1 78       		.byte	120
 11287 03b2 08       		.byte	8
 11288 03b3 08       		.byte	8
 11289 03b4 08       		.byte	8
 11290 03b5 08       		.byte	8
 11291 03b6 08       		.byte	8
 11292 03b7 08       		.byte	8
 11293 03b8 08       		.byte	8
 11294 03b9 08       		.byte	8
GAS LISTING /tmp/ccIfjRGV.s 			page 250


 11295 03ba 08       		.byte	8
 11296 03bb 08       		.byte	8
 11297 03bc 08       		.byte	8
 11298 03bd 08       		.byte	8
 11299 03be 78       		.byte	120
 11300 03bf 00       		.byte	0
 11301 03c0 00       		.byte	0
 11302 03c1 00       		.byte	0
 11303 03c2 02       		.byte	2
 11304 03c3 02       		.byte	2
 11305 03c4 04       		.byte	4
 11306 03c5 04       		.byte	4
 11307 03c6 08       		.byte	8
 11308 03c7 08       		.byte	8
 11309 03c8 08       		.byte	8
 11310 03c9 10       		.byte	16
 11311 03ca 10       		.byte	16
 11312 03cb 20       		.byte	32
 11313 03cc 20       		.byte	32
 11314 03cd 20       		.byte	32
 11315 03ce 40       		.byte	64
 11316 03cf 40       		.byte	64
 11317 03d0 00       		.byte	0
 11318 03d1 1E       		.byte	30
 11319 03d2 10       		.byte	16
 11320 03d3 10       		.byte	16
 11321 03d4 10       		.byte	16
 11322 03d5 10       		.byte	16
 11323 03d6 10       		.byte	16
 11324 03d7 10       		.byte	16
 11325 03d8 10       		.byte	16
 11326 03d9 10       		.byte	16
 11327 03da 10       		.byte	16
 11328 03db 10       		.byte	16
 11329 03dc 10       		.byte	16
 11330 03dd 10       		.byte	16
 11331 03de 1E       		.byte	30
 11332 03df 00       		.byte	0
 11333 03e0 00       		.byte	0
 11334 03e1 38       		.byte	56
 11335 03e2 44       		.byte	68
 11336 03e3 00       		.byte	0
 11337 03e4 00       		.byte	0
 11338 03e5 00       		.byte	0
 11339 03e6 00       		.byte	0
 11340 03e7 00       		.byte	0
 11341 03e8 00       		.byte	0
 11342 03e9 00       		.byte	0
 11343 03ea 00       		.byte	0
 11344 03eb 00       		.byte	0
 11345 03ec 00       		.byte	0
 11346 03ed 00       		.byte	0
 11347 03ee 00       		.byte	0
 11348 03ef 00       		.byte	0
 11349 03f0 00       		.byte	0
 11350 03f1 00       		.byte	0
 11351 03f2 00       		.byte	0
GAS LISTING /tmp/ccIfjRGV.s 			page 251


 11352 03f3 00       		.byte	0
 11353 03f4 00       		.byte	0
 11354 03f5 00       		.byte	0
 11355 03f6 00       		.byte	0
 11356 03f7 00       		.byte	0
 11357 03f8 00       		.byte	0
 11358 03f9 00       		.byte	0
 11359 03fa 00       		.byte	0
 11360 03fb 00       		.byte	0
 11361 03fc 00       		.byte	0
 11362 03fd 00       		.byte	0
 11363 03fe 00       		.byte	0
 11364 03ff FF       		.byte	-1
 11365 0400 00       		.byte	0
 11366 0401 06       		.byte	6
 11367 0402 08       		.byte	8
 11368 0403 00       		.byte	0
 11369 0404 00       		.byte	0
 11370 0405 00       		.byte	0
 11371 0406 00       		.byte	0
 11372 0407 00       		.byte	0
 11373 0408 00       		.byte	0
 11374 0409 00       		.byte	0
 11375 040a 00       		.byte	0
 11376 040b 00       		.byte	0
 11377 040c 00       		.byte	0
 11378 040d 00       		.byte	0
 11379 040e 00       		.byte	0
 11380 040f 00       		.byte	0
 11381 0410 00       		.byte	0
 11382 0411 00       		.byte	0
 11383 0412 00       		.byte	0
 11384 0413 00       		.byte	0
 11385 0414 00       		.byte	0
 11386 0415 00       		.byte	0
 11387 0416 00       		.byte	0
 11388 0417 3C       		.byte	60
 11389 0418 42       		.byte	66
 11390 0419 78       		.byte	120
 11391 041a 44       		.byte	68
 11392 041b 42       		.byte	66
 11393 041c 42       		.byte	66
 11394 041d FC       		.byte	-4
 11395 041e 00       		.byte	0
 11396 041f 00       		.byte	0
 11397 0420 00       		.byte	0
 11398 0421 00       		.byte	0
 11399 0422 00       		.byte	0
 11400 0423 03       		.byte	3
 11401 0424 02       		.byte	2
 11402 0425 02       		.byte	2
 11403 0426 02       		.byte	2
 11404 0427 1A       		.byte	26
 11405 0428 26       		.byte	38
 11406 0429 42       		.byte	66
 11407 042a 42       		.byte	66
 11408 042b 42       		.byte	66
GAS LISTING /tmp/ccIfjRGV.s 			page 252


 11409 042c 26       		.byte	38
 11410 042d 1A       		.byte	26
 11411 042e 00       		.byte	0
 11412 042f 00       		.byte	0
 11413 0430 00       		.byte	0
 11414 0431 00       		.byte	0
 11415 0432 00       		.byte	0
 11416 0433 00       		.byte	0
 11417 0434 00       		.byte	0
 11418 0435 00       		.byte	0
 11419 0436 00       		.byte	0
 11420 0437 38       		.byte	56
 11421 0438 44       		.byte	68
 11422 0439 02       		.byte	2
 11423 043a 02       		.byte	2
 11424 043b 02       		.byte	2
 11425 043c 44       		.byte	68
 11426 043d 38       		.byte	56
 11427 043e 00       		.byte	0
 11428 043f 00       		.byte	0
 11429 0440 00       		.byte	0
 11430 0441 00       		.byte	0
 11431 0442 00       		.byte	0
 11432 0443 60       		.byte	96
 11433 0444 40       		.byte	64
 11434 0445 40       		.byte	64
 11435 0446 40       		.byte	64
 11436 0447 78       		.byte	120
 11437 0448 44       		.byte	68
 11438 0449 42       		.byte	66
 11439 044a 42       		.byte	66
 11440 044b 42       		.byte	66
 11441 044c 64       		.byte	100
 11442 044d D8       		.byte	-40
 11443 044e 00       		.byte	0
 11444 044f 00       		.byte	0
 11445 0450 00       		.byte	0
 11446 0451 00       		.byte	0
 11447 0452 00       		.byte	0
 11448 0453 00       		.byte	0
 11449 0454 00       		.byte	0
 11450 0455 00       		.byte	0
 11451 0456 00       		.byte	0
 11452 0457 3C       		.byte	60
 11453 0458 42       		.byte	66
 11454 0459 7E       		.byte	126
 11455 045a 02       		.byte	2
 11456 045b 02       		.byte	2
 11457 045c 42       		.byte	66
 11458 045d 3C       		.byte	60
 11459 045e 00       		.byte	0
 11460 045f 00       		.byte	0
 11461 0460 00       		.byte	0
 11462 0461 00       		.byte	0
 11463 0462 00       		.byte	0
 11464 0463 F0       		.byte	-16
 11465 0464 88       		.byte	-120
GAS LISTING /tmp/ccIfjRGV.s 			page 253


 11466 0465 08       		.byte	8
 11467 0466 08       		.byte	8
 11468 0467 7E       		.byte	126
 11469 0468 08       		.byte	8
 11470 0469 08       		.byte	8
 11471 046a 08       		.byte	8
 11472 046b 08       		.byte	8
 11473 046c 08       		.byte	8
 11474 046d 3E       		.byte	62
 11475 046e 00       		.byte	0
 11476 046f 00       		.byte	0
 11477 0470 00       		.byte	0
 11478 0471 00       		.byte	0
 11479 0472 00       		.byte	0
 11480 0473 00       		.byte	0
 11481 0474 00       		.byte	0
 11482 0475 00       		.byte	0
 11483 0476 00       		.byte	0
 11484 0477 7C       		.byte	124
 11485 0478 22       		.byte	34
 11486 0479 22       		.byte	34
 11487 047a 1C       		.byte	28
 11488 047b 02       		.byte	2
 11489 047c 3C       		.byte	60
 11490 047d 42       		.byte	66
 11491 047e 42       		.byte	66
 11492 047f 3C       		.byte	60
 11493 0480 00       		.byte	0
 11494 0481 00       		.byte	0
 11495 0482 00       		.byte	0
 11496 0483 03       		.byte	3
 11497 0484 02       		.byte	2
 11498 0485 02       		.byte	2
 11499 0486 02       		.byte	2
 11500 0487 3A       		.byte	58
 11501 0488 46       		.byte	70
 11502 0489 42       		.byte	66
 11503 048a 42       		.byte	66
 11504 048b 42       		.byte	66
 11505 048c 42       		.byte	66
 11506 048d E7       		.byte	-25
 11507 048e 00       		.byte	0
 11508 048f 00       		.byte	0
 11509 0490 00       		.byte	0
 11510 0491 00       		.byte	0
 11511 0492 00       		.byte	0
 11512 0493 0C       		.byte	12
 11513 0494 0C       		.byte	12
 11514 0495 00       		.byte	0
 11515 0496 00       		.byte	0
 11516 0497 0E       		.byte	14
 11517 0498 08       		.byte	8
 11518 0499 08       		.byte	8
 11519 049a 08       		.byte	8
 11520 049b 08       		.byte	8
 11521 049c 08       		.byte	8
 11522 049d 3E       		.byte	62
GAS LISTING /tmp/ccIfjRGV.s 			page 254


 11523 049e 00       		.byte	0
 11524 049f 00       		.byte	0
 11525 04a0 00       		.byte	0
 11526 04a1 00       		.byte	0
 11527 04a2 00       		.byte	0
 11528 04a3 30       		.byte	48
 11529 04a4 30       		.byte	48
 11530 04a5 00       		.byte	0
 11531 04a6 00       		.byte	0
 11532 04a7 38       		.byte	56
 11533 04a8 20       		.byte	32
 11534 04a9 20       		.byte	32
 11535 04aa 20       		.byte	32
 11536 04ab 20       		.byte	32
 11537 04ac 20       		.byte	32
 11538 04ad 20       		.byte	32
 11539 04ae 22       		.byte	34
 11540 04af 1E       		.byte	30
 11541 04b0 00       		.byte	0
 11542 04b1 00       		.byte	0
 11543 04b2 00       		.byte	0
 11544 04b3 03       		.byte	3
 11545 04b4 02       		.byte	2
 11546 04b5 02       		.byte	2
 11547 04b6 02       		.byte	2
 11548 04b7 72       		.byte	114
 11549 04b8 12       		.byte	18
 11550 04b9 0A       		.byte	10
 11551 04ba 16       		.byte	22
 11552 04bb 12       		.byte	18
 11553 04bc 22       		.byte	34
 11554 04bd 77       		.byte	119
 11555 04be 00       		.byte	0
 11556 04bf 00       		.byte	0
 11557 04c0 00       		.byte	0
 11558 04c1 00       		.byte	0
 11559 04c2 00       		.byte	0
 11560 04c3 0E       		.byte	14
 11561 04c4 08       		.byte	8
 11562 04c5 08       		.byte	8
 11563 04c6 08       		.byte	8
 11564 04c7 08       		.byte	8
 11565 04c8 08       		.byte	8
 11566 04c9 08       		.byte	8
 11567 04ca 08       		.byte	8
 11568 04cb 08       		.byte	8
 11569 04cc 08       		.byte	8
 11570 04cd 3E       		.byte	62
 11571 04ce 00       		.byte	0
 11572 04cf 00       		.byte	0
 11573 04d0 00       		.byte	0
 11574 04d1 00       		.byte	0
 11575 04d2 00       		.byte	0
 11576 04d3 00       		.byte	0
 11577 04d4 00       		.byte	0
 11578 04d5 00       		.byte	0
 11579 04d6 00       		.byte	0
GAS LISTING /tmp/ccIfjRGV.s 			page 255


 11580 04d7 7F       		.byte	127
 11581 04d8 92       		.byte	-110
 11582 04d9 92       		.byte	-110
 11583 04da 92       		.byte	-110
 11584 04db 92       		.byte	-110
 11585 04dc 92       		.byte	-110
 11586 04dd B7       		.byte	-73
 11587 04de 00       		.byte	0
 11588 04df 00       		.byte	0
 11589 04e0 00       		.byte	0
 11590 04e1 00       		.byte	0
 11591 04e2 00       		.byte	0
 11592 04e3 00       		.byte	0
 11593 04e4 00       		.byte	0
 11594 04e5 00       		.byte	0
 11595 04e6 00       		.byte	0
 11596 04e7 3B       		.byte	59
 11597 04e8 46       		.byte	70
 11598 04e9 42       		.byte	66
 11599 04ea 42       		.byte	66
 11600 04eb 42       		.byte	66
 11601 04ec 42       		.byte	66
 11602 04ed E7       		.byte	-25
 11603 04ee 00       		.byte	0
 11604 04ef 00       		.byte	0
 11605 04f0 00       		.byte	0
 11606 04f1 00       		.byte	0
 11607 04f2 00       		.byte	0
 11608 04f3 00       		.byte	0
 11609 04f4 00       		.byte	0
 11610 04f5 00       		.byte	0
 11611 04f6 00       		.byte	0
 11612 04f7 3C       		.byte	60
 11613 04f8 42       		.byte	66
 11614 04f9 42       		.byte	66
 11615 04fa 42       		.byte	66
 11616 04fb 42       		.byte	66
 11617 04fc 42       		.byte	66
 11618 04fd 3C       		.byte	60
 11619 04fe 00       		.byte	0
 11620 04ff 00       		.byte	0
 11621 0500 00       		.byte	0
 11622 0501 00       		.byte	0
 11623 0502 00       		.byte	0
 11624 0503 00       		.byte	0
 11625 0504 00       		.byte	0
 11626 0505 00       		.byte	0
 11627 0506 00       		.byte	0
 11628 0507 1B       		.byte	27
 11629 0508 26       		.byte	38
 11630 0509 42       		.byte	66
 11631 050a 42       		.byte	66
 11632 050b 42       		.byte	66
 11633 050c 22       		.byte	34
 11634 050d 1E       		.byte	30
 11635 050e 02       		.byte	2
 11636 050f 07       		.byte	7
GAS LISTING /tmp/ccIfjRGV.s 			page 256


 11637 0510 00       		.byte	0
 11638 0511 00       		.byte	0
 11639 0512 00       		.byte	0
 11640 0513 00       		.byte	0
 11641 0514 00       		.byte	0
 11642 0515 00       		.byte	0
 11643 0516 00       		.byte	0
 11644 0517 78       		.byte	120
 11645 0518 44       		.byte	68
 11646 0519 42       		.byte	66
 11647 051a 42       		.byte	66
 11648 051b 42       		.byte	66
 11649 051c 44       		.byte	68
 11650 051d 78       		.byte	120
 11651 051e 40       		.byte	64
 11652 051f E0       		.byte	-32
 11653 0520 00       		.byte	0
 11654 0521 00       		.byte	0
 11655 0522 00       		.byte	0
 11656 0523 00       		.byte	0
 11657 0524 00       		.byte	0
 11658 0525 00       		.byte	0
 11659 0526 00       		.byte	0
 11660 0527 77       		.byte	119
 11661 0528 4C       		.byte	76
 11662 0529 04       		.byte	4
 11663 052a 04       		.byte	4
 11664 052b 04       		.byte	4
 11665 052c 04       		.byte	4
 11666 052d 1F       		.byte	31
 11667 052e 00       		.byte	0
 11668 052f 00       		.byte	0
 11669 0530 00       		.byte	0
 11670 0531 00       		.byte	0
 11671 0532 00       		.byte	0
 11672 0533 00       		.byte	0
 11673 0534 00       		.byte	0
 11674 0535 00       		.byte	0
 11675 0536 00       		.byte	0
 11676 0537 7C       		.byte	124
 11677 0538 42       		.byte	66
 11678 0539 02       		.byte	2
 11679 053a 3C       		.byte	60
 11680 053b 40       		.byte	64
 11681 053c 42       		.byte	66
 11682 053d 3E       		.byte	62
 11683 053e 00       		.byte	0
 11684 053f 00       		.byte	0
 11685 0540 00       		.byte	0
 11686 0541 00       		.byte	0
 11687 0542 00       		.byte	0
 11688 0543 00       		.byte	0
 11689 0544 00       		.byte	0
 11690 0545 08       		.byte	8
 11691 0546 08       		.byte	8
 11692 0547 3E       		.byte	62
 11693 0548 08       		.byte	8
GAS LISTING /tmp/ccIfjRGV.s 			page 257


 11694 0549 08       		.byte	8
 11695 054a 08       		.byte	8
 11696 054b 08       		.byte	8
 11697 054c 08       		.byte	8
 11698 054d 30       		.byte	48
 11699 054e 00       		.byte	0
 11700 054f 00       		.byte	0
 11701 0550 00       		.byte	0
 11702 0551 00       		.byte	0
 11703 0552 00       		.byte	0
 11704 0553 00       		.byte	0
 11705 0554 00       		.byte	0
 11706 0555 00       		.byte	0
 11707 0556 00       		.byte	0
 11708 0557 63       		.byte	99
 11709 0558 42       		.byte	66
 11710 0559 42       		.byte	66
 11711 055a 42       		.byte	66
 11712 055b 42       		.byte	66
 11713 055c 62       		.byte	98
 11714 055d DC       		.byte	-36
 11715 055e 00       		.byte	0
 11716 055f 00       		.byte	0
 11717 0560 00       		.byte	0
 11718 0561 00       		.byte	0
 11719 0562 00       		.byte	0
 11720 0563 00       		.byte	0
 11721 0564 00       		.byte	0
 11722 0565 00       		.byte	0
 11723 0566 00       		.byte	0
 11724 0567 E7       		.byte	-25
 11725 0568 42       		.byte	66
 11726 0569 24       		.byte	36
 11727 056a 24       		.byte	36
 11728 056b 14       		.byte	20
 11729 056c 08       		.byte	8
 11730 056d 08       		.byte	8
 11731 056e 00       		.byte	0
 11732 056f 00       		.byte	0
 11733 0570 00       		.byte	0
 11734 0571 00       		.byte	0
 11735 0572 00       		.byte	0
 11736 0573 00       		.byte	0
 11737 0574 00       		.byte	0
 11738 0575 00       		.byte	0
 11739 0576 00       		.byte	0
 11740 0577 EB       		.byte	-21
 11741 0578 49       		.byte	73
 11742 0579 49       		.byte	73
 11743 057a 55       		.byte	85
 11744 057b 55       		.byte	85
 11745 057c 22       		.byte	34
 11746 057d 22       		.byte	34
 11747 057e 00       		.byte	0
 11748 057f 00       		.byte	0
 11749 0580 00       		.byte	0
 11750 0581 00       		.byte	0
GAS LISTING /tmp/ccIfjRGV.s 			page 258


 11751 0582 00       		.byte	0
 11752 0583 00       		.byte	0
 11753 0584 00       		.byte	0
 11754 0585 00       		.byte	0
 11755 0586 00       		.byte	0
 11756 0587 76       		.byte	118
 11757 0588 24       		.byte	36
 11758 0589 18       		.byte	24
 11759 058a 18       		.byte	24
 11760 058b 18       		.byte	24
 11761 058c 24       		.byte	36
 11762 058d 6E       		.byte	110
 11763 058e 00       		.byte	0
 11764 058f 00       		.byte	0
 11765 0590 00       		.byte	0
 11766 0591 00       		.byte	0
 11767 0592 00       		.byte	0
 11768 0593 00       		.byte	0
 11769 0594 00       		.byte	0
 11770 0595 00       		.byte	0
 11771 0596 00       		.byte	0
 11772 0597 E7       		.byte	-25
 11773 0598 42       		.byte	66
 11774 0599 24       		.byte	36
 11775 059a 24       		.byte	36
 11776 059b 14       		.byte	20
 11777 059c 18       		.byte	24
 11778 059d 08       		.byte	8
 11779 059e 08       		.byte	8
 11780 059f 07       		.byte	7
 11781 05a0 00       		.byte	0
 11782 05a1 00       		.byte	0
 11783 05a2 00       		.byte	0
 11784 05a3 00       		.byte	0
 11785 05a4 00       		.byte	0
 11786 05a5 00       		.byte	0
 11787 05a6 00       		.byte	0
 11788 05a7 7E       		.byte	126
 11789 05a8 22       		.byte	34
 11790 05a9 10       		.byte	16
 11791 05aa 08       		.byte	8
 11792 05ab 08       		.byte	8
 11793 05ac 44       		.byte	68
 11794 05ad 7E       		.byte	126
 11795 05ae 00       		.byte	0
 11796 05af 00       		.byte	0
 11797 05b0 00       		.byte	0
 11798 05b1 C0       		.byte	-64
 11799 05b2 20       		.byte	32
 11800 05b3 20       		.byte	32
 11801 05b4 20       		.byte	32
 11802 05b5 20       		.byte	32
 11803 05b6 20       		.byte	32
 11804 05b7 10       		.byte	16
 11805 05b8 20       		.byte	32
 11806 05b9 20       		.byte	32
 11807 05ba 20       		.byte	32
GAS LISTING /tmp/ccIfjRGV.s 			page 259


 11808 05bb 20       		.byte	32
 11809 05bc 20       		.byte	32
 11810 05bd 20       		.byte	32
 11811 05be C0       		.byte	-64
 11812 05bf 00       		.byte	0
 11813 05c0 10       		.byte	16
 11814 05c1 10       		.byte	16
 11815 05c2 10       		.byte	16
 11816 05c3 10       		.byte	16
 11817 05c4 10       		.byte	16
 11818 05c5 10       		.byte	16
 11819 05c6 10       		.byte	16
 11820 05c7 10       		.byte	16
 11821 05c8 10       		.byte	16
 11822 05c9 10       		.byte	16
 11823 05ca 10       		.byte	16
 11824 05cb 10       		.byte	16
 11825 05cc 10       		.byte	16
 11826 05cd 10       		.byte	16
 11827 05ce 10       		.byte	16
 11828 05cf 10       		.byte	16
 11829 05d0 00       		.byte	0
 11830 05d1 06       		.byte	6
 11831 05d2 08       		.byte	8
 11832 05d3 08       		.byte	8
 11833 05d4 08       		.byte	8
 11834 05d5 08       		.byte	8
 11835 05d6 08       		.byte	8
 11836 05d7 10       		.byte	16
 11837 05d8 08       		.byte	8
 11838 05d9 08       		.byte	8
 11839 05da 08       		.byte	8
 11840 05db 08       		.byte	8
 11841 05dc 08       		.byte	8
 11842 05dd 08       		.byte	8
 11843 05de 06       		.byte	6
 11844 05df 00       		.byte	0
 11845 05e0 00       		.byte	0
 11846 05e1 3C       		.byte	60
 11847 05e2 3C       		.byte	60
 11848 05e3 FF       		.byte	-1
 11849 05e4 81       		.byte	-127
 11850 05e5 BD       		.byte	-67
 11851 05e6 BD       		.byte	-67
 11852 05e7 81       		.byte	-127
 11853 05e8 BD       		.byte	-67
 11854 05e9 BD       		.byte	-67
 11855 05ea 81       		.byte	-127
 11856 05eb BD       		.byte	-67
 11857 05ec BD       		.byte	-67
 11858 05ed 81       		.byte	-127
 11859 05ee FF       		.byte	-1
 11860 05ef 00       		.byte	0
 11861 05f0 00       		.byte	0
 11862 05f1 3C       		.byte	60
 11863 05f2 3C       		.byte	60
 11864 05f3 FF       		.byte	-1
GAS LISTING /tmp/ccIfjRGV.s 			page 260


 11865 05f4 81       		.byte	-127
 11866 05f5 81       		.byte	-127
 11867 05f6 81       		.byte	-127
 11868 05f7 81       		.byte	-127
 11869 05f8 BD       		.byte	-67
 11870 05f9 BD       		.byte	-67
 11871 05fa 81       		.byte	-127
 11872 05fb BD       		.byte	-67
 11873 05fc BD       		.byte	-67
 11874 05fd 81       		.byte	-127
 11875 05fe FF       		.byte	-1
 11876 05ff 00       		.byte	0
 11877 0600 00       		.byte	0
 11878 0601 3C       		.byte	60
 11879 0602 3C       		.byte	60
 11880 0603 FF       		.byte	-1
 11881 0604 81       		.byte	-127
 11882 0605 81       		.byte	-127
 11883 0606 82       		.byte	-126
 11884 0607 81       		.byte	-127
 11885 0608 81       		.byte	-127
 11886 0609 81       		.byte	-127
 11887 060a 81       		.byte	-127
 11888 060b BD       		.byte	-67
 11889 060c BD       		.byte	-67
 11890 060d 81       		.byte	-127
 11891 060e FF       		.byte	-1
 11892 060f 00       		.byte	0
 11893              		.section	.rodata.lcd_delay_1ms.cst8,"aM",@progbits,8
 11894              		.align	3
 11895              	.LC0:
 11896 0000 00000000 		.word	0
 11897 0004 0040AF40 		.word	1085227008
 11898              		.section	.sbss.lcd_conf,"aw",@nobits
 11899              		.align	2
 11900              		.set	.LANCHOR3,. + 0
 11903              	lcd_conf:
 11904 0000 00000000 		.zero	4
 11905              		.section	.sbss.r,"aw",@nobits
 11906              		.align	2
 11907              		.set	.LANCHOR0,. + 0
 11910              	r:
 11911 0000 00000000 		.zero	4
 11912              		.section	.sbss.w,"aw",@nobits
 11913              		.align	2
 11914              		.set	.LANCHOR1,. + 0
 11917              	w:
 11918 0000 00000000 		.zero	4
 11919              		.text
 11920              	.Letext0:
 11921              		.file 2 "/home/lintu/Documents/school/IK1332/Ik1332-project2-group3/compiler/lib/gcc/riscv64-unkno
 11922              		.file 3 "/home/lintu/Documents/school/IK1332/Ik1332-project2-group3/compiler/riscv64-unknown-elf/i
 11923              		.file 4 "/home/lintu/Documents/school/IK1332/Ik1332-project2-group3/compiler/riscv64-unknown-elf/i
 11924              		.file 5 "/home/lintu/Documents/school/IK1332/Ik1332-project2-group3/compiler/riscv64-unknown-elf/i
 11925              		.file 6 "/home/lintu/Documents/school/IK1332/Ik1332-project2-group3/compiler/riscv64-unknown-elf/i
 11926              		.file 7 "/home/lintu/Documents/school/IK1332/Ik1332-project2-group3/compiler/riscv64-unknown-elf/i
 11927              		.file 8 "/home/lintu/Documents/school/IK1332/Ik1332-project2-group3/compiler/riscv64-unknown-elf/i
GAS LISTING /tmp/ccIfjRGV.s 			page 261


 11928              		.file 9 "../../firmware/GD32VF103_standard_peripheral/system_gd32vf103.h"
 11929              		.file 10 "../../firmware/GD32VF103_standard_peripheral/gd32vf103.h"
 11930              		.file 11 "../../firmware/GD32VF103_standard_peripheral/Include/gd32vf103_rcu.h"
 11931              		.file 12 "../../firmware/GD32VF103_standard_peripheral/Include/gd32vf103_spi.h"
 11932              		.file 13 "lcd.h"
 11933              		.file 14 "oledfont.h"
 11934              		.file 15 "../../firmware/GD32VF103_standard_peripheral/Include/gd32vf103_gpio.h"
 11935              		.file 16 "../../firmware/RISCV/drivers/n200_func.h"
GAS LISTING /tmp/ccIfjRGV.s 			page 262


DEFINED SYMBOLS
                            *ABS*:0000000000000000 lcd.c
     /tmp/ccIfjRGV.s:18     .text.lcd_delay_1ms:0000000000000000 lcd_delay_1ms
     /tmp/ccIfjRGV.s:22     .text.lcd_delay_1ms:0000000000000000 .L0 
     /tmp/ccIfjRGV.s:24     .text.lcd_delay_1ms:0000000000000000 .L0 
     /tmp/ccIfjRGV.s:25     .text.lcd_delay_1ms:0000000000000000 .L0 
     /tmp/ccIfjRGV.s:26     .text.lcd_delay_1ms:0000000000000000 .L0 
     /tmp/ccIfjRGV.s:27     .text.lcd_delay_1ms:0000000000000000 .L0 
     /tmp/ccIfjRGV.s:29     .text.lcd_delay_1ms:0000000000000002 .L0 
     /tmp/ccIfjRGV.s:41     .text.lcd_delay_1ms:0000000000000018 .L0 
     /tmp/ccIfjRGV.s:42     .text.lcd_delay_1ms:0000000000000018 .L0 
     /tmp/ccIfjRGV.s:43     .text.lcd_delay_1ms:0000000000000018 .L0 
     /tmp/ccIfjRGV.s:44     .text.lcd_delay_1ms:0000000000000018 .L0 
     /tmp/ccIfjRGV.s:45     .text.lcd_delay_1ms:0000000000000018 .L0 
     /tmp/ccIfjRGV.s:46     .text.lcd_delay_1ms:0000000000000018 .L0 
     /tmp/ccIfjRGV.s:47     .text.lcd_delay_1ms:0000000000000018 .L0 
     /tmp/ccIfjRGV.s:48     .text.lcd_delay_1ms:0000000000000018 .L0 
     /tmp/ccIfjRGV.s:49     .text.lcd_delay_1ms:0000000000000018 .L0 
     /tmp/ccIfjRGV.s:50     .text.lcd_delay_1ms:0000000000000018 .L0 
     /tmp/ccIfjRGV.s:51     .text.lcd_delay_1ms:0000000000000018 .L0 
     /tmp/ccIfjRGV.s:53     .text.lcd_delay_1ms:0000000000000018 .L0 
     /tmp/ccIfjRGV.s:55     .text.lcd_delay_1ms:000000000000001a .L0 
     /tmp/ccIfjRGV.s:62     .text.lcd_delay_1ms:0000000000000026 .L0 
     /tmp/ccIfjRGV.s:63     .text.lcd_delay_1ms:0000000000000026 .L0 
     /tmp/ccIfjRGV.s:64     .text.lcd_delay_1ms:0000000000000026 .L0 
     /tmp/ccIfjRGV.s:70     .text.lcd_delay_1ms:0000000000000032 .L0 
     /tmp/ccIfjRGV.s:75     .text.lcd_delay_1ms:000000000000003e .L0 
     /tmp/ccIfjRGV.s:81     .text.lcd_delay_1ms:000000000000004a .L0 
     /tmp/ccIfjRGV.s:82     .text.lcd_delay_1ms:000000000000004a .L0 
     /tmp/ccIfjRGV.s:83     .text.lcd_delay_1ms:000000000000004a .L0 
     /tmp/ccIfjRGV.s:88     .text.lcd_delay_1ms:0000000000000054 .L0 
     /tmp/ccIfjRGV.s:94     .text.lcd_delay_1ms:000000000000005c .L0 
     /tmp/ccIfjRGV.s:99     .text.lcd_delay_1ms:0000000000000068 .L0 
     /tmp/ccIfjRGV.s:101    .text.lcd_delay_1ms:000000000000006c .L0 
     /tmp/ccIfjRGV.s:103    .text.lcd_delay_1ms:000000000000006e .L0 
     /tmp/ccIfjRGV.s:111    .text.lcd_delay_1ms:0000000000000084 .L0 
     /tmp/ccIfjRGV.s:113    .text.lcd_delay_1ms:0000000000000086 .L0 
     /tmp/ccIfjRGV.s:115    .text.lcd_delay_1ms:0000000000000088 .L0 
     /tmp/ccIfjRGV.s:124    .text.lcd_delay_1ms:00000000000000a0 .L0 
     /tmp/ccIfjRGV.s:132    .text.lcd_delay_1ms:00000000000000b4 .L0 
     /tmp/ccIfjRGV.s:133    .text.lcd_delay_1ms:00000000000000b6 .L0 
     /tmp/ccIfjRGV.s:135    .text.lcd_delay_1ms:00000000000000b8 .L0 
     /tmp/ccIfjRGV.s:138    .text.lcd_delay_1ms:00000000000000ba .L0 
     /tmp/ccIfjRGV.s:140    .text.lcd_delay_1ms:00000000000000bc .L0 
     /tmp/ccIfjRGV.s:142    .text.lcd_delay_1ms:00000000000000be .L0 
     /tmp/ccIfjRGV.s:144    .text.lcd_delay_1ms:00000000000000c0 .L0 
     /tmp/ccIfjRGV.s:146    .text.lcd_delay_1ms:00000000000000c2 .L0 
     /tmp/ccIfjRGV.s:148    .text.lcd_delay_1ms:00000000000000c4 .L0 
     /tmp/ccIfjRGV.s:150    .text.lcd_delay_1ms:00000000000000c6 .L0 
     /tmp/ccIfjRGV.s:153    .text.lcd_delay_1ms:00000000000000c8 .L0 
     /tmp/ccIfjRGV.s:155    .text.lcd_delay_1ms:00000000000000ca .L0 
     /tmp/ccIfjRGV.s:158    .text.lcd_delay_1ms:00000000000000cc .L0 
     /tmp/ccIfjRGV.s:160    .text.lcd_delay_1ms:00000000000000ce .L0 
     /tmp/ccIfjRGV.s:167    .text.LCD_WR_Queue:0000000000000000 LCD_WR_Queue
     /tmp/ccIfjRGV.s:170    .text.LCD_WR_Queue:0000000000000000 .L0 
     /tmp/ccIfjRGV.s:171    .text.LCD_WR_Queue:0000000000000000 .L0 
     /tmp/ccIfjRGV.s:172    .text.LCD_WR_Queue:0000000000000000 .L0 
GAS LISTING /tmp/ccIfjRGV.s 			page 263


     /tmp/ccIfjRGV.s:173    .text.LCD_WR_Queue:0000000000000000 .L0 
     /tmp/ccIfjRGV.s:175    .text.LCD_WR_Queue:0000000000000002 .L0 
     /tmp/ccIfjRGV.s:177    .text.LCD_WR_Queue:0000000000000004 .L0 
     /tmp/ccIfjRGV.s:179    .text.LCD_WR_Queue:0000000000000004 .L0 
     /tmp/ccIfjRGV.s:182    .text.LCD_WR_Queue:000000000000000c .L0 
     /tmp/ccIfjRGV.s:186    .text.LCD_WR_Queue:0000000000000016 .L0 
     /tmp/ccIfjRGV.s:188    .text.LCD_WR_Queue:000000000000001a .L0 
     /tmp/ccIfjRGV.s:189    .text.LCD_WR_Queue:000000000000001a .L0 
     /tmp/ccIfjRGV.s:191    .text.LCD_WR_Queue:000000000000001a .L0 
     /tmp/ccIfjRGV.s:193    .text.LCD_WR_Queue:000000000000001e .L0 
     /tmp/ccIfjRGV.s:194    .text.LCD_WR_Queue:000000000000001e .L0 
     /tmp/ccIfjRGV.s:200    .text.LCD_WR_Queue:0000000000000030 .L0 
     /tmp/ccIfjRGV.s:202    .text.LCD_WR_Queue:0000000000000032 .L0 
     /tmp/ccIfjRGV.s:203    .text.LCD_WR_Queue:0000000000000034 .L0 
     /tmp/ccIfjRGV.s:204    .text.LCD_WR_Queue:0000000000000034 .L0 
     /tmp/ccIfjRGV.s:206    .text.LCD_WR_Queue:0000000000000036 .L0 
     /tmp/ccIfjRGV.s:208    .text.LCD_WR_Queue:0000000000000038 .L0 
     /tmp/ccIfjRGV.s:211    .text.LCD_WR_Queue:000000000000003a .L0 
     /tmp/ccIfjRGV.s:215    .text.LCD_WR_Queue:000000000000003c .L0 
     /tmp/ccIfjRGV.s:219    .text.LCD_WR_Queue:000000000000003c .L0 
     /tmp/ccIfjRGV.s:224    .text.LCD_WR_Queue:000000000000004a .L0 
     /tmp/ccIfjRGV.s:225    .text.LCD_WR_Queue:000000000000004a .L0 
     /tmp/ccIfjRGV.s:231    .text.LCD_WR_Queue:0000000000000058 .L0 
     /tmp/ccIfjRGV.s:234    .text.LCD_WR_Queue:000000000000005e .L0 
     /tmp/ccIfjRGV.s:237    .text.LCD_WR_Queue:0000000000000064 .L0 
     /tmp/ccIfjRGV.s:239    .text.LCD_WR_Queue:0000000000000068 .L0 
     /tmp/ccIfjRGV.s:243    .text.LCD_WR_Queue:0000000000000070 .L0 
     /tmp/ccIfjRGV.s:244    .text.LCD_WR_Queue:0000000000000070 .L0 
     /tmp/ccIfjRGV.s:246    .text.LCD_WR_Queue:0000000000000072 .L0 
     /tmp/ccIfjRGV.s:249    .text.LCD_WR_Queue:000000000000007a .L0 
     /tmp/ccIfjRGV.s:252    .text.LCD_WR_Queue:0000000000000080 .L0 
     /tmp/ccIfjRGV.s:254    .text.LCD_WR_Queue:0000000000000084 .L0 
     /tmp/ccIfjRGV.s:257    .text.LCD_WR_Queue:0000000000000088 .L0 
     /tmp/ccIfjRGV.s:260    .text.LCD_WR_Queue:0000000000000090 .L0 
     /tmp/ccIfjRGV.s:261    .text.LCD_WR_Queue:0000000000000090 .L0 
     /tmp/ccIfjRGV.s:265    .text.LCD_WR_Queue:0000000000000092 .L0 
     /tmp/ccIfjRGV.s:266    .text.LCD_WR_Queue:0000000000000094 .L0 
     /tmp/ccIfjRGV.s:267    .text.LCD_WR_Queue:0000000000000094 .L0 
     /tmp/ccIfjRGV.s:269    .text.LCD_WR_Queue:0000000000000096 .L0 
     /tmp/ccIfjRGV.s:273    .text.LCD_WR_Queue:0000000000000096 .L0 
     /tmp/ccIfjRGV.s:282    .text.LCD_WR_Queue:00000000000000a6 .L0 
     /tmp/ccIfjRGV.s:283    .text.LCD_WR_Queue:00000000000000a8 .L0 
     /tmp/ccIfjRGV.s:286    .text.LCD_WR_Queue:00000000000000aa .L0 
     /tmp/ccIfjRGV.s:290    .text.LCD_WR_Queue:00000000000000ac .L0 
     /tmp/ccIfjRGV.s:292    .text.LCD_WR_Queue:00000000000000ac .L0 
     /tmp/ccIfjRGV.s:293    .text.LCD_WR_Queue:00000000000000ac .L0 
     /tmp/ccIfjRGV.s:294    .text.LCD_WR_Queue:00000000000000ae .L0 
     /tmp/ccIfjRGV.s:295    .text.LCD_WR_Queue:00000000000000ae .L0 
     /tmp/ccIfjRGV.s:297    .text.LCD_WR_Queue:00000000000000b0 .L0 
     /tmp/ccIfjRGV.s:299    .text.LCD_WR_Queue:00000000000000b2 .L0 
     /tmp/ccIfjRGV.s:301    .text.LCD_WR_Queue:00000000000000b2 .L0 
     /tmp/ccIfjRGV.s:303    .text.LCD_WR_Queue:00000000000000b4 .L0 
     /tmp/ccIfjRGV.s:304    .text.LCD_WR_Queue:00000000000000b4 .L0 
     /tmp/ccIfjRGV.s:306    .text.LCD_WR_Queue:00000000000000b8 .L0 
     /tmp/ccIfjRGV.s:308    .text.LCD_WR_Queue:00000000000000ba .L0 
     /tmp/ccIfjRGV.s:310    .text.LCD_WR_Queue:00000000000000ba .L0 
     /tmp/ccIfjRGV.s:314    .text.LCD_WR_Queue:00000000000000c2 .L0 
GAS LISTING /tmp/ccIfjRGV.s 			page 264


     /tmp/ccIfjRGV.s:318    .text.LCD_WR_Queue:00000000000000c2 .L0 
     /tmp/ccIfjRGV.s:323    .text.LCD_WR_Queue:00000000000000cc .L0 
     /tmp/ccIfjRGV.s:330    .text.LCD_Wait_On_Queue:0000000000000000 LCD_Wait_On_Queue
     /tmp/ccIfjRGV.s:333    .text.LCD_Wait_On_Queue:0000000000000000 .L0 
     /tmp/ccIfjRGV.s:334    .text.LCD_Wait_On_Queue:0000000000000000 .L0 
     /tmp/ccIfjRGV.s:335    .text.LCD_Wait_On_Queue:0000000000000000 .L0 
     /tmp/ccIfjRGV.s:336    .text.LCD_Wait_On_Queue:0000000000000000 .L0 
     /tmp/ccIfjRGV.s:338    .text.LCD_Wait_On_Queue:0000000000000002 .L0 
     /tmp/ccIfjRGV.s:341    .text.LCD_Wait_On_Queue:0000000000000006 .L0 
     /tmp/ccIfjRGV.s:342    .text.LCD_Wait_On_Queue:0000000000000006 .L0 
     /tmp/ccIfjRGV.s:344    .text.LCD_Wait_On_Queue:0000000000000006 .L0 
     /tmp/ccIfjRGV.s:349    .text.LCD_Wait_On_Queue:0000000000000016 .L0 
     /tmp/ccIfjRGV.s:352    .text.LCD_Wait_On_Queue:000000000000001a .L0 
     /tmp/ccIfjRGV.s:353    .text.LCD_Wait_On_Queue:000000000000001c .L0 
     /tmp/ccIfjRGV.s:355    .text.LCD_Wait_On_Queue:000000000000001c .L0 
     /tmp/ccIfjRGV.s:358    .text.LCD_Wait_On_Queue:0000000000000020 .L0 
     /tmp/ccIfjRGV.s:361    .text.LCD_Wait_On_Queue:0000000000000028 .L0 
     /tmp/ccIfjRGV.s:366    .text.LCD_Wait_On_Queue:0000000000000030 .L0 
     /tmp/ccIfjRGV.s:367    .text.LCD_Wait_On_Queue:0000000000000032 .L0 
     /tmp/ccIfjRGV.s:369    .text.LCD_Wait_On_Queue:0000000000000034 .L0 
     /tmp/ccIfjRGV.s:371    .text.LCD_Wait_On_Queue:0000000000000036 .L0 
     /tmp/ccIfjRGV.s:374    .text.LCD_Wait_On_Queue:0000000000000038 .L0 
     /tmp/ccIfjRGV.s:376    .text.LCD_Wait_On_Queue:000000000000003a .L0 
     /tmp/ccIfjRGV.s:383    .text.LCD_Write_Bus:0000000000000000 LCD_Write_Bus
     /tmp/ccIfjRGV.s:386    .text.LCD_Write_Bus:0000000000000000 .L0 
     /tmp/ccIfjRGV.s:388    .text.LCD_Write_Bus:0000000000000000 .L0 
     /tmp/ccIfjRGV.s:389    .text.LCD_Write_Bus:0000000000000000 .L0 
     /tmp/ccIfjRGV.s:390    .text.LCD_Write_Bus:0000000000000000 .L0 
     /tmp/ccIfjRGV.s:392    .text.LCD_Write_Bus:0000000000000002 .L0 
     /tmp/ccIfjRGV.s:394    .text.LCD_Write_Bus:0000000000000004 .L0 
     /tmp/ccIfjRGV.s:396    .text.LCD_Write_Bus:0000000000000004 .L0 
     /tmp/ccIfjRGV.s:400    .text.LCD_Write_Bus:000000000000000e .L0 
     /tmp/ccIfjRGV.s:401    .text.LCD_Write_Bus:0000000000000010 .L0 
     /tmp/ccIfjRGV.s:403    .text.LCD_Write_Bus:0000000000000010 .L0 
     /tmp/ccIfjRGV.s:405    .text.LCD_Write_Bus:0000000000000014 .L0 
     /tmp/ccIfjRGV.s:407    .text.LCD_Write_Bus:0000000000000018 .L0 
     /tmp/ccIfjRGV.s:410    .text.LCD_Write_Bus:0000000000000020 .L0 
     /tmp/ccIfjRGV.s:412    .text.LCD_Write_Bus:0000000000000024 .L0 
     /tmp/ccIfjRGV.s:414    .text.LCD_Write_Bus:0000000000000028 .L0 
     /tmp/ccIfjRGV.s:416    .text.LCD_Write_Bus:000000000000002a .L0 
     /tmp/ccIfjRGV.s:418    .text.LCD_Write_Bus:000000000000002e .L0 
     /tmp/ccIfjRGV.s:420    .text.LCD_Write_Bus:0000000000000032 .L0 
     /tmp/ccIfjRGV.s:421    .text.LCD_Write_Bus:0000000000000032 .L0 
     /tmp/ccIfjRGV.s:423    .text.LCD_Write_Bus:0000000000000032 .L0 
     /tmp/ccIfjRGV.s:425    .text.LCD_Write_Bus:0000000000000034 .L0 
     /tmp/ccIfjRGV.s:427    .text.LCD_Write_Bus:0000000000000036 .L0 
     /tmp/ccIfjRGV.s:431    .text.LCD_Write_Bus:000000000000003a .L0 
     /tmp/ccIfjRGV.s:434    .text.LCD_Write_Bus:0000000000000042 .L0 
     /tmp/ccIfjRGV.s:436    .text.LCD_Write_Bus:0000000000000044 .L0 
     /tmp/ccIfjRGV.s:438    .text.LCD_Write_Bus:0000000000000046 .L0 
     /tmp/ccIfjRGV.s:440    .text.LCD_Write_Bus:000000000000004a .L0 
     /tmp/ccIfjRGV.s:446    .text.LCD_Write_Bus:0000000000000058 .L0 
     /tmp/ccIfjRGV.s:449    .text.LCD_Write_Bus:000000000000005c .L0 
     /tmp/ccIfjRGV.s:450    .text.LCD_Write_Bus:000000000000005c .L0 
     /tmp/ccIfjRGV.s:452    .text.LCD_Write_Bus:0000000000000060 .L0 
     /tmp/ccIfjRGV.s:454    .text.LCD_Write_Bus:0000000000000062 .L0 
     /tmp/ccIfjRGV.s:455    .text.LCD_Write_Bus:0000000000000064 .L0 
GAS LISTING /tmp/ccIfjRGV.s 			page 265


     /tmp/ccIfjRGV.s:457    .text.LCD_Write_Bus:0000000000000066 .L0 
     /tmp/ccIfjRGV.s:459    .text.LCD_Write_Bus:0000000000000066 .L0 
     /tmp/ccIfjRGV.s:464    .text.LCD_Write_Bus:0000000000000072 .L0 
     /tmp/ccIfjRGV.s:465    .text.LCD_Write_Bus:0000000000000072 .L0 
     /tmp/ccIfjRGV.s:466    .text.LCD_Write_Bus:0000000000000074 .L0 
     /tmp/ccIfjRGV.s:468    .text.LCD_Write_Bus:0000000000000076 .L0 
     /tmp/ccIfjRGV.s:472    .text.LCD_Write_Bus:0000000000000078 .L0 
     /tmp/ccIfjRGV.s:474    .text.LCD_Write_Bus:000000000000007a .L0 
     /tmp/ccIfjRGV.s:481    .text.LCD_Writ_Bus:0000000000000000 LCD_Writ_Bus
     /tmp/ccIfjRGV.s:484    .text.LCD_Writ_Bus:0000000000000000 .L0 
     /tmp/ccIfjRGV.s:486    .text.LCD_Writ_Bus:0000000000000000 .L0 
     /tmp/ccIfjRGV.s:487    .text.LCD_Writ_Bus:0000000000000000 .L0 
     /tmp/ccIfjRGV.s:488    .text.LCD_Writ_Bus:0000000000000000 .L0 
     /tmp/ccIfjRGV.s:490    .text.LCD_Writ_Bus:0000000000000002 .L0 
     /tmp/ccIfjRGV.s:494    .text.LCD_Writ_Bus:0000000000000006 .L0 
     /tmp/ccIfjRGV.s:495    .text.LCD_Writ_Bus:0000000000000008 .L0 
     /tmp/ccIfjRGV.s:496    .text.LCD_Writ_Bus:0000000000000008 .L0 
     /tmp/ccIfjRGV.s:498    .text.LCD_Writ_Bus:0000000000000008 .L0 
     /tmp/ccIfjRGV.s:500    .text.LCD_Writ_Bus:000000000000000a .L0 
     /tmp/ccIfjRGV.s:502    .text.LCD_Writ_Bus:000000000000000e .L0 
     /tmp/ccIfjRGV.s:505    .text.LCD_Writ_Bus:0000000000000012 .L0 
     /tmp/ccIfjRGV.s:507    .text.LCD_Writ_Bus:0000000000000016 .L0 
     /tmp/ccIfjRGV.s:508    .text.LCD_Writ_Bus:0000000000000016 .L0 
     /tmp/ccIfjRGV.s:510    .text.LCD_Writ_Bus:0000000000000016 .L0 
     /tmp/ccIfjRGV.s:512    .text.LCD_Writ_Bus:000000000000001a .L0 
     /tmp/ccIfjRGV.s:516    .text.LCD_Writ_Bus:0000000000000022 .L0 
     /tmp/ccIfjRGV.s:517    .text.LCD_Writ_Bus:0000000000000022 .L0 
     /tmp/ccIfjRGV.s:518    .text.LCD_Writ_Bus:0000000000000022 .L0 
     /tmp/ccIfjRGV.s:523    .text.LCD_Writ_Bus:000000000000002e .L0 
     /tmp/ccIfjRGV.s:525    .text.LCD_Writ_Bus:0000000000000030 .L0 
     /tmp/ccIfjRGV.s:528    .text.LCD_Writ_Bus:0000000000000036 .L0 
     /tmp/ccIfjRGV.s:530    .text.LCD_Writ_Bus:000000000000003a .L0 
     /tmp/ccIfjRGV.s:533    .text.LCD_Writ_Bus:0000000000000042 .L0 
     /tmp/ccIfjRGV.s:534    .text.LCD_Writ_Bus:0000000000000042 .L0 
     /tmp/ccIfjRGV.s:537    .text.LCD_Writ_Bus:0000000000000046 .L0 
     /tmp/ccIfjRGV.s:538    .text.LCD_Writ_Bus:0000000000000046 .L0 
     /tmp/ccIfjRGV.s:543    .text.LCD_Writ_Bus:0000000000000052 .L0 
     /tmp/ccIfjRGV.s:545    .text.LCD_Writ_Bus:0000000000000054 .L0 
     /tmp/ccIfjRGV.s:549    .text.LCD_Writ_Bus:0000000000000060 .L0 
     /tmp/ccIfjRGV.s:550    .text.LCD_Writ_Bus:0000000000000060 .L0 
     /tmp/ccIfjRGV.s:551    .text.LCD_Writ_Bus:0000000000000062 .L0 
     /tmp/ccIfjRGV.s:553    .text.LCD_Writ_Bus:0000000000000064 .L0 
     /tmp/ccIfjRGV.s:555    .text.LCD_Writ_Bus:0000000000000066 .L0 
     /tmp/ccIfjRGV.s:557    .text.LCD_Writ_Bus:0000000000000068 .L0 
     /tmp/ccIfjRGV.s:559    .text.LCD_Writ_Bus:0000000000000068 .L0 
     /tmp/ccIfjRGV.s:561    .text.LCD_Writ_Bus:000000000000006a .L0 
     /tmp/ccIfjRGV.s:562    .text.LCD_Writ_Bus:000000000000006a .L0 
     /tmp/ccIfjRGV.s:564    .text.LCD_Writ_Bus:000000000000006e .L0 
     /tmp/ccIfjRGV.s:566    .text.LCD_Writ_Bus:0000000000000070 .L0 
     /tmp/ccIfjRGV.s:568    .text.LCD_Writ_Bus:0000000000000070 .L0 
     /tmp/ccIfjRGV.s:570    .text.LCD_Writ_Bus:0000000000000078 .L0 
     /tmp/ccIfjRGV.s:577    .text.LCD_WR_DATA8:0000000000000000 LCD_WR_DATA8
     /tmp/ccIfjRGV.s:580    .text.LCD_WR_DATA8:0000000000000000 .L0 
     /tmp/ccIfjRGV.s:582    .text.LCD_WR_DATA8:0000000000000000 .L0 
     /tmp/ccIfjRGV.s:583    .text.LCD_WR_DATA8:0000000000000000 .L0 
     /tmp/ccIfjRGV.s:584    .text.LCD_WR_DATA8:0000000000000000 .L0 
     /tmp/ccIfjRGV.s:586    .text.LCD_WR_DATA8:0000000000000002 .L0 
GAS LISTING /tmp/ccIfjRGV.s 			page 266


     /tmp/ccIfjRGV.s:588    .text.LCD_WR_DATA8:0000000000000004 .L0 
     /tmp/ccIfjRGV.s:592    .text.LCD_WR_DATA8:0000000000000004 .L0 
     /tmp/ccIfjRGV.s:598    .text.LCD_WR_DATA8:000000000000000e .L0 
     /tmp/ccIfjRGV.s:599    .text.LCD_WR_DATA8:0000000000000010 .L0 
     /tmp/ccIfjRGV.s:603    .text.LCD_WR_DATA8:0000000000000010 .L0 
     /tmp/ccIfjRGV.s:605    .text.LCD_WR_DATA8:0000000000000014 .L0 
     /tmp/ccIfjRGV.s:607    .text.LCD_WR_DATA8:0000000000000018 .L0 
     /tmp/ccIfjRGV.s:610    .text.LCD_WR_DATA8:0000000000000020 .L0 
     /tmp/ccIfjRGV.s:612    .text.LCD_WR_DATA8:0000000000000024 .L0 
     /tmp/ccIfjRGV.s:614    .text.LCD_WR_DATA8:0000000000000028 .L0 
     /tmp/ccIfjRGV.s:616    .text.LCD_WR_DATA8:000000000000002a .L0 
     /tmp/ccIfjRGV.s:620    .text.LCD_WR_DATA8:000000000000002e .L0 
     /tmp/ccIfjRGV.s:622    .text.LCD_WR_DATA8:0000000000000032 .L0 
     /tmp/ccIfjRGV.s:623    .text.LCD_WR_DATA8:0000000000000032 .L0 
     /tmp/ccIfjRGV.s:627    .text.LCD_WR_DATA8:0000000000000032 .L0 
     /tmp/ccIfjRGV.s:631    .text.LCD_WR_DATA8:0000000000000034 .L0 
     /tmp/ccIfjRGV.s:636    .text.LCD_WR_DATA8:0000000000000038 .L0 
     /tmp/ccIfjRGV.s:637    .text.LCD_WR_DATA8:0000000000000038 .L0 
     /tmp/ccIfjRGV.s:641    .text.LCD_WR_DATA8:000000000000003c .L0 
     /tmp/ccIfjRGV.s:644    .text.LCD_WR_DATA8:0000000000000044 .L0 
     /tmp/ccIfjRGV.s:646    .text.LCD_WR_DATA8:0000000000000046 .L0 
     /tmp/ccIfjRGV.s:648    .text.LCD_WR_DATA8:0000000000000048 .L0 
     /tmp/ccIfjRGV.s:650    .text.LCD_WR_DATA8:000000000000004c .L0 
     /tmp/ccIfjRGV.s:656    .text.LCD_WR_DATA8:000000000000005a .L0 
     /tmp/ccIfjRGV.s:659    .text.LCD_WR_DATA8:000000000000005e .L0 
     /tmp/ccIfjRGV.s:660    .text.LCD_WR_DATA8:000000000000005e .L0 
     /tmp/ccIfjRGV.s:662    .text.LCD_WR_DATA8:0000000000000062 .L0 
     /tmp/ccIfjRGV.s:666    .text.LCD_WR_DATA8:0000000000000064 .L0 
     /tmp/ccIfjRGV.s:667    .text.LCD_WR_DATA8:0000000000000066 .L0 
     /tmp/ccIfjRGV.s:669    .text.LCD_WR_DATA8:0000000000000068 .L0 
     /tmp/ccIfjRGV.s:673    .text.LCD_WR_DATA8:0000000000000068 .L0 
     /tmp/ccIfjRGV.s:681    .text.LCD_WR_DATA8:0000000000000074 .L0 
     /tmp/ccIfjRGV.s:682    .text.LCD_WR_DATA8:0000000000000074 .L0 
     /tmp/ccIfjRGV.s:683    .text.LCD_WR_DATA8:0000000000000076 .L0 
     /tmp/ccIfjRGV.s:685    .text.LCD_WR_DATA8:0000000000000078 .L0 
     /tmp/ccIfjRGV.s:688    .text.LCD_WR_DATA8:000000000000007a .L0 
     /tmp/ccIfjRGV.s:690    .text.LCD_WR_DATA8:000000000000007c .L0 
     /tmp/ccIfjRGV.s:697    .text.LCD_WR_DATA:0000000000000000 LCD_WR_DATA
     /tmp/ccIfjRGV.s:700    .text.LCD_WR_DATA:0000000000000000 .L0 
     /tmp/ccIfjRGV.s:702    .text.LCD_WR_DATA:0000000000000000 .L0 
     /tmp/ccIfjRGV.s:703    .text.LCD_WR_DATA:0000000000000000 .L0 
     /tmp/ccIfjRGV.s:704    .text.LCD_WR_DATA:0000000000000000 .L0 
     /tmp/ccIfjRGV.s:706    .text.LCD_WR_DATA:0000000000000002 .L0 
     /tmp/ccIfjRGV.s:708    .text.LCD_WR_DATA:0000000000000004 .L0 
     /tmp/ccIfjRGV.s:712    .text.LCD_WR_DATA:0000000000000004 .L0 
     /tmp/ccIfjRGV.s:718    .text.LCD_WR_DATA:000000000000000e .L0 
     /tmp/ccIfjRGV.s:719    .text.LCD_WR_DATA:0000000000000010 .L0 
     /tmp/ccIfjRGV.s:723    .text.LCD_WR_DATA:0000000000000010 .L0 
     /tmp/ccIfjRGV.s:725    .text.LCD_WR_DATA:0000000000000014 .L0 
     /tmp/ccIfjRGV.s:727    .text.LCD_WR_DATA:0000000000000018 .L0 
     /tmp/ccIfjRGV.s:730    .text.LCD_WR_DATA:000000000000001e .L0 
     /tmp/ccIfjRGV.s:732    .text.LCD_WR_DATA:0000000000000022 .L0 
     /tmp/ccIfjRGV.s:734    .text.LCD_WR_DATA:0000000000000024 .L0 
     /tmp/ccIfjRGV.s:736    .text.LCD_WR_DATA:0000000000000026 .L0 
     /tmp/ccIfjRGV.s:740    .text.LCD_WR_DATA:000000000000002a .L0 
     /tmp/ccIfjRGV.s:743    .text.LCD_WR_DATA:0000000000000030 .L0 
     /tmp/ccIfjRGV.s:744    .text.LCD_WR_DATA:0000000000000030 .L0 
GAS LISTING /tmp/ccIfjRGV.s 			page 267


     /tmp/ccIfjRGV.s:745    .text.LCD_WR_DATA:0000000000000030 .L0 
     /tmp/ccIfjRGV.s:747    .text.LCD_WR_DATA:0000000000000030 .L0 
     /tmp/ccIfjRGV.s:749    .text.LCD_WR_DATA:0000000000000034 .L0 
     /tmp/ccIfjRGV.s:750    .text.LCD_WR_DATA:0000000000000036 .L0 
     /tmp/ccIfjRGV.s:754    .text.LCD_WR_DATA:0000000000000036 .L0 
     /tmp/ccIfjRGV.s:758    .text.LCD_WR_DATA:000000000000003a .L0 
     /tmp/ccIfjRGV.s:760    .text.LCD_WR_DATA:000000000000003c .L0 
     /tmp/ccIfjRGV.s:765    .text.LCD_WR_DATA:0000000000000040 .L0 
     /tmp/ccIfjRGV.s:766    .text.LCD_WR_DATA:0000000000000040 .L0 
     /tmp/ccIfjRGV.s:770    .text.LCD_WR_DATA:0000000000000044 .L0 
     /tmp/ccIfjRGV.s:773    .text.LCD_WR_DATA:000000000000004c .L0 
     /tmp/ccIfjRGV.s:775    .text.LCD_WR_DATA:000000000000004e .L0 
     /tmp/ccIfjRGV.s:777    .text.LCD_WR_DATA:0000000000000050 .L0 
     /tmp/ccIfjRGV.s:779    .text.LCD_WR_DATA:0000000000000054 .L0 
     /tmp/ccIfjRGV.s:785    .text.LCD_WR_DATA:0000000000000066 .L0 
     /tmp/ccIfjRGV.s:792    .text.LCD_WR_DATA:000000000000006a .L0 
     /tmp/ccIfjRGV.s:793    .text.LCD_WR_DATA:000000000000006a .L0 
     /tmp/ccIfjRGV.s:795    .text.LCD_WR_DATA:000000000000006e .L0 
     /tmp/ccIfjRGV.s:802    .text.LCD_WR_DATA:0000000000000076 .L0 
     /tmp/ccIfjRGV.s:810    .text.LCD_WR_DATA:0000000000000080 .L0 
     /tmp/ccIfjRGV.s:816    .text.LCD_WR_DATA:0000000000000084 .L0 
     /tmp/ccIfjRGV.s:822    .text.LCD_WR_DATA:0000000000000086 .L0 
     /tmp/ccIfjRGV.s:826    .text.LCD_WR_DATA:000000000000008a .L0 
     /tmp/ccIfjRGV.s:831    .text.LCD_WR_DATA:000000000000008e .L0 
     /tmp/ccIfjRGV.s:833    .text.LCD_WR_DATA:0000000000000092 .L0 
     /tmp/ccIfjRGV.s:834    .text.LCD_WR_DATA:0000000000000092 .L0 
     /tmp/ccIfjRGV.s:841    .text.LCD_WR_DATA:0000000000000094 .L0 
     /tmp/ccIfjRGV.s:842    .text.LCD_WR_DATA:0000000000000094 .L0 
     /tmp/ccIfjRGV.s:846    .text.LCD_WR_DATA:0000000000000096 .L0 
     /tmp/ccIfjRGV.s:851    .text.LCD_WR_DATA:000000000000009a .L0 
     /tmp/ccIfjRGV.s:854    .text.LCD_WR_DATA:000000000000009e .L0 
     /tmp/ccIfjRGV.s:857    .text.LCD_WR_DATA:00000000000000a6 .L0 
     /tmp/ccIfjRGV.s:859    .text.LCD_WR_DATA:00000000000000a8 .L0 
     /tmp/ccIfjRGV.s:861    .text.LCD_WR_DATA:00000000000000aa .L0 
     /tmp/ccIfjRGV.s:863    .text.LCD_WR_DATA:00000000000000ae .L0 
     /tmp/ccIfjRGV.s:869    .text.LCD_WR_DATA:00000000000000bc .L0 
     /tmp/ccIfjRGV.s:872    .text.LCD_WR_DATA:00000000000000c0 .L0 
     /tmp/ccIfjRGV.s:873    .text.LCD_WR_DATA:00000000000000c0 .L0 
     /tmp/ccIfjRGV.s:877    .text.LCD_WR_DATA:00000000000000c2 .L0 
     /tmp/ccIfjRGV.s:878    .text.LCD_WR_DATA:00000000000000c4 .L0 
     /tmp/ccIfjRGV.s:880    .text.LCD_WR_DATA:00000000000000c6 .L0 
     /tmp/ccIfjRGV.s:884    .text.LCD_WR_DATA:00000000000000c6 .L0 
     /tmp/ccIfjRGV.s:891    .text.LCD_WR_DATA:00000000000000ce .L0 
     /tmp/ccIfjRGV.s:892    .text.LCD_WR_DATA:00000000000000ce .L0 
     /tmp/ccIfjRGV.s:893    .text.LCD_WR_DATA:00000000000000d0 .L0 
     /tmp/ccIfjRGV.s:895    .text.LCD_WR_DATA:00000000000000d2 .L0 
     /tmp/ccIfjRGV.s:897    .text.LCD_WR_DATA:00000000000000d4 .L0 
     /tmp/ccIfjRGV.s:899    .text.LCD_WR_DATA:00000000000000d6 .L0 
     /tmp/ccIfjRGV.s:902    .text.LCD_WR_DATA:00000000000000d8 .L0 
     /tmp/ccIfjRGV.s:904    .text.LCD_WR_DATA:00000000000000da .L0 
     /tmp/ccIfjRGV.s:911    .text.LCD_WR_REG:0000000000000000 LCD_WR_REG
     /tmp/ccIfjRGV.s:914    .text.LCD_WR_REG:0000000000000000 .L0 
     /tmp/ccIfjRGV.s:916    .text.LCD_WR_REG:0000000000000000 .L0 
     /tmp/ccIfjRGV.s:917    .text.LCD_WR_REG:0000000000000000 .L0 
     /tmp/ccIfjRGV.s:918    .text.LCD_WR_REG:0000000000000000 .L0 
     /tmp/ccIfjRGV.s:920    .text.LCD_WR_REG:0000000000000002 .L0 
     /tmp/ccIfjRGV.s:922    .text.LCD_WR_REG:0000000000000004 .L0 
GAS LISTING /tmp/ccIfjRGV.s 			page 268


     /tmp/ccIfjRGV.s:926    .text.LCD_WR_REG:0000000000000004 .L0 
     /tmp/ccIfjRGV.s:932    .text.LCD_WR_REG:000000000000000e .L0 
     /tmp/ccIfjRGV.s:933    .text.LCD_WR_REG:0000000000000010 .L0 
     /tmp/ccIfjRGV.s:937    .text.LCD_WR_REG:0000000000000010 .L0 
     /tmp/ccIfjRGV.s:939    .text.LCD_WR_REG:0000000000000014 .L0 
     /tmp/ccIfjRGV.s:941    .text.LCD_WR_REG:0000000000000018 .L0 
     /tmp/ccIfjRGV.s:944    .text.LCD_WR_REG:0000000000000020 .L0 
     /tmp/ccIfjRGV.s:946    .text.LCD_WR_REG:0000000000000024 .L0 
     /tmp/ccIfjRGV.s:948    .text.LCD_WR_REG:0000000000000028 .L0 
     /tmp/ccIfjRGV.s:950    .text.LCD_WR_REG:000000000000002a .L0 
     /tmp/ccIfjRGV.s:954    .text.LCD_WR_REG:000000000000002e .L0 
     /tmp/ccIfjRGV.s:956    .text.LCD_WR_REG:0000000000000032 .L0 
     /tmp/ccIfjRGV.s:957    .text.LCD_WR_REG:0000000000000032 .L0 
     /tmp/ccIfjRGV.s:961    .text.LCD_WR_REG:0000000000000032 .L0 
     /tmp/ccIfjRGV.s:965    .text.LCD_WR_REG:0000000000000034 .L0 
     /tmp/ccIfjRGV.s:970    .text.LCD_WR_REG:0000000000000036 .L0 
     /tmp/ccIfjRGV.s:971    .text.LCD_WR_REG:0000000000000036 .L0 
     /tmp/ccIfjRGV.s:975    .text.LCD_WR_REG:000000000000003a .L0 
     /tmp/ccIfjRGV.s:978    .text.LCD_WR_REG:0000000000000042 .L0 
     /tmp/ccIfjRGV.s:980    .text.LCD_WR_REG:0000000000000044 .L0 
     /tmp/ccIfjRGV.s:982    .text.LCD_WR_REG:0000000000000046 .L0 
     /tmp/ccIfjRGV.s:984    .text.LCD_WR_REG:000000000000004a .L0 
     /tmp/ccIfjRGV.s:990    .text.LCD_WR_REG:0000000000000058 .L0 
     /tmp/ccIfjRGV.s:993    .text.LCD_WR_REG:000000000000005c .L0 
     /tmp/ccIfjRGV.s:994    .text.LCD_WR_REG:000000000000005c .L0 
     /tmp/ccIfjRGV.s:996    .text.LCD_WR_REG:0000000000000060 .L0 
     /tmp/ccIfjRGV.s:1000   .text.LCD_WR_REG:0000000000000062 .L0 
     /tmp/ccIfjRGV.s:1001   .text.LCD_WR_REG:0000000000000064 .L0 
     /tmp/ccIfjRGV.s:1003   .text.LCD_WR_REG:0000000000000066 .L0 
     /tmp/ccIfjRGV.s:1007   .text.LCD_WR_REG:0000000000000066 .L0 
     /tmp/ccIfjRGV.s:1015   .text.LCD_WR_REG:0000000000000072 .L0 
     /tmp/ccIfjRGV.s:1016   .text.LCD_WR_REG:0000000000000072 .L0 
     /tmp/ccIfjRGV.s:1017   .text.LCD_WR_REG:0000000000000074 .L0 
     /tmp/ccIfjRGV.s:1019   .text.LCD_WR_REG:0000000000000076 .L0 
     /tmp/ccIfjRGV.s:1022   .text.LCD_WR_REG:0000000000000078 .L0 
     /tmp/ccIfjRGV.s:1024   .text.LCD_WR_REG:000000000000007a .L0 
     /tmp/ccIfjRGV.s:1031   .text.LCD_Address_Set:0000000000000000 LCD_Address_Set
     /tmp/ccIfjRGV.s:1034   .text.LCD_Address_Set:0000000000000000 .L0 
     /tmp/ccIfjRGV.s:1036   .text.LCD_Address_Set:0000000000000000 .L0 
     /tmp/ccIfjRGV.s:1038   .text.LCD_Address_Set:0000000000000002 .L0 
     /tmp/ccIfjRGV.s:1040   .text.LCD_Address_Set:0000000000000004 .L0 
     /tmp/ccIfjRGV.s:1045   .text.LCD_Address_Set:0000000000000004 .L0 
     /tmp/ccIfjRGV.s:1052   .text.LCD_Address_Set:0000000000000010 .L0 
     /tmp/ccIfjRGV.s:1053   .text.LCD_Address_Set:0000000000000012 .L0 
     /tmp/ccIfjRGV.s:1058   .text.LCD_Address_Set:0000000000000012 .L0 
     /tmp/ccIfjRGV.s:1060   .text.LCD_Address_Set:0000000000000016 .L0 
     /tmp/ccIfjRGV.s:1062   .text.LCD_Address_Set:000000000000001a .L0 
     /tmp/ccIfjRGV.s:1065   .text.LCD_Address_Set:0000000000000022 .L0 
     /tmp/ccIfjRGV.s:1067   .text.LCD_Address_Set:0000000000000026 .L0 
     /tmp/ccIfjRGV.s:1069   .text.LCD_Address_Set:000000000000002a .L0 
     /tmp/ccIfjRGV.s:1071   .text.LCD_Address_Set:000000000000002e .L0 
     /tmp/ccIfjRGV.s:1076   .text.LCD_Address_Set:0000000000000032 .L0 
     /tmp/ccIfjRGV.s:1083   .text.LCD_Address_Set:0000000000000040 .L0 
     /tmp/ccIfjRGV.s:1084   .text.LCD_Address_Set:0000000000000040 .L0 
     /tmp/ccIfjRGV.s:1085   .text.LCD_Address_Set:0000000000000040 .L0 
     /tmp/ccIfjRGV.s:1086   .text.LCD_Address_Set:0000000000000040 .L0 
     /tmp/ccIfjRGV.s:1087   .text.LCD_Address_Set:0000000000000040 .L0 
GAS LISTING /tmp/ccIfjRGV.s 			page 269


     /tmp/ccIfjRGV.s:1088   .text.LCD_Address_Set:0000000000000040 .L0 
     /tmp/ccIfjRGV.s:1089   .text.LCD_Address_Set:0000000000000040 .L0 
     /tmp/ccIfjRGV.s:1094   .text.LCD_Address_Set:0000000000000040 .L0 
     /tmp/ccIfjRGV.s:1099   .text.LCD_Address_Set:0000000000000044 .L0 
     /tmp/ccIfjRGV.s:1104   .text.LCD_Address_Set:000000000000004a .L0 
     /tmp/ccIfjRGV.s:1108   .text.LCD_Address_Set:000000000000004a .L0 
     /tmp/ccIfjRGV.s:1112   .text.LCD_Address_Set:000000000000004a .L0 
     /tmp/ccIfjRGV.s:1113   .text.LCD_Address_Set:000000000000004a .L0 
     /tmp/ccIfjRGV.s:1118   .text.LCD_Address_Set:000000000000004c .L0 
     /tmp/ccIfjRGV.s:1122   .text.LCD_Address_Set:0000000000000050 .L0 
     /tmp/ccIfjRGV.s:1125   .text.LCD_Address_Set:0000000000000058 .L0 
     /tmp/ccIfjRGV.s:1127   .text.LCD_Address_Set:000000000000005c .L0 
     /tmp/ccIfjRGV.s:1129   .text.LCD_Address_Set:0000000000000060 .L0 
     /tmp/ccIfjRGV.s:1131   .text.LCD_Address_Set:0000000000000064 .L0 
     /tmp/ccIfjRGV.s:1137   .text.LCD_Address_Set:0000000000000072 .L0 
     /tmp/ccIfjRGV.s:1143   .text.LCD_Address_Set:0000000000000076 .L0 
     /tmp/ccIfjRGV.s:1144   .text.LCD_Address_Set:0000000000000076 .L0 
     /tmp/ccIfjRGV.s:1151   .text.LCD_Address_Set:0000000000000082 .L0 
     /tmp/ccIfjRGV.s:1160   .text.LCD_Address_Set:0000000000000092 .L0 
     /tmp/ccIfjRGV.s:1165   .text.LCD_Address_Set:0000000000000094 .L0 
     /tmp/ccIfjRGV.s:1167   .text.LCD_Address_Set:0000000000000098 .L0 
     /tmp/ccIfjRGV.s:1168   .text.LCD_Address_Set:0000000000000098 .L0 
     /tmp/ccIfjRGV.s:1174   .text.LCD_Address_Set:000000000000009a .L0 
     /tmp/ccIfjRGV.s:1177   .text.LCD_Address_Set:00000000000000a2 .L0 
     /tmp/ccIfjRGV.s:1178   .text.LCD_Address_Set:00000000000000a2 .L0 
     /tmp/ccIfjRGV.s:1180   .text.LCD_Address_Set:00000000000000a6 .L0 
     /tmp/ccIfjRGV.s:1184   .text.LCD_Address_Set:00000000000000b0 .L0 
     /tmp/ccIfjRGV.s:1188   .text.LCD_Address_Set:00000000000000b0 .L0 
     /tmp/ccIfjRGV.s:1189   .text.LCD_Address_Set:00000000000000b0 .L0 
     /tmp/ccIfjRGV.s:1190   .text.LCD_Address_Set:00000000000000b0 .L0 
     /tmp/ccIfjRGV.s:1192   .text.LCD_Address_Set:00000000000000b2 .L0 
     /tmp/ccIfjRGV.s:1194   .text.LCD_Address_Set:00000000000000b6 .L0 
     /tmp/ccIfjRGV.s:1196   .text.LCD_Address_Set:00000000000000ba .L0 
     /tmp/ccIfjRGV.s:1202   .text.LCD_Address_Set:00000000000000cc .L0 
     /tmp/ccIfjRGV.s:1205   .text.LCD_Address_Set:00000000000000d0 .L0 
     /tmp/ccIfjRGV.s:1208   .text.LCD_Address_Set:00000000000000d8 .L0 
     /tmp/ccIfjRGV.s:1210   .text.LCD_Address_Set:00000000000000da .L0 
     /tmp/ccIfjRGV.s:1212   .text.LCD_Address_Set:00000000000000de .L0 
     /tmp/ccIfjRGV.s:1214   .text.LCD_Address_Set:00000000000000e2 .L0 
     /tmp/ccIfjRGV.s:1220   .text.LCD_Address_Set:00000000000000f0 .L0 
     /tmp/ccIfjRGV.s:1226   .text.LCD_Address_Set:00000000000000f4 .L0 
     /tmp/ccIfjRGV.s:1227   .text.LCD_Address_Set:00000000000000f4 .L0 
     /tmp/ccIfjRGV.s:1232   .text.LCD_Address_Set:00000000000000f8 .L0 
     /tmp/ccIfjRGV.s:1239   .text.LCD_Address_Set:0000000000000100 .L0 
     /tmp/ccIfjRGV.s:1244   .text.LCD_Address_Set:0000000000000102 .L0 
     /tmp/ccIfjRGV.s:1246   .text.LCD_Address_Set:0000000000000104 .L0 
     /tmp/ccIfjRGV.s:1247   .text.LCD_Address_Set:0000000000000104 .L0 
     /tmp/ccIfjRGV.s:1253   .text.LCD_Address_Set:0000000000000106 .L0 
     /tmp/ccIfjRGV.s:1256   .text.LCD_Address_Set:000000000000010e .L0 
     /tmp/ccIfjRGV.s:1257   .text.LCD_Address_Set:000000000000010e .L0 
     /tmp/ccIfjRGV.s:1259   .text.LCD_Address_Set:0000000000000112 .L0 
     /tmp/ccIfjRGV.s:1263   .text.LCD_Address_Set:000000000000011c .L0 
     /tmp/ccIfjRGV.s:1264   .text.LCD_Address_Set:000000000000011c .L0 
     /tmp/ccIfjRGV.s:1269   .text.LCD_Address_Set:000000000000011c .L0 
     /tmp/ccIfjRGV.s:1270   .text.LCD_Address_Set:000000000000011c .L0 
     /tmp/ccIfjRGV.s:1272   .text.LCD_Address_Set:000000000000011e .L0 
     /tmp/ccIfjRGV.s:1274   .text.LCD_Address_Set:0000000000000122 .L0 
GAS LISTING /tmp/ccIfjRGV.s 			page 270


     /tmp/ccIfjRGV.s:1276   .text.LCD_Address_Set:0000000000000126 .L0 
     /tmp/ccIfjRGV.s:1282   .text.LCD_Address_Set:0000000000000138 .L0 
     /tmp/ccIfjRGV.s:1285   .text.LCD_Address_Set:000000000000013c .L0 
     /tmp/ccIfjRGV.s:1288   .text.LCD_Address_Set:0000000000000144 .L0 
     /tmp/ccIfjRGV.s:1290   .text.LCD_Address_Set:0000000000000146 .L0 
     /tmp/ccIfjRGV.s:1292   .text.LCD_Address_Set:000000000000014a .L0 
     /tmp/ccIfjRGV.s:1294   .text.LCD_Address_Set:000000000000014e .L0 
     /tmp/ccIfjRGV.s:1300   .text.LCD_Address_Set:000000000000015c .L0 
     /tmp/ccIfjRGV.s:1303   .text.LCD_Address_Set:0000000000000160 .L0 
     /tmp/ccIfjRGV.s:1304   .text.LCD_Address_Set:0000000000000160 .L0 
     /tmp/ccIfjRGV.s:1310   .text.LCD_Address_Set:0000000000000162 .L0 
     /tmp/ccIfjRGV.s:1311   .text.LCD_Address_Set:0000000000000164 .L0 
     /tmp/ccIfjRGV.s:1313   .text.LCD_Address_Set:0000000000000166 .L0 
     /tmp/ccIfjRGV.s:1319   .text.LCD_Address_Set:0000000000000166 .L0 
     /tmp/ccIfjRGV.s:1329   .text.LCD_Address_Set:0000000000000170 .L0 
     /tmp/ccIfjRGV.s:1330   .text.LCD_Address_Set:0000000000000170 .L0 
     /tmp/ccIfjRGV.s:1331   .text.LCD_Address_Set:0000000000000172 .L0 
     /tmp/ccIfjRGV.s:1333   .text.LCD_Address_Set:0000000000000174 .L0 
     /tmp/ccIfjRGV.s:1336   .text.LCD_Address_Set:0000000000000176 .L0 
     /tmp/ccIfjRGV.s:1339   .text.LCD_Address_Set:0000000000000178 .L0 
     /tmp/ccIfjRGV.s:1341   .text.LCD_Address_Set:000000000000017a .L0 
     /tmp/ccIfjRGV.s:1343   .text.LCD_Address_Set:000000000000017c .L0 
     /tmp/ccIfjRGV.s:1346   .text.LCD_Address_Set:000000000000017e .L0 
     /tmp/ccIfjRGV.s:1350   .text.LCD_Address_Set:0000000000000180 .L0 
     /tmp/ccIfjRGV.s:1352   .text.LCD_Address_Set:0000000000000182 .L0 
     /tmp/ccIfjRGV.s:1358   .text.LCD_ShowChar.part.3:0000000000000000 LCD_ShowChar.part.3
     /tmp/ccIfjRGV.s:1361   .text.LCD_ShowChar.part.3:0000000000000000 .L0 
     /tmp/ccIfjRGV.s:1363   .text.LCD_ShowChar.part.3:0000000000000000 .L0 
     /tmp/ccIfjRGV.s:1365   .text.LCD_ShowChar.part.3:0000000000000002 .L0 
     /tmp/ccIfjRGV.s:1367   .text.LCD_ShowChar.part.3:0000000000000004 .L0 
     /tmp/ccIfjRGV.s:1370   .text.LCD_ShowChar.part.3:0000000000000006 .L0 
     /tmp/ccIfjRGV.s:1372   .text.LCD_ShowChar.part.3:0000000000000008 .L0 
     /tmp/ccIfjRGV.s:1374   .text.LCD_ShowChar.part.3:000000000000000a .L0 
     /tmp/ccIfjRGV.s:1376   .text.LCD_ShowChar.part.3:000000000000000e .L0 
     /tmp/ccIfjRGV.s:1378   .text.LCD_ShowChar.part.3:000000000000000e .L0 
     /tmp/ccIfjRGV.s:1381   .text.LCD_ShowChar.part.3:0000000000000014 .L0 
     /tmp/ccIfjRGV.s:1384   .text.LCD_ShowChar.part.3:0000000000000018 .L0 
     /tmp/ccIfjRGV.s:1392   .text.LCD_ShowChar.part.3:0000000000000028 .L0 
     /tmp/ccIfjRGV.s:1393   .text.LCD_ShowChar.part.3:0000000000000028 .L0 
     /tmp/ccIfjRGV.s:1394   .text.LCD_ShowChar.part.3:0000000000000028 .L0 
     /tmp/ccIfjRGV.s:1395   .text.LCD_ShowChar.part.3:0000000000000028 .L0 
     /tmp/ccIfjRGV.s:1396   .text.LCD_ShowChar.part.3:0000000000000028 .L0 
     /tmp/ccIfjRGV.s:1397   .text.LCD_ShowChar.part.3:0000000000000028 .L0 
     /tmp/ccIfjRGV.s:1398   .text.LCD_ShowChar.part.3:0000000000000028 .L0 
     /tmp/ccIfjRGV.s:1399   .text.LCD_ShowChar.part.3:0000000000000028 .L0 
     /tmp/ccIfjRGV.s:1401   .text.LCD_ShowChar.part.3:0000000000000028 .L0 
     /tmp/ccIfjRGV.s:1404   .text.LCD_ShowChar.part.3:000000000000002a .L0 
     /tmp/ccIfjRGV.s:1405   .text.LCD_ShowChar.part.3:000000000000002a .L0 
     /tmp/ccIfjRGV.s:1406   .text.LCD_ShowChar.part.3:000000000000002a .L0 
     /tmp/ccIfjRGV.s:1410   .text.LCD_ShowChar.part.3:0000000000000030 .L0 
     /tmp/ccIfjRGV.s:1413   .text.LCD_ShowChar.part.3:0000000000000038 .L0 
     /tmp/ccIfjRGV.s:1414   .text.LCD_ShowChar.part.3:0000000000000038 .L0 
                            *COM*:0000000000000004 BACK_COLOR
     /tmp/ccIfjRGV.s:1419   .text.LCD_ShowChar.part.3:0000000000000046 .L0 
     /tmp/ccIfjRGV.s:1425   .text.LCD_ShowChar.part.3:000000000000004e .L0 
     /tmp/ccIfjRGV.s:1426   .text.LCD_ShowChar.part.3:000000000000004e .L0 
     /tmp/ccIfjRGV.s:1429   .text.LCD_ShowChar.part.3:0000000000000052 .L0 
GAS LISTING /tmp/ccIfjRGV.s 			page 271


     /tmp/ccIfjRGV.s:1430   .text.LCD_ShowChar.part.3:0000000000000052 .L0 
     /tmp/ccIfjRGV.s:1434   .text.LCD_ShowChar.part.3:0000000000000054 .L0 
     /tmp/ccIfjRGV.s:1435   .text.LCD_ShowChar.part.3:0000000000000054 .L0 
     /tmp/ccIfjRGV.s:1436   .text.LCD_ShowChar.part.3:0000000000000054 .L0 
     /tmp/ccIfjRGV.s:1437   .text.LCD_ShowChar.part.3:0000000000000054 .L0 
     /tmp/ccIfjRGV.s:1439   .text.LCD_ShowChar.part.3:0000000000000058 .L0 
     /tmp/ccIfjRGV.s:1441   .text.LCD_ShowChar.part.3:000000000000005a .L0 
     /tmp/ccIfjRGV.s:1444   .text.LCD_ShowChar.part.3:000000000000005c .L0 
     /tmp/ccIfjRGV.s:1453   .text.LCD_ShowChar.part.3:000000000000006e .L0 
     /tmp/ccIfjRGV.s:1454   .text.LCD_ShowChar.part.3:000000000000006e .L0 
     /tmp/ccIfjRGV.s:1457   .text.LCD_ShowChar.part.3:0000000000000070 .L0 
     /tmp/ccIfjRGV.s:1458   .text.LCD_ShowChar.part.3:0000000000000070 .L0 
     /tmp/ccIfjRGV.s:1461   .text.LCD_ShowChar.part.3:0000000000000072 .L0 
     /tmp/ccIfjRGV.s:1462   .text.LCD_ShowChar.part.3:0000000000000072 .L0 
     /tmp/ccIfjRGV.s:1464   .text.LCD_ShowChar.part.3:0000000000000074 .L0 
     /tmp/ccIfjRGV.s:1468   .text.LCD_ShowChar.part.3:0000000000000078 .L0 
     /tmp/ccIfjRGV.s:1469   .text.LCD_ShowChar.part.3:000000000000007a .L0 
     /tmp/ccIfjRGV.s:1470   .text.LCD_ShowChar.part.3:000000000000007a .L0 
     /tmp/ccIfjRGV.s:1472   .text.LCD_ShowChar.part.3:000000000000007c .L0 
     /tmp/ccIfjRGV.s:1474   .text.LCD_ShowChar.part.3:000000000000007e .L0 
     /tmp/ccIfjRGV.s:1477   .text.LCD_ShowChar.part.3:0000000000000080 .L0 
     /tmp/ccIfjRGV.s:1480   .text.LCD_ShowChar.part.3:0000000000000082 .L0 
     /tmp/ccIfjRGV.s:1482   .text.LCD_ShowChar.part.3:0000000000000084 .L0 
     /tmp/ccIfjRGV.s:1484   .text.LCD_ShowChar.part.3:0000000000000086 .L0 
     /tmp/ccIfjRGV.s:1486   .text.LCD_ShowChar.part.3:0000000000000088 .L0 
     /tmp/ccIfjRGV.s:1488   .text.LCD_ShowChar.part.3:000000000000008a .L0 
     /tmp/ccIfjRGV.s:1490   .text.LCD_ShowChar.part.3:000000000000008c .L0 
     /tmp/ccIfjRGV.s:1493   .text.LCD_ShowChar.part.3:000000000000008e .L0 
     /tmp/ccIfjRGV.s:1498   .text.LCD_ShowChar.part.3:0000000000000090 .L0 
     /tmp/ccIfjRGV.s:1500   .text.LCD_ShowChar.part.3:0000000000000090 .L0 
     /tmp/ccIfjRGV.s:1510   .text.LCD_ShowChar.part.3:00000000000000a4 .L0 
     /tmp/ccIfjRGV.s:1511   .text.LCD_ShowChar.part.3:00000000000000a4 .L0 
     /tmp/ccIfjRGV.s:1516   .text.LCD_ShowChar.part.3:00000000000000ae .L0 
     /tmp/ccIfjRGV.s:1517   .text.LCD_ShowChar.part.3:00000000000000ae .L0 
     /tmp/ccIfjRGV.s:1522   .text.LCD_ShowChar.part.3:00000000000000b2 .L0 
     /tmp/ccIfjRGV.s:1525   .text.LCD_ShowChar.part.3:00000000000000b4 .L0 
     /tmp/ccIfjRGV.s:1528   .text.LCD_ShowChar.part.3:00000000000000b6 .L0 
     /tmp/ccIfjRGV.s:1532   .text.LCD_ShowChar.part.3:00000000000000ba .L0 
     /tmp/ccIfjRGV.s:1533   .text.LCD_ShowChar.part.3:00000000000000ba .L0 
     /tmp/ccIfjRGV.s:1539   .text.LCD_ShowChar.part.3:00000000000000c0 .L0 
     /tmp/ccIfjRGV.s:1540   .text.LCD_ShowChar.part.3:00000000000000c0 .L0 
     /tmp/ccIfjRGV.s:1547   .text.LCD_ShowChar.part.3:00000000000000d0 .L0 
     /tmp/ccIfjRGV.s:1555   .text.LCD_ShowChar.part.3:00000000000000dc .L0 
     /tmp/ccIfjRGV.s:1556   .text.LCD_ShowChar.part.3:00000000000000dc .L0 
     /tmp/ccIfjRGV.s:1559   .text.LCD_ShowChar.part.3:00000000000000de .L0 
     /tmp/ccIfjRGV.s:1565   .text.LCD_ShowChar.part.3:00000000000000e4 .L0 
     /tmp/ccIfjRGV.s:1567   .text.LCD_ShowChar.part.3:00000000000000ea .L0 
     /tmp/ccIfjRGV.s:1574   .text.spi_config:0000000000000000 spi_config
     /tmp/ccIfjRGV.s:1577   .text.spi_config:0000000000000000 .L0 
     /tmp/ccIfjRGV.s:1578   .text.spi_config:0000000000000000 .L0 
     /tmp/ccIfjRGV.s:1579   .text.spi_config:0000000000000000 .L0 
     /tmp/ccIfjRGV.s:1580   .text.spi_config:0000000000000000 .L0 
     /tmp/ccIfjRGV.s:1581   .text.spi_config:0000000000000000 .L0 
     /tmp/ccIfjRGV.s:1583   .text.spi_config:0000000000000002 .L0 
     /tmp/ccIfjRGV.s:1585   .text.spi_config:0000000000000002 .L0 
     /tmp/ccIfjRGV.s:1588   .text.spi_config:0000000000000008 .L0 
     /tmp/ccIfjRGV.s:1590   .text.spi_config:000000000000000c .L0 
GAS LISTING /tmp/ccIfjRGV.s 			page 272


     /tmp/ccIfjRGV.s:1591   .text.spi_config:000000000000000c .L0 
     /tmp/ccIfjRGV.s:1593   .text.spi_config:000000000000000c .L0 
     /tmp/ccIfjRGV.s:1596   .text.spi_config:0000000000000014 .L0 
     /tmp/ccIfjRGV.s:1600   .text.spi_config:000000000000001e .L0 
     /tmp/ccIfjRGV.s:1601   .text.spi_config:000000000000001e .L0 
     /tmp/ccIfjRGV.s:1604   .text.spi_config:0000000000000024 .L0 
     /tmp/ccIfjRGV.s:1606   .text.spi_config:0000000000000026 .L0 
     /tmp/ccIfjRGV.s:1608   .text.spi_config:000000000000002a .L0 
     /tmp/ccIfjRGV.s:1610   .text.spi_config:000000000000002c .L0 
     /tmp/ccIfjRGV.s:1612   .text.spi_config:0000000000000030 .L0 
     /tmp/ccIfjRGV.s:1615   .text.spi_config:0000000000000036 .L0 
     /tmp/ccIfjRGV.s:1617   .text.spi_config:0000000000000038 .L0 
     /tmp/ccIfjRGV.s:1620   .text.spi_config:000000000000003c .L0 
     /tmp/ccIfjRGV.s:1622   .text.spi_config:000000000000003e .L0 
     /tmp/ccIfjRGV.s:1623   .text.spi_config:000000000000003e .L0 
     /tmp/ccIfjRGV.s:1624   .text.spi_config:000000000000003e .L0 
     /tmp/ccIfjRGV.s:1626   .text.spi_config:0000000000000040 .L0 
     /tmp/ccIfjRGV.s:1627   .text.spi_config:0000000000000040 .L0 
     /tmp/ccIfjRGV.s:1628   .text.spi_config:0000000000000040 .L0 
     /tmp/ccIfjRGV.s:1629   .text.spi_config:0000000000000040 .L0 
     /tmp/ccIfjRGV.s:1630   .text.spi_config:0000000000000040 .L0 
     /tmp/ccIfjRGV.s:1632   .text.spi_config:0000000000000042 .L0 
     /tmp/ccIfjRGV.s:1635   .text.spi_config:000000000000004a .L0 
     /tmp/ccIfjRGV.s:1640   .text.spi_config:0000000000000058 .L0 
     /tmp/ccIfjRGV.s:1644   .text.spi_config:0000000000000064 .L0 
     /tmp/ccIfjRGV.s:1645   .text.spi_config:0000000000000066 .L0 
     /tmp/ccIfjRGV.s:1647   .text.spi_config:0000000000000068 .L0 
     /tmp/ccIfjRGV.s:1650   .text.spi_config:000000000000006a .L0 
     /tmp/ccIfjRGV.s:1652   .text.spi_config:000000000000006c .L0 
     /tmp/ccIfjRGV.s:1659   .text.Lcd_SetType:0000000000000000 Lcd_SetType
     /tmp/ccIfjRGV.s:1662   .text.Lcd_SetType:0000000000000000 .L0 
     /tmp/ccIfjRGV.s:1664   .text.Lcd_SetType:0000000000000000 .L0 
     /tmp/ccIfjRGV.s:1665   .text.Lcd_SetType:0000000000000000 .L0 
     /tmp/ccIfjRGV.s:1666   .text.Lcd_SetType:0000000000000000 .L0 
     /tmp/ccIfjRGV.s:1668   .text.Lcd_SetType:0000000000000002 .L0 
     /tmp/ccIfjRGV.s:1669   .text.Lcd_SetType:0000000000000002 .L0 
     /tmp/ccIfjRGV.s:1670   .text.Lcd_SetType:0000000000000002 .L0 
     /tmp/ccIfjRGV.s:1671   .text.Lcd_SetType:0000000000000002 .L0 
     /tmp/ccIfjRGV.s:1672   .text.Lcd_SetType:0000000000000002 .L0 
     /tmp/ccIfjRGV.s:1677   .text.Lcd_SetType:0000000000000010 .L0 
     /tmp/ccIfjRGV.s:1680   .text.Lcd_SetType:0000000000000012 .L0 
     /tmp/ccIfjRGV.s:1681   .text.Lcd_SetType:0000000000000012 .L0 
     /tmp/ccIfjRGV.s:1687   .text.Lcd_SetType:0000000000000018 .L0 
     /tmp/ccIfjRGV.s:1688   .text.Lcd_SetType:0000000000000018 .L0 
     /tmp/ccIfjRGV.s:1689   .text.Lcd_SetType:0000000000000018 .L0 
     /tmp/ccIfjRGV.s:1690   .text.Lcd_SetType:0000000000000018 .L0 
     /tmp/ccIfjRGV.s:1691   .text.Lcd_SetType:0000000000000018 .L0 
     /tmp/ccIfjRGV.s:1700   .text.Lcd_SetType:0000000000000028 .L0 
     /tmp/ccIfjRGV.s:1701   .text.Lcd_SetType:000000000000002a .L0 
     /tmp/ccIfjRGV.s:1708   .text.Lcd_Init:0000000000000000 Lcd_Init
     /tmp/ccIfjRGV.s:1711   .text.Lcd_Init:0000000000000000 .L0 
     /tmp/ccIfjRGV.s:1712   .text.Lcd_Init:0000000000000000 .L0 
     /tmp/ccIfjRGV.s:1713   .text.Lcd_Init:0000000000000000 .L0 
     /tmp/ccIfjRGV.s:1714   .text.Lcd_Init:0000000000000000 .L0 
     /tmp/ccIfjRGV.s:1716   .text.Lcd_Init:0000000000000002 .L0 
     /tmp/ccIfjRGV.s:1718   .text.Lcd_Init:0000000000000004 .L0 
     /tmp/ccIfjRGV.s:1720   .text.Lcd_Init:0000000000000004 .L0 
GAS LISTING /tmp/ccIfjRGV.s 			page 273


     /tmp/ccIfjRGV.s:1723   .text.Lcd_Init:000000000000000c .L0 
     /tmp/ccIfjRGV.s:1725   .text.Lcd_Init:0000000000000010 .L0 
     /tmp/ccIfjRGV.s:1729   .text.Lcd_Init:0000000000000018 .L0 
     /tmp/ccIfjRGV.s:1730   .text.Lcd_Init:0000000000000018 .L0 
     /tmp/ccIfjRGV.s:1731   .text.Lcd_Init:0000000000000018 .L0 
     /tmp/ccIfjRGV.s:1732   .text.Lcd_Init:0000000000000018 .L0 
     /tmp/ccIfjRGV.s:1734   .text.Lcd_Init:0000000000000018 .L0 
     /tmp/ccIfjRGV.s:1739   .text.Lcd_Init:000000000000001a .L0 
     /tmp/ccIfjRGV.s:1740   .text.Lcd_Init:000000000000001a .L0 
     /tmp/ccIfjRGV.s:1741   .text.Lcd_Init:000000000000001a .L0 
     /tmp/ccIfjRGV.s:1742   .text.Lcd_Init:000000000000001a .L0 
     /tmp/ccIfjRGV.s:1743   .text.Lcd_Init:000000000000001a .L0 
     /tmp/ccIfjRGV.s:1744   .text.Lcd_Init:000000000000001a .L0 
     /tmp/ccIfjRGV.s:1745   .text.Lcd_Init:000000000000001a .L0 
     /tmp/ccIfjRGV.s:1753   .text.Lcd_Init:0000000000000024 .L0 
     /tmp/ccIfjRGV.s:1754   .text.Lcd_Init:0000000000000024 .L0 
     /tmp/ccIfjRGV.s:1758   .text.Lcd_Init:0000000000000030 .L0 
     /tmp/ccIfjRGV.s:1762   .text.Lcd_Init:000000000000003c .L0 
     /tmp/ccIfjRGV.s:1766   .text.Lcd_Init:0000000000000048 .L0 
     /tmp/ccIfjRGV.s:1770   .text.Lcd_Init:0000000000000054 .L0 
     /tmp/ccIfjRGV.s:1778   .text.Lcd_Init:000000000000006a .L0 
     /tmp/ccIfjRGV.s:1785   .text.Lcd_Init:000000000000007c .L0 
     /tmp/ccIfjRGV.s:1788   .text.Lcd_Init:0000000000000084 .L0 
     /tmp/ccIfjRGV.s:1793   .text.Lcd_Init:000000000000008a .L0 
     /tmp/ccIfjRGV.s:1798   .text.Lcd_Init:0000000000000092 .L0 
     /tmp/ccIfjRGV.s:1803   .text.Lcd_Init:000000000000009a .L0 
     /tmp/ccIfjRGV.s:1804   .text.Lcd_Init:000000000000009a .L0 
     /tmp/ccIfjRGV.s:1805   .text.Lcd_Init:000000000000009a .L0 
     /tmp/ccIfjRGV.s:1808   .text.Lcd_Init:00000000000000a2 .L0 
     /tmp/ccIfjRGV.s:1813   .text.Lcd_Init:00000000000000aa .L0 
     /tmp/ccIfjRGV.s:1816   .text.Lcd_Init:00000000000000b2 .L0 
     /tmp/ccIfjRGV.s:1823   .text.Lcd_Init:00000000000000ba .L0 
     /tmp/ccIfjRGV.s:1827   .text.Lcd_Init:00000000000000c6 .L0 
     /tmp/ccIfjRGV.s:1831   .text.Lcd_Init:00000000000000c6 .L0 
     /tmp/ccIfjRGV.s:1832   .text.Lcd_Init:00000000000000c6 .L0 
     /tmp/ccIfjRGV.s:1833   .text.Lcd_Init:00000000000000c6 .L0 
     /tmp/ccIfjRGV.s:1835   .text.Lcd_Init:00000000000000c8 .L0 
     /tmp/ccIfjRGV.s:1837   .text.Lcd_Init:00000000000000ca .L0 
     /tmp/ccIfjRGV.s:1839   .text.Lcd_Init:00000000000000ce .L0 
     /tmp/ccIfjRGV.s:1845   .text.Lcd_Init:00000000000000e0 .L0 
     /tmp/ccIfjRGV.s:1848   .text.Lcd_Init:00000000000000e4 .L0 
     /tmp/ccIfjRGV.s:1851   .text.Lcd_Init:00000000000000ec .L0 
     /tmp/ccIfjRGV.s:1853   .text.Lcd_Init:00000000000000ee .L0 
     /tmp/ccIfjRGV.s:1855   .text.Lcd_Init:00000000000000f0 .L0 
     /tmp/ccIfjRGV.s:1857   .text.Lcd_Init:00000000000000f4 .L0 
     /tmp/ccIfjRGV.s:1863   .text.Lcd_Init:0000000000000102 .L0 
     /tmp/ccIfjRGV.s:1866   .text.Lcd_Init:0000000000000106 .L0 
     /tmp/ccIfjRGV.s:1867   .text.Lcd_Init:0000000000000106 .L0 
     /tmp/ccIfjRGV.s:1874   .text.Lcd_Init:0000000000000116 .L0 
     /tmp/ccIfjRGV.s:1875   .text.Lcd_Init:0000000000000116 .L0 
     /tmp/ccIfjRGV.s:1884   .text.Lcd_Init:0000000000000118 .L0 
     /tmp/ccIfjRGV.s:1887   .text.Lcd_Init:0000000000000120 .L0 
     /tmp/ccIfjRGV.s:1893   .text.Lcd_Init:0000000000000128 .L0 
     /tmp/ccIfjRGV.s:1897   .text.Lcd_Init:0000000000000134 .L0 
     /tmp/ccIfjRGV.s:1901   .text.Lcd_Init:0000000000000134 .L0 
     /tmp/ccIfjRGV.s:1902   .text.Lcd_Init:0000000000000134 .L0 
     /tmp/ccIfjRGV.s:1903   .text.Lcd_Init:0000000000000134 .L0 
GAS LISTING /tmp/ccIfjRGV.s 			page 274


     /tmp/ccIfjRGV.s:1905   .text.Lcd_Init:0000000000000136 .L0 
     /tmp/ccIfjRGV.s:1907   .text.Lcd_Init:0000000000000138 .L0 
     /tmp/ccIfjRGV.s:1909   .text.Lcd_Init:000000000000013c .L0 
     /tmp/ccIfjRGV.s:1915   .text.Lcd_Init:000000000000014e .L0 
     /tmp/ccIfjRGV.s:1918   .text.Lcd_Init:0000000000000152 .L0 
     /tmp/ccIfjRGV.s:1921   .text.Lcd_Init:000000000000015a .L0 
     /tmp/ccIfjRGV.s:1923   .text.Lcd_Init:000000000000015c .L0 
     /tmp/ccIfjRGV.s:1925   .text.Lcd_Init:000000000000015e .L0 
     /tmp/ccIfjRGV.s:1927   .text.Lcd_Init:0000000000000162 .L0 
     /tmp/ccIfjRGV.s:1933   .text.Lcd_Init:0000000000000170 .L0 
     /tmp/ccIfjRGV.s:1936   .text.Lcd_Init:0000000000000174 .L0 
     /tmp/ccIfjRGV.s:1937   .text.Lcd_Init:0000000000000174 .L0 
     /tmp/ccIfjRGV.s:1942   .text.Lcd_Init:000000000000017c .L0 
     /tmp/ccIfjRGV.s:1943   .text.Lcd_Init:000000000000017c .L0 
     /tmp/ccIfjRGV.s:1952   .text.Lcd_Init:000000000000017e .L0 
     /tmp/ccIfjRGV.s:1955   .text.Lcd_Init:0000000000000186 .L0 
     /tmp/ccIfjRGV.s:1961   .text.Lcd_Init:000000000000018e .L0 
     /tmp/ccIfjRGV.s:1965   .text.Lcd_Init:000000000000019a .L0 
     /tmp/ccIfjRGV.s:1966   .text.Lcd_Init:000000000000019a .L0 
     /tmp/ccIfjRGV.s:1974   .text.Lcd_Init:00000000000001a4 .L0 
     /tmp/ccIfjRGV.s:1978   .text.Lcd_Init:00000000000001ac .L0 
     /tmp/ccIfjRGV.s:1980   .text.Lcd_Init:00000000000001ae .L0 
     /tmp/ccIfjRGV.s:1982   .text.Lcd_Init:00000000000001b0 .L0 
     /tmp/ccIfjRGV.s:1984   .text.Lcd_Init:00000000000001b4 .L0 
     /tmp/ccIfjRGV.s:1990   .text.Lcd_Init:00000000000001c6 .L0 
     /tmp/ccIfjRGV.s:1992   .text.Lcd_Init:00000000000001ca .L0 
     /tmp/ccIfjRGV.s:1993   .text.Lcd_Init:00000000000001ca .L0 
     /tmp/ccIfjRGV.s:2004   .text.Lcd_Init:00000000000001d4 .L0 
     /tmp/ccIfjRGV.s:2005   .text.Lcd_Init:00000000000001d4 .L0 
     /tmp/ccIfjRGV.s:2007   .text.Lcd_Init:00000000000001d8 .L0 
     /tmp/ccIfjRGV.s:2018   .text.Lcd_Init:00000000000001e8 .L0 
     /tmp/ccIfjRGV.s:2026   .text.Lcd_Init:00000000000001ea .L0 
     /tmp/ccIfjRGV.s:2028   .text.Lcd_Init:00000000000001ec .L0 
     /tmp/ccIfjRGV.s:2037   .text.Lcd_Init:00000000000001f4 .L0 
     /tmp/ccIfjRGV.s:2038   .text.Lcd_Init:00000000000001f4 .L0 
     /tmp/ccIfjRGV.s:2040   .text.Lcd_Init:00000000000001f8 .L0 
     /tmp/ccIfjRGV.s:2050   .text.Lcd_Init:0000000000000204 .L0 
     /tmp/ccIfjRGV.s:2059   .text.Lcd_Init:0000000000000208 .L0 
     /tmp/ccIfjRGV.s:2067   .text.Lcd_Init:000000000000020c .L0 
     /tmp/ccIfjRGV.s:2070   .text.Lcd_Init:0000000000000212 .L0 
     /tmp/ccIfjRGV.s:2071   .text.Lcd_Init:0000000000000212 .L0 
     /tmp/ccIfjRGV.s:2077   .text.Lcd_Init:0000000000000214 .L0 
     /tmp/ccIfjRGV.s:2081   .text.Lcd_Init:0000000000000214 .L0 
     /tmp/ccIfjRGV.s:2082   .text.Lcd_Init:0000000000000214 .L0 
     /tmp/ccIfjRGV.s:2083   .text.Lcd_Init:0000000000000214 .L0 
     /tmp/ccIfjRGV.s:2085   .text.Lcd_Init:0000000000000216 .L0 
     /tmp/ccIfjRGV.s:2088   .text.Lcd_Init:000000000000021a .L0 
     /tmp/ccIfjRGV.s:2091   .text.Lcd_Init:0000000000000222 .L0 
     /tmp/ccIfjRGV.s:2093   .text.Lcd_Init:0000000000000224 .L0 
     /tmp/ccIfjRGV.s:2095   .text.Lcd_Init:0000000000000226 .L0 
     /tmp/ccIfjRGV.s:2097   .text.Lcd_Init:000000000000022a .L0 
     /tmp/ccIfjRGV.s:2103   .text.Lcd_Init:000000000000023c .L0 
     /tmp/ccIfjRGV.s:2112   .text.Lcd_Init:0000000000000240 .L0 
     /tmp/ccIfjRGV.s:2113   .text.Lcd_Init:0000000000000240 .L0 
     /tmp/ccIfjRGV.s:2115   .text.Lcd_Init:0000000000000244 .L0 
     /tmp/ccIfjRGV.s:2125   .text.Lcd_Init:0000000000000250 .L0 
     /tmp/ccIfjRGV.s:2134   .text.Lcd_Init:0000000000000254 .L0 
GAS LISTING /tmp/ccIfjRGV.s 			page 275


     /tmp/ccIfjRGV.s:2142   .text.Lcd_Init:0000000000000258 .L0 
     /tmp/ccIfjRGV.s:2145   .text.Lcd_Init:000000000000025e .L0 
     /tmp/ccIfjRGV.s:2146   .text.Lcd_Init:000000000000025e .L0 
     /tmp/ccIfjRGV.s:2152   .text.Lcd_Init:0000000000000260 .L0 
     /tmp/ccIfjRGV.s:2156   .text.Lcd_Init:0000000000000260 .L0 
     /tmp/ccIfjRGV.s:2157   .text.Lcd_Init:0000000000000260 .L0 
     /tmp/ccIfjRGV.s:2158   .text.Lcd_Init:0000000000000260 .L0 
     /tmp/ccIfjRGV.s:2160   .text.Lcd_Init:0000000000000262 .L0 
     /tmp/ccIfjRGV.s:2163   .text.Lcd_Init:0000000000000266 .L0 
     /tmp/ccIfjRGV.s:2166   .text.Lcd_Init:000000000000026e .L0 
     /tmp/ccIfjRGV.s:2168   .text.Lcd_Init:0000000000000270 .L0 
     /tmp/ccIfjRGV.s:2170   .text.Lcd_Init:0000000000000272 .L0 
     /tmp/ccIfjRGV.s:2172   .text.Lcd_Init:0000000000000276 .L0 
     /tmp/ccIfjRGV.s:2178   .text.Lcd_Init:0000000000000288 .L0 
     /tmp/ccIfjRGV.s:2187   .text.Lcd_Init:000000000000028c .L0 
     /tmp/ccIfjRGV.s:2188   .text.Lcd_Init:000000000000028c .L0 
     /tmp/ccIfjRGV.s:2190   .text.Lcd_Init:0000000000000290 .L0 
     /tmp/ccIfjRGV.s:2200   .text.Lcd_Init:000000000000029c .L0 
     /tmp/ccIfjRGV.s:2209   .text.Lcd_Init:00000000000002a0 .L0 
     /tmp/ccIfjRGV.s:2217   .text.Lcd_Init:00000000000002a4 .L0 
     /tmp/ccIfjRGV.s:2220   .text.Lcd_Init:00000000000002aa .L0 
     /tmp/ccIfjRGV.s:2221   .text.Lcd_Init:00000000000002aa .L0 
     /tmp/ccIfjRGV.s:2227   .text.Lcd_Init:00000000000002ac .L0 
     /tmp/ccIfjRGV.s:2231   .text.Lcd_Init:00000000000002ac .L0 
     /tmp/ccIfjRGV.s:2232   .text.Lcd_Init:00000000000002ac .L0 
     /tmp/ccIfjRGV.s:2233   .text.Lcd_Init:00000000000002ac .L0 
     /tmp/ccIfjRGV.s:2235   .text.Lcd_Init:00000000000002ae .L0 
     /tmp/ccIfjRGV.s:2238   .text.Lcd_Init:00000000000002b2 .L0 
     /tmp/ccIfjRGV.s:2241   .text.Lcd_Init:00000000000002ba .L0 
     /tmp/ccIfjRGV.s:2243   .text.Lcd_Init:00000000000002bc .L0 
     /tmp/ccIfjRGV.s:2245   .text.Lcd_Init:00000000000002be .L0 
     /tmp/ccIfjRGV.s:2247   .text.Lcd_Init:00000000000002c2 .L0 
     /tmp/ccIfjRGV.s:2253   .text.Lcd_Init:00000000000002d4 .L0 
     /tmp/ccIfjRGV.s:2262   .text.Lcd_Init:00000000000002d8 .L0 
     /tmp/ccIfjRGV.s:2263   .text.Lcd_Init:00000000000002d8 .L0 
     /tmp/ccIfjRGV.s:2265   .text.Lcd_Init:00000000000002dc .L0 
     /tmp/ccIfjRGV.s:2275   .text.Lcd_Init:00000000000002e8 .L0 
     /tmp/ccIfjRGV.s:2284   .text.Lcd_Init:00000000000002ec .L0 
     /tmp/ccIfjRGV.s:2292   .text.Lcd_Init:00000000000002f0 .L0 
     /tmp/ccIfjRGV.s:2295   .text.Lcd_Init:00000000000002f6 .L0 
     /tmp/ccIfjRGV.s:2296   .text.Lcd_Init:00000000000002f6 .L0 
     /tmp/ccIfjRGV.s:2302   .text.Lcd_Init:00000000000002f8 .L0 
     /tmp/ccIfjRGV.s:2306   .text.Lcd_Init:00000000000002f8 .L0 
     /tmp/ccIfjRGV.s:2307   .text.Lcd_Init:00000000000002f8 .L0 
     /tmp/ccIfjRGV.s:2308   .text.Lcd_Init:00000000000002f8 .L0 
     /tmp/ccIfjRGV.s:2310   .text.Lcd_Init:00000000000002fa .L0 
     /tmp/ccIfjRGV.s:2313   .text.Lcd_Init:00000000000002fe .L0 
     /tmp/ccIfjRGV.s:2316   .text.Lcd_Init:0000000000000306 .L0 
     /tmp/ccIfjRGV.s:2318   .text.Lcd_Init:0000000000000308 .L0 
     /tmp/ccIfjRGV.s:2320   .text.Lcd_Init:000000000000030a .L0 
     /tmp/ccIfjRGV.s:2322   .text.Lcd_Init:000000000000030e .L0 
     /tmp/ccIfjRGV.s:2328   .text.Lcd_Init:0000000000000320 .L0 
     /tmp/ccIfjRGV.s:2337   .text.Lcd_Init:0000000000000324 .L0 
     /tmp/ccIfjRGV.s:2338   .text.Lcd_Init:0000000000000324 .L0 
     /tmp/ccIfjRGV.s:2340   .text.Lcd_Init:0000000000000328 .L0 
     /tmp/ccIfjRGV.s:2350   .text.Lcd_Init:0000000000000334 .L0 
     /tmp/ccIfjRGV.s:2359   .text.Lcd_Init:0000000000000338 .L0 
GAS LISTING /tmp/ccIfjRGV.s 			page 276


     /tmp/ccIfjRGV.s:2367   .text.Lcd_Init:000000000000033c .L0 
     /tmp/ccIfjRGV.s:2370   .text.Lcd_Init:0000000000000342 .L0 
     /tmp/ccIfjRGV.s:2371   .text.Lcd_Init:0000000000000342 .L0 
     /tmp/ccIfjRGV.s:2377   .text.Lcd_Init:0000000000000344 .L0 
     /tmp/ccIfjRGV.s:2381   .text.Lcd_Init:0000000000000344 .L0 
     /tmp/ccIfjRGV.s:2382   .text.Lcd_Init:0000000000000344 .L0 
     /tmp/ccIfjRGV.s:2383   .text.Lcd_Init:0000000000000344 .L0 
     /tmp/ccIfjRGV.s:2385   .text.Lcd_Init:0000000000000346 .L0 
     /tmp/ccIfjRGV.s:2388   .text.Lcd_Init:000000000000034a .L0 
     /tmp/ccIfjRGV.s:2391   .text.Lcd_Init:0000000000000352 .L0 
     /tmp/ccIfjRGV.s:2393   .text.Lcd_Init:0000000000000354 .L0 
     /tmp/ccIfjRGV.s:2395   .text.Lcd_Init:0000000000000356 .L0 
     /tmp/ccIfjRGV.s:2397   .text.Lcd_Init:000000000000035a .L0 
     /tmp/ccIfjRGV.s:2403   .text.Lcd_Init:000000000000036c .L0 
     /tmp/ccIfjRGV.s:2412   .text.Lcd_Init:0000000000000370 .L0 
     /tmp/ccIfjRGV.s:2413   .text.Lcd_Init:0000000000000370 .L0 
     /tmp/ccIfjRGV.s:2415   .text.Lcd_Init:0000000000000374 .L0 
     /tmp/ccIfjRGV.s:2425   .text.Lcd_Init:0000000000000380 .L0 
     /tmp/ccIfjRGV.s:2434   .text.Lcd_Init:0000000000000384 .L0 
     /tmp/ccIfjRGV.s:2442   .text.Lcd_Init:0000000000000388 .L0 
     /tmp/ccIfjRGV.s:2445   .text.Lcd_Init:000000000000038e .L0 
     /tmp/ccIfjRGV.s:2446   .text.Lcd_Init:000000000000038e .L0 
     /tmp/ccIfjRGV.s:2452   .text.Lcd_Init:0000000000000390 .L0 
     /tmp/ccIfjRGV.s:2456   .text.Lcd_Init:0000000000000390 .L0 
     /tmp/ccIfjRGV.s:2457   .text.Lcd_Init:0000000000000390 .L0 
     /tmp/ccIfjRGV.s:2458   .text.Lcd_Init:0000000000000390 .L0 
     /tmp/ccIfjRGV.s:2460   .text.Lcd_Init:0000000000000392 .L0 
     /tmp/ccIfjRGV.s:2463   .text.Lcd_Init:0000000000000396 .L0 
     /tmp/ccIfjRGV.s:2466   .text.Lcd_Init:000000000000039e .L0 
     /tmp/ccIfjRGV.s:2468   .text.Lcd_Init:00000000000003a0 .L0 
     /tmp/ccIfjRGV.s:2470   .text.Lcd_Init:00000000000003a2 .L0 
     /tmp/ccIfjRGV.s:2472   .text.Lcd_Init:00000000000003a6 .L0 
     /tmp/ccIfjRGV.s:2478   .text.Lcd_Init:00000000000003b8 .L0 
     /tmp/ccIfjRGV.s:2487   .text.Lcd_Init:00000000000003bc .L0 
     /tmp/ccIfjRGV.s:2488   .text.Lcd_Init:00000000000003bc .L0 
     /tmp/ccIfjRGV.s:2490   .text.Lcd_Init:00000000000003c0 .L0 
     /tmp/ccIfjRGV.s:2500   .text.Lcd_Init:00000000000003cc .L0 
     /tmp/ccIfjRGV.s:2509   .text.Lcd_Init:00000000000003d0 .L0 
     /tmp/ccIfjRGV.s:2517   .text.Lcd_Init:00000000000003d4 .L0 
     /tmp/ccIfjRGV.s:2520   .text.Lcd_Init:00000000000003da .L0 
     /tmp/ccIfjRGV.s:2521   .text.Lcd_Init:00000000000003da .L0 
     /tmp/ccIfjRGV.s:2527   .text.Lcd_Init:00000000000003dc .L0 
     /tmp/ccIfjRGV.s:2531   .text.Lcd_Init:00000000000003dc .L0 
     /tmp/ccIfjRGV.s:2532   .text.Lcd_Init:00000000000003dc .L0 
     /tmp/ccIfjRGV.s:2533   .text.Lcd_Init:00000000000003dc .L0 
     /tmp/ccIfjRGV.s:2535   .text.Lcd_Init:00000000000003de .L0 
     /tmp/ccIfjRGV.s:2538   .text.Lcd_Init:00000000000003e2 .L0 
     /tmp/ccIfjRGV.s:2541   .text.Lcd_Init:00000000000003ea .L0 
     /tmp/ccIfjRGV.s:2543   .text.Lcd_Init:00000000000003ec .L0 
     /tmp/ccIfjRGV.s:2545   .text.Lcd_Init:00000000000003ee .L0 
     /tmp/ccIfjRGV.s:2547   .text.Lcd_Init:00000000000003f2 .L0 
     /tmp/ccIfjRGV.s:2553   .text.Lcd_Init:0000000000000404 .L0 
     /tmp/ccIfjRGV.s:2562   .text.Lcd_Init:0000000000000408 .L0 
     /tmp/ccIfjRGV.s:2563   .text.Lcd_Init:0000000000000408 .L0 
     /tmp/ccIfjRGV.s:2565   .text.Lcd_Init:000000000000040c .L0 
     /tmp/ccIfjRGV.s:2575   .text.Lcd_Init:0000000000000418 .L0 
     /tmp/ccIfjRGV.s:2584   .text.Lcd_Init:000000000000041c .L0 
GAS LISTING /tmp/ccIfjRGV.s 			page 277


     /tmp/ccIfjRGV.s:2592   .text.Lcd_Init:0000000000000420 .L0 
     /tmp/ccIfjRGV.s:2595   .text.Lcd_Init:0000000000000426 .L0 
     /tmp/ccIfjRGV.s:2596   .text.Lcd_Init:0000000000000426 .L0 
     /tmp/ccIfjRGV.s:2602   .text.Lcd_Init:0000000000000428 .L0 
     /tmp/ccIfjRGV.s:2606   .text.Lcd_Init:0000000000000428 .L0 
     /tmp/ccIfjRGV.s:2607   .text.Lcd_Init:0000000000000428 .L0 
     /tmp/ccIfjRGV.s:2608   .text.Lcd_Init:0000000000000428 .L0 
     /tmp/ccIfjRGV.s:2610   .text.Lcd_Init:000000000000042a .L0 
     /tmp/ccIfjRGV.s:2613   .text.Lcd_Init:000000000000042e .L0 
     /tmp/ccIfjRGV.s:2616   .text.Lcd_Init:0000000000000436 .L0 
     /tmp/ccIfjRGV.s:2618   .text.Lcd_Init:0000000000000438 .L0 
     /tmp/ccIfjRGV.s:2620   .text.Lcd_Init:000000000000043a .L0 
     /tmp/ccIfjRGV.s:2622   .text.Lcd_Init:000000000000043e .L0 
     /tmp/ccIfjRGV.s:2628   .text.Lcd_Init:0000000000000450 .L0 
     /tmp/ccIfjRGV.s:2637   .text.Lcd_Init:0000000000000454 .L0 
     /tmp/ccIfjRGV.s:2638   .text.Lcd_Init:0000000000000454 .L0 
     /tmp/ccIfjRGV.s:2640   .text.Lcd_Init:0000000000000458 .L0 
     /tmp/ccIfjRGV.s:2650   .text.Lcd_Init:0000000000000464 .L0 
     /tmp/ccIfjRGV.s:2659   .text.Lcd_Init:0000000000000468 .L0 
     /tmp/ccIfjRGV.s:2667   .text.Lcd_Init:000000000000046c .L0 
     /tmp/ccIfjRGV.s:2670   .text.Lcd_Init:0000000000000472 .L0 
     /tmp/ccIfjRGV.s:2671   .text.Lcd_Init:0000000000000472 .L0 
     /tmp/ccIfjRGV.s:2677   .text.Lcd_Init:0000000000000474 .L0 
     /tmp/ccIfjRGV.s:2681   .text.Lcd_Init:0000000000000474 .L0 
     /tmp/ccIfjRGV.s:2682   .text.Lcd_Init:0000000000000474 .L0 
     /tmp/ccIfjRGV.s:2683   .text.Lcd_Init:0000000000000474 .L0 
     /tmp/ccIfjRGV.s:2685   .text.Lcd_Init:0000000000000476 .L0 
     /tmp/ccIfjRGV.s:2688   .text.Lcd_Init:000000000000047a .L0 
     /tmp/ccIfjRGV.s:2691   .text.Lcd_Init:0000000000000482 .L0 
     /tmp/ccIfjRGV.s:2693   .text.Lcd_Init:0000000000000484 .L0 
     /tmp/ccIfjRGV.s:2695   .text.Lcd_Init:0000000000000486 .L0 
     /tmp/ccIfjRGV.s:2697   .text.Lcd_Init:000000000000048a .L0 
     /tmp/ccIfjRGV.s:2703   .text.Lcd_Init:000000000000049c .L0 
     /tmp/ccIfjRGV.s:2712   .text.Lcd_Init:00000000000004a0 .L0 
     /tmp/ccIfjRGV.s:2713   .text.Lcd_Init:00000000000004a0 .L0 
     /tmp/ccIfjRGV.s:2715   .text.Lcd_Init:00000000000004a4 .L0 
     /tmp/ccIfjRGV.s:2725   .text.Lcd_Init:00000000000004b0 .L0 
     /tmp/ccIfjRGV.s:2734   .text.Lcd_Init:00000000000004b4 .L0 
     /tmp/ccIfjRGV.s:2742   .text.Lcd_Init:00000000000004b8 .L0 
     /tmp/ccIfjRGV.s:2745   .text.Lcd_Init:00000000000004be .L0 
     /tmp/ccIfjRGV.s:2746   .text.Lcd_Init:00000000000004be .L0 
     /tmp/ccIfjRGV.s:2752   .text.Lcd_Init:00000000000004c0 .L0 
     /tmp/ccIfjRGV.s:2756   .text.Lcd_Init:00000000000004c0 .L0 
     /tmp/ccIfjRGV.s:2757   .text.Lcd_Init:00000000000004c0 .L0 
     /tmp/ccIfjRGV.s:2758   .text.Lcd_Init:00000000000004c0 .L0 
     /tmp/ccIfjRGV.s:2760   .text.Lcd_Init:00000000000004c2 .L0 
     /tmp/ccIfjRGV.s:2763   .text.Lcd_Init:00000000000004c6 .L0 
     /tmp/ccIfjRGV.s:2766   .text.Lcd_Init:00000000000004ce .L0 
     /tmp/ccIfjRGV.s:2768   .text.Lcd_Init:00000000000004d0 .L0 
     /tmp/ccIfjRGV.s:2770   .text.Lcd_Init:00000000000004d2 .L0 
     /tmp/ccIfjRGV.s:2772   .text.Lcd_Init:00000000000004d6 .L0 
     /tmp/ccIfjRGV.s:2778   .text.Lcd_Init:00000000000004e8 .L0 
     /tmp/ccIfjRGV.s:2787   .text.Lcd_Init:00000000000004ec .L0 
     /tmp/ccIfjRGV.s:2788   .text.Lcd_Init:00000000000004ec .L0 
     /tmp/ccIfjRGV.s:2790   .text.Lcd_Init:00000000000004f0 .L0 
     /tmp/ccIfjRGV.s:2800   .text.Lcd_Init:00000000000004fc .L0 
     /tmp/ccIfjRGV.s:2809   .text.Lcd_Init:0000000000000500 .L0 
GAS LISTING /tmp/ccIfjRGV.s 			page 278


     /tmp/ccIfjRGV.s:2817   .text.Lcd_Init:0000000000000504 .L0 
     /tmp/ccIfjRGV.s:2820   .text.Lcd_Init:000000000000050a .L0 
     /tmp/ccIfjRGV.s:2821   .text.Lcd_Init:000000000000050a .L0 
     /tmp/ccIfjRGV.s:2827   .text.Lcd_Init:000000000000050c .L0 
     /tmp/ccIfjRGV.s:2831   .text.Lcd_Init:000000000000050c .L0 
     /tmp/ccIfjRGV.s:2832   .text.Lcd_Init:000000000000050c .L0 
     /tmp/ccIfjRGV.s:2833   .text.Lcd_Init:000000000000050c .L0 
     /tmp/ccIfjRGV.s:2835   .text.Lcd_Init:000000000000050e .L0 
     /tmp/ccIfjRGV.s:2838   .text.Lcd_Init:0000000000000512 .L0 
     /tmp/ccIfjRGV.s:2841   .text.Lcd_Init:000000000000051a .L0 
     /tmp/ccIfjRGV.s:2843   .text.Lcd_Init:000000000000051c .L0 
     /tmp/ccIfjRGV.s:2845   .text.Lcd_Init:000000000000051e .L0 
     /tmp/ccIfjRGV.s:2847   .text.Lcd_Init:0000000000000522 .L0 
     /tmp/ccIfjRGV.s:2853   .text.Lcd_Init:0000000000000534 .L0 
     /tmp/ccIfjRGV.s:2862   .text.Lcd_Init:0000000000000538 .L0 
     /tmp/ccIfjRGV.s:2863   .text.Lcd_Init:0000000000000538 .L0 
     /tmp/ccIfjRGV.s:2865   .text.Lcd_Init:000000000000053c .L0 
     /tmp/ccIfjRGV.s:2875   .text.Lcd_Init:0000000000000548 .L0 
     /tmp/ccIfjRGV.s:2884   .text.Lcd_Init:000000000000054c .L0 
     /tmp/ccIfjRGV.s:2892   .text.Lcd_Init:0000000000000550 .L0 
     /tmp/ccIfjRGV.s:2895   .text.Lcd_Init:0000000000000556 .L0 
     /tmp/ccIfjRGV.s:2896   .text.Lcd_Init:0000000000000556 .L0 
     /tmp/ccIfjRGV.s:2902   .text.Lcd_Init:0000000000000558 .L0 
     /tmp/ccIfjRGV.s:2906   .text.Lcd_Init:0000000000000558 .L0 
     /tmp/ccIfjRGV.s:2907   .text.Lcd_Init:0000000000000558 .L0 
     /tmp/ccIfjRGV.s:2908   .text.Lcd_Init:0000000000000558 .L0 
     /tmp/ccIfjRGV.s:2910   .text.Lcd_Init:000000000000055a .L0 
     /tmp/ccIfjRGV.s:2913   .text.Lcd_Init:000000000000055e .L0 
     /tmp/ccIfjRGV.s:2916   .text.Lcd_Init:0000000000000566 .L0 
     /tmp/ccIfjRGV.s:2918   .text.Lcd_Init:0000000000000568 .L0 
     /tmp/ccIfjRGV.s:2920   .text.Lcd_Init:000000000000056a .L0 
     /tmp/ccIfjRGV.s:2922   .text.Lcd_Init:000000000000056e .L0 
     /tmp/ccIfjRGV.s:2928   .text.Lcd_Init:0000000000000580 .L0 
     /tmp/ccIfjRGV.s:2937   .text.Lcd_Init:0000000000000584 .L0 
     /tmp/ccIfjRGV.s:2938   .text.Lcd_Init:0000000000000584 .L0 
     /tmp/ccIfjRGV.s:2940   .text.Lcd_Init:0000000000000588 .L0 
     /tmp/ccIfjRGV.s:2950   .text.Lcd_Init:0000000000000594 .L0 
     /tmp/ccIfjRGV.s:2959   .text.Lcd_Init:0000000000000598 .L0 
     /tmp/ccIfjRGV.s:2967   .text.Lcd_Init:000000000000059c .L0 
     /tmp/ccIfjRGV.s:2970   .text.Lcd_Init:00000000000005a2 .L0 
     /tmp/ccIfjRGV.s:2971   .text.Lcd_Init:00000000000005a2 .L0 
     /tmp/ccIfjRGV.s:2977   .text.Lcd_Init:00000000000005a4 .L0 
     /tmp/ccIfjRGV.s:2981   .text.Lcd_Init:00000000000005a4 .L0 
     /tmp/ccIfjRGV.s:2982   .text.Lcd_Init:00000000000005a4 .L0 
     /tmp/ccIfjRGV.s:2983   .text.Lcd_Init:00000000000005a4 .L0 
     /tmp/ccIfjRGV.s:2985   .text.Lcd_Init:00000000000005a6 .L0 
     /tmp/ccIfjRGV.s:2988   .text.Lcd_Init:00000000000005aa .L0 
     /tmp/ccIfjRGV.s:2991   .text.Lcd_Init:00000000000005b2 .L0 
     /tmp/ccIfjRGV.s:2993   .text.Lcd_Init:00000000000005b4 .L0 
     /tmp/ccIfjRGV.s:2995   .text.Lcd_Init:00000000000005b6 .L0 
     /tmp/ccIfjRGV.s:2997   .text.Lcd_Init:00000000000005ba .L0 
     /tmp/ccIfjRGV.s:3003   .text.Lcd_Init:00000000000005cc .L0 
     /tmp/ccIfjRGV.s:3012   .text.Lcd_Init:00000000000005d0 .L0 
     /tmp/ccIfjRGV.s:3013   .text.Lcd_Init:00000000000005d0 .L0 
     /tmp/ccIfjRGV.s:3015   .text.Lcd_Init:00000000000005d4 .L0 
     /tmp/ccIfjRGV.s:3025   .text.Lcd_Init:00000000000005e0 .L0 
     /tmp/ccIfjRGV.s:3034   .text.Lcd_Init:00000000000005e4 .L0 
GAS LISTING /tmp/ccIfjRGV.s 			page 279


     /tmp/ccIfjRGV.s:3042   .text.Lcd_Init:00000000000005e8 .L0 
     /tmp/ccIfjRGV.s:3045   .text.Lcd_Init:00000000000005ee .L0 
     /tmp/ccIfjRGV.s:3046   .text.Lcd_Init:00000000000005ee .L0 
     /tmp/ccIfjRGV.s:3052   .text.Lcd_Init:00000000000005f0 .L0 
     /tmp/ccIfjRGV.s:3056   .text.Lcd_Init:00000000000005f0 .L0 
     /tmp/ccIfjRGV.s:3057   .text.Lcd_Init:00000000000005f0 .L0 
     /tmp/ccIfjRGV.s:3058   .text.Lcd_Init:00000000000005f0 .L0 
     /tmp/ccIfjRGV.s:3060   .text.Lcd_Init:00000000000005f2 .L0 
     /tmp/ccIfjRGV.s:3063   .text.Lcd_Init:00000000000005f6 .L0 
     /tmp/ccIfjRGV.s:3066   .text.Lcd_Init:00000000000005fe .L0 
     /tmp/ccIfjRGV.s:3068   .text.Lcd_Init:0000000000000600 .L0 
     /tmp/ccIfjRGV.s:3070   .text.Lcd_Init:0000000000000602 .L0 
     /tmp/ccIfjRGV.s:3072   .text.Lcd_Init:0000000000000606 .L0 
     /tmp/ccIfjRGV.s:3078   .text.Lcd_Init:0000000000000618 .L0 
     /tmp/ccIfjRGV.s:3087   .text.Lcd_Init:000000000000061c .L0 
     /tmp/ccIfjRGV.s:3088   .text.Lcd_Init:000000000000061c .L0 
     /tmp/ccIfjRGV.s:3090   .text.Lcd_Init:0000000000000620 .L0 
     /tmp/ccIfjRGV.s:3100   .text.Lcd_Init:000000000000062c .L0 
     /tmp/ccIfjRGV.s:3109   .text.Lcd_Init:0000000000000630 .L0 
     /tmp/ccIfjRGV.s:3117   .text.Lcd_Init:0000000000000634 .L0 
     /tmp/ccIfjRGV.s:3120   .text.Lcd_Init:000000000000063a .L0 
     /tmp/ccIfjRGV.s:3121   .text.Lcd_Init:000000000000063a .L0 
     /tmp/ccIfjRGV.s:3127   .text.Lcd_Init:000000000000063c .L0 
     /tmp/ccIfjRGV.s:3131   .text.Lcd_Init:000000000000063c .L0 
     /tmp/ccIfjRGV.s:3132   .text.Lcd_Init:000000000000063c .L0 
     /tmp/ccIfjRGV.s:3133   .text.Lcd_Init:000000000000063c .L0 
     /tmp/ccIfjRGV.s:3135   .text.Lcd_Init:000000000000063e .L0 
     /tmp/ccIfjRGV.s:3138   .text.Lcd_Init:0000000000000642 .L0 
     /tmp/ccIfjRGV.s:3141   .text.Lcd_Init:000000000000064a .L0 
     /tmp/ccIfjRGV.s:3143   .text.Lcd_Init:000000000000064c .L0 
     /tmp/ccIfjRGV.s:3145   .text.Lcd_Init:000000000000064e .L0 
     /tmp/ccIfjRGV.s:3147   .text.Lcd_Init:0000000000000652 .L0 
     /tmp/ccIfjRGV.s:3153   .text.Lcd_Init:0000000000000664 .L0 
     /tmp/ccIfjRGV.s:3162   .text.Lcd_Init:0000000000000668 .L0 
     /tmp/ccIfjRGV.s:3163   .text.Lcd_Init:0000000000000668 .L0 
     /tmp/ccIfjRGV.s:3165   .text.Lcd_Init:000000000000066c .L0 
     /tmp/ccIfjRGV.s:3175   .text.Lcd_Init:0000000000000678 .L0 
     /tmp/ccIfjRGV.s:3184   .text.Lcd_Init:000000000000067c .L0 
     /tmp/ccIfjRGV.s:3192   .text.Lcd_Init:0000000000000680 .L0 
     /tmp/ccIfjRGV.s:3195   .text.Lcd_Init:0000000000000686 .L0 
     /tmp/ccIfjRGV.s:3196   .text.Lcd_Init:0000000000000686 .L0 
     /tmp/ccIfjRGV.s:3202   .text.Lcd_Init:0000000000000688 .L0 
     /tmp/ccIfjRGV.s:3206   .text.Lcd_Init:0000000000000688 .L0 
     /tmp/ccIfjRGV.s:3207   .text.Lcd_Init:0000000000000688 .L0 
     /tmp/ccIfjRGV.s:3208   .text.Lcd_Init:0000000000000688 .L0 
     /tmp/ccIfjRGV.s:3210   .text.Lcd_Init:000000000000068a .L0 
     /tmp/ccIfjRGV.s:3213   .text.Lcd_Init:000000000000068e .L0 
     /tmp/ccIfjRGV.s:3216   .text.Lcd_Init:0000000000000696 .L0 
     /tmp/ccIfjRGV.s:3218   .text.Lcd_Init:0000000000000698 .L0 
     /tmp/ccIfjRGV.s:3220   .text.Lcd_Init:000000000000069a .L0 
     /tmp/ccIfjRGV.s:3222   .text.Lcd_Init:000000000000069e .L0 
     /tmp/ccIfjRGV.s:3228   .text.Lcd_Init:00000000000006b0 .L0 
     /tmp/ccIfjRGV.s:3237   .text.Lcd_Init:00000000000006b4 .L0 
     /tmp/ccIfjRGV.s:3238   .text.Lcd_Init:00000000000006b4 .L0 
     /tmp/ccIfjRGV.s:3240   .text.Lcd_Init:00000000000006b8 .L0 
     /tmp/ccIfjRGV.s:3250   .text.Lcd_Init:00000000000006c4 .L0 
     /tmp/ccIfjRGV.s:3259   .text.Lcd_Init:00000000000006c8 .L0 
GAS LISTING /tmp/ccIfjRGV.s 			page 280


     /tmp/ccIfjRGV.s:3267   .text.Lcd_Init:00000000000006cc .L0 
     /tmp/ccIfjRGV.s:3270   .text.Lcd_Init:00000000000006d2 .L0 
     /tmp/ccIfjRGV.s:3271   .text.Lcd_Init:00000000000006d2 .L0 
     /tmp/ccIfjRGV.s:3277   .text.Lcd_Init:00000000000006d4 .L0 
     /tmp/ccIfjRGV.s:3281   .text.Lcd_Init:00000000000006d4 .L0 
     /tmp/ccIfjRGV.s:3282   .text.Lcd_Init:00000000000006d4 .L0 
     /tmp/ccIfjRGV.s:3283   .text.Lcd_Init:00000000000006d4 .L0 
     /tmp/ccIfjRGV.s:3285   .text.Lcd_Init:00000000000006d6 .L0 
     /tmp/ccIfjRGV.s:3288   .text.Lcd_Init:00000000000006da .L0 
     /tmp/ccIfjRGV.s:3291   .text.Lcd_Init:00000000000006e2 .L0 
     /tmp/ccIfjRGV.s:3293   .text.Lcd_Init:00000000000006e4 .L0 
     /tmp/ccIfjRGV.s:3295   .text.Lcd_Init:00000000000006e6 .L0 
     /tmp/ccIfjRGV.s:3297   .text.Lcd_Init:00000000000006ea .L0 
     /tmp/ccIfjRGV.s:3303   .text.Lcd_Init:00000000000006fc .L0 
     /tmp/ccIfjRGV.s:3312   .text.Lcd_Init:0000000000000700 .L0 
     /tmp/ccIfjRGV.s:3313   .text.Lcd_Init:0000000000000700 .L0 
     /tmp/ccIfjRGV.s:3315   .text.Lcd_Init:0000000000000704 .L0 
     /tmp/ccIfjRGV.s:3325   .text.Lcd_Init:0000000000000710 .L0 
     /tmp/ccIfjRGV.s:3334   .text.Lcd_Init:0000000000000714 .L0 
     /tmp/ccIfjRGV.s:3342   .text.Lcd_Init:0000000000000718 .L0 
     /tmp/ccIfjRGV.s:3345   .text.Lcd_Init:000000000000071e .L0 
     /tmp/ccIfjRGV.s:3346   .text.Lcd_Init:000000000000071e .L0 
     /tmp/ccIfjRGV.s:3352   .text.Lcd_Init:0000000000000720 .L0 
     /tmp/ccIfjRGV.s:3356   .text.Lcd_Init:0000000000000720 .L0 
     /tmp/ccIfjRGV.s:3357   .text.Lcd_Init:0000000000000720 .L0 
     /tmp/ccIfjRGV.s:3358   .text.Lcd_Init:0000000000000720 .L0 
     /tmp/ccIfjRGV.s:3360   .text.Lcd_Init:0000000000000722 .L0 
     /tmp/ccIfjRGV.s:3363   .text.Lcd_Init:0000000000000726 .L0 
     /tmp/ccIfjRGV.s:3366   .text.Lcd_Init:000000000000072e .L0 
     /tmp/ccIfjRGV.s:3368   .text.Lcd_Init:0000000000000730 .L0 
     /tmp/ccIfjRGV.s:3370   .text.Lcd_Init:0000000000000732 .L0 
     /tmp/ccIfjRGV.s:3372   .text.Lcd_Init:0000000000000736 .L0 
     /tmp/ccIfjRGV.s:3378   .text.Lcd_Init:0000000000000748 .L0 
     /tmp/ccIfjRGV.s:3387   .text.Lcd_Init:000000000000074c .L0 
     /tmp/ccIfjRGV.s:3388   .text.Lcd_Init:000000000000074c .L0 
     /tmp/ccIfjRGV.s:3390   .text.Lcd_Init:0000000000000750 .L0 
     /tmp/ccIfjRGV.s:3400   .text.Lcd_Init:000000000000075c .L0 
     /tmp/ccIfjRGV.s:3409   .text.Lcd_Init:0000000000000760 .L0 
     /tmp/ccIfjRGV.s:3417   .text.Lcd_Init:0000000000000764 .L0 
     /tmp/ccIfjRGV.s:3420   .text.Lcd_Init:000000000000076a .L0 
     /tmp/ccIfjRGV.s:3421   .text.Lcd_Init:000000000000076a .L0 
     /tmp/ccIfjRGV.s:3427   .text.Lcd_Init:000000000000076c .L0 
     /tmp/ccIfjRGV.s:3431   .text.Lcd_Init:000000000000076c .L0 
     /tmp/ccIfjRGV.s:3432   .text.Lcd_Init:000000000000076c .L0 
     /tmp/ccIfjRGV.s:3433   .text.Lcd_Init:000000000000076c .L0 
     /tmp/ccIfjRGV.s:3435   .text.Lcd_Init:000000000000076e .L0 
     /tmp/ccIfjRGV.s:3438   .text.Lcd_Init:0000000000000772 .L0 
     /tmp/ccIfjRGV.s:3441   .text.Lcd_Init:000000000000077a .L0 
     /tmp/ccIfjRGV.s:3443   .text.Lcd_Init:000000000000077c .L0 
     /tmp/ccIfjRGV.s:3445   .text.Lcd_Init:000000000000077e .L0 
     /tmp/ccIfjRGV.s:3447   .text.Lcd_Init:0000000000000782 .L0 
     /tmp/ccIfjRGV.s:3453   .text.Lcd_Init:0000000000000794 .L0 
     /tmp/ccIfjRGV.s:3462   .text.Lcd_Init:0000000000000798 .L0 
     /tmp/ccIfjRGV.s:3463   .text.Lcd_Init:0000000000000798 .L0 
     /tmp/ccIfjRGV.s:3465   .text.Lcd_Init:000000000000079c .L0 
     /tmp/ccIfjRGV.s:3475   .text.Lcd_Init:00000000000007a8 .L0 
     /tmp/ccIfjRGV.s:3484   .text.Lcd_Init:00000000000007ac .L0 
GAS LISTING /tmp/ccIfjRGV.s 			page 281


     /tmp/ccIfjRGV.s:3492   .text.Lcd_Init:00000000000007b0 .L0 
     /tmp/ccIfjRGV.s:3495   .text.Lcd_Init:00000000000007b6 .L0 
     /tmp/ccIfjRGV.s:3496   .text.Lcd_Init:00000000000007b6 .L0 
     /tmp/ccIfjRGV.s:3502   .text.Lcd_Init:00000000000007b8 .L0 
     /tmp/ccIfjRGV.s:3506   .text.Lcd_Init:00000000000007b8 .L0 
     /tmp/ccIfjRGV.s:3507   .text.Lcd_Init:00000000000007b8 .L0 
     /tmp/ccIfjRGV.s:3508   .text.Lcd_Init:00000000000007b8 .L0 
     /tmp/ccIfjRGV.s:3510   .text.Lcd_Init:00000000000007ba .L0 
     /tmp/ccIfjRGV.s:3513   .text.Lcd_Init:00000000000007be .L0 
     /tmp/ccIfjRGV.s:3516   .text.Lcd_Init:00000000000007c6 .L0 
     /tmp/ccIfjRGV.s:3518   .text.Lcd_Init:00000000000007c8 .L0 
     /tmp/ccIfjRGV.s:3520   .text.Lcd_Init:00000000000007ca .L0 
     /tmp/ccIfjRGV.s:3522   .text.Lcd_Init:00000000000007ce .L0 
     /tmp/ccIfjRGV.s:3528   .text.Lcd_Init:00000000000007e0 .L0 
     /tmp/ccIfjRGV.s:3537   .text.Lcd_Init:00000000000007e4 .L0 
     /tmp/ccIfjRGV.s:3538   .text.Lcd_Init:00000000000007e4 .L0 
     /tmp/ccIfjRGV.s:3540   .text.Lcd_Init:00000000000007e8 .L0 
     /tmp/ccIfjRGV.s:3550   .text.Lcd_Init:00000000000007f4 .L0 
     /tmp/ccIfjRGV.s:3559   .text.Lcd_Init:00000000000007f8 .L0 
     /tmp/ccIfjRGV.s:3567   .text.Lcd_Init:00000000000007fc .L0 
     /tmp/ccIfjRGV.s:3570   .text.Lcd_Init:0000000000000802 .L0 
     /tmp/ccIfjRGV.s:3571   .text.Lcd_Init:0000000000000802 .L0 
     /tmp/ccIfjRGV.s:3577   .text.Lcd_Init:0000000000000804 .L0 
     /tmp/ccIfjRGV.s:3581   .text.Lcd_Init:0000000000000804 .L0 
     /tmp/ccIfjRGV.s:3582   .text.Lcd_Init:0000000000000804 .L0 
     /tmp/ccIfjRGV.s:3583   .text.Lcd_Init:0000000000000804 .L0 
     /tmp/ccIfjRGV.s:3585   .text.Lcd_Init:0000000000000806 .L0 
     /tmp/ccIfjRGV.s:3588   .text.Lcd_Init:000000000000080a .L0 
     /tmp/ccIfjRGV.s:3591   .text.Lcd_Init:0000000000000812 .L0 
     /tmp/ccIfjRGV.s:3593   .text.Lcd_Init:0000000000000814 .L0 
     /tmp/ccIfjRGV.s:3595   .text.Lcd_Init:0000000000000816 .L0 
     /tmp/ccIfjRGV.s:3597   .text.Lcd_Init:000000000000081a .L0 
     /tmp/ccIfjRGV.s:3603   .text.Lcd_Init:000000000000082c .L0 
     /tmp/ccIfjRGV.s:3612   .text.Lcd_Init:0000000000000830 .L0 
     /tmp/ccIfjRGV.s:3613   .text.Lcd_Init:0000000000000830 .L0 
     /tmp/ccIfjRGV.s:3615   .text.Lcd_Init:0000000000000834 .L0 
     /tmp/ccIfjRGV.s:3625   .text.Lcd_Init:0000000000000840 .L0 
     /tmp/ccIfjRGV.s:3634   .text.Lcd_Init:0000000000000844 .L0 
     /tmp/ccIfjRGV.s:3642   .text.Lcd_Init:0000000000000848 .L0 
     /tmp/ccIfjRGV.s:3645   .text.Lcd_Init:000000000000084e .L0 
     /tmp/ccIfjRGV.s:3646   .text.Lcd_Init:000000000000084e .L0 
     /tmp/ccIfjRGV.s:3652   .text.Lcd_Init:0000000000000850 .L0 
     /tmp/ccIfjRGV.s:3656   .text.Lcd_Init:0000000000000850 .L0 
     /tmp/ccIfjRGV.s:3657   .text.Lcd_Init:0000000000000850 .L0 
     /tmp/ccIfjRGV.s:3658   .text.Lcd_Init:0000000000000850 .L0 
     /tmp/ccIfjRGV.s:3660   .text.Lcd_Init:0000000000000852 .L0 
     /tmp/ccIfjRGV.s:3663   .text.Lcd_Init:0000000000000856 .L0 
     /tmp/ccIfjRGV.s:3666   .text.Lcd_Init:000000000000085e .L0 
     /tmp/ccIfjRGV.s:3668   .text.Lcd_Init:0000000000000860 .L0 
     /tmp/ccIfjRGV.s:3670   .text.Lcd_Init:0000000000000862 .L0 
     /tmp/ccIfjRGV.s:3672   .text.Lcd_Init:0000000000000866 .L0 
     /tmp/ccIfjRGV.s:3678   .text.Lcd_Init:0000000000000878 .L0 
     /tmp/ccIfjRGV.s:3687   .text.Lcd_Init:000000000000087c .L0 
     /tmp/ccIfjRGV.s:3688   .text.Lcd_Init:000000000000087c .L0 
     /tmp/ccIfjRGV.s:3690   .text.Lcd_Init:0000000000000880 .L0 
     /tmp/ccIfjRGV.s:3700   .text.Lcd_Init:000000000000088c .L0 
     /tmp/ccIfjRGV.s:3709   .text.Lcd_Init:0000000000000890 .L0 
GAS LISTING /tmp/ccIfjRGV.s 			page 282


     /tmp/ccIfjRGV.s:3717   .text.Lcd_Init:0000000000000894 .L0 
     /tmp/ccIfjRGV.s:3720   .text.Lcd_Init:000000000000089a .L0 
     /tmp/ccIfjRGV.s:3721   .text.Lcd_Init:000000000000089a .L0 
     /tmp/ccIfjRGV.s:3727   .text.Lcd_Init:000000000000089c .L0 
     /tmp/ccIfjRGV.s:3731   .text.Lcd_Init:000000000000089c .L0 
     /tmp/ccIfjRGV.s:3732   .text.Lcd_Init:000000000000089c .L0 
     /tmp/ccIfjRGV.s:3733   .text.Lcd_Init:000000000000089c .L0 
     /tmp/ccIfjRGV.s:3735   .text.Lcd_Init:000000000000089e .L0 
     /tmp/ccIfjRGV.s:3738   .text.Lcd_Init:00000000000008a2 .L0 
     /tmp/ccIfjRGV.s:3741   .text.Lcd_Init:00000000000008aa .L0 
     /tmp/ccIfjRGV.s:3743   .text.Lcd_Init:00000000000008ac .L0 
     /tmp/ccIfjRGV.s:3745   .text.Lcd_Init:00000000000008ae .L0 
     /tmp/ccIfjRGV.s:3747   .text.Lcd_Init:00000000000008b2 .L0 
     /tmp/ccIfjRGV.s:3753   .text.Lcd_Init:00000000000008c4 .L0 
     /tmp/ccIfjRGV.s:3762   .text.Lcd_Init:00000000000008c8 .L0 
     /tmp/ccIfjRGV.s:3763   .text.Lcd_Init:00000000000008c8 .L0 
     /tmp/ccIfjRGV.s:3765   .text.Lcd_Init:00000000000008cc .L0 
     /tmp/ccIfjRGV.s:3775   .text.Lcd_Init:00000000000008d8 .L0 
     /tmp/ccIfjRGV.s:3784   .text.Lcd_Init:00000000000008dc .L0 
     /tmp/ccIfjRGV.s:3792   .text.Lcd_Init:00000000000008e0 .L0 
     /tmp/ccIfjRGV.s:3795   .text.Lcd_Init:00000000000008e6 .L0 
     /tmp/ccIfjRGV.s:3796   .text.Lcd_Init:00000000000008e6 .L0 
     /tmp/ccIfjRGV.s:3802   .text.Lcd_Init:00000000000008e8 .L0 
     /tmp/ccIfjRGV.s:3806   .text.Lcd_Init:00000000000008e8 .L0 
     /tmp/ccIfjRGV.s:3807   .text.Lcd_Init:00000000000008e8 .L0 
     /tmp/ccIfjRGV.s:3808   .text.Lcd_Init:00000000000008e8 .L0 
     /tmp/ccIfjRGV.s:3810   .text.Lcd_Init:00000000000008ea .L0 
     /tmp/ccIfjRGV.s:3813   .text.Lcd_Init:00000000000008ee .L0 
     /tmp/ccIfjRGV.s:3816   .text.Lcd_Init:00000000000008f6 .L0 
     /tmp/ccIfjRGV.s:3818   .text.Lcd_Init:00000000000008f8 .L0 
     /tmp/ccIfjRGV.s:3820   .text.Lcd_Init:00000000000008fa .L0 
     /tmp/ccIfjRGV.s:3822   .text.Lcd_Init:00000000000008fe .L0 
     /tmp/ccIfjRGV.s:3828   .text.Lcd_Init:0000000000000910 .L0 
     /tmp/ccIfjRGV.s:3837   .text.Lcd_Init:0000000000000914 .L0 
     /tmp/ccIfjRGV.s:3838   .text.Lcd_Init:0000000000000914 .L0 
     /tmp/ccIfjRGV.s:3840   .text.Lcd_Init:0000000000000918 .L0 
     /tmp/ccIfjRGV.s:3850   .text.Lcd_Init:0000000000000924 .L0 
     /tmp/ccIfjRGV.s:3859   .text.Lcd_Init:0000000000000928 .L0 
     /tmp/ccIfjRGV.s:3867   .text.Lcd_Init:000000000000092c .L0 
     /tmp/ccIfjRGV.s:3870   .text.Lcd_Init:0000000000000932 .L0 
     /tmp/ccIfjRGV.s:3871   .text.Lcd_Init:0000000000000932 .L0 
     /tmp/ccIfjRGV.s:3877   .text.Lcd_Init:0000000000000934 .L0 
     /tmp/ccIfjRGV.s:3881   .text.Lcd_Init:0000000000000934 .L0 
     /tmp/ccIfjRGV.s:3882   .text.Lcd_Init:0000000000000934 .L0 
     /tmp/ccIfjRGV.s:3883   .text.Lcd_Init:0000000000000934 .L0 
     /tmp/ccIfjRGV.s:3885   .text.Lcd_Init:0000000000000936 .L0 
     /tmp/ccIfjRGV.s:3888   .text.Lcd_Init:000000000000093a .L0 
     /tmp/ccIfjRGV.s:3891   .text.Lcd_Init:0000000000000942 .L0 
     /tmp/ccIfjRGV.s:3893   .text.Lcd_Init:0000000000000944 .L0 
     /tmp/ccIfjRGV.s:3895   .text.Lcd_Init:0000000000000946 .L0 
     /tmp/ccIfjRGV.s:3897   .text.Lcd_Init:000000000000094a .L0 
     /tmp/ccIfjRGV.s:3903   .text.Lcd_Init:000000000000095c .L0 
     /tmp/ccIfjRGV.s:3912   .text.Lcd_Init:0000000000000960 .L0 
     /tmp/ccIfjRGV.s:3913   .text.Lcd_Init:0000000000000960 .L0 
     /tmp/ccIfjRGV.s:3915   .text.Lcd_Init:0000000000000964 .L0 
     /tmp/ccIfjRGV.s:3925   .text.Lcd_Init:0000000000000970 .L0 
     /tmp/ccIfjRGV.s:3934   .text.Lcd_Init:0000000000000974 .L0 
GAS LISTING /tmp/ccIfjRGV.s 			page 283


     /tmp/ccIfjRGV.s:3942   .text.Lcd_Init:0000000000000978 .L0 
     /tmp/ccIfjRGV.s:3945   .text.Lcd_Init:000000000000097e .L0 
     /tmp/ccIfjRGV.s:3946   .text.Lcd_Init:000000000000097e .L0 
     /tmp/ccIfjRGV.s:3952   .text.Lcd_Init:0000000000000980 .L0 
     /tmp/ccIfjRGV.s:3956   .text.Lcd_Init:0000000000000980 .L0 
     /tmp/ccIfjRGV.s:3957   .text.Lcd_Init:0000000000000980 .L0 
     /tmp/ccIfjRGV.s:3958   .text.Lcd_Init:0000000000000980 .L0 
     /tmp/ccIfjRGV.s:3960   .text.Lcd_Init:0000000000000982 .L0 
     /tmp/ccIfjRGV.s:3963   .text.Lcd_Init:0000000000000986 .L0 
     /tmp/ccIfjRGV.s:3966   .text.Lcd_Init:000000000000098e .L0 
     /tmp/ccIfjRGV.s:3968   .text.Lcd_Init:0000000000000990 .L0 
     /tmp/ccIfjRGV.s:3970   .text.Lcd_Init:0000000000000992 .L0 
     /tmp/ccIfjRGV.s:3972   .text.Lcd_Init:0000000000000996 .L0 
     /tmp/ccIfjRGV.s:3978   .text.Lcd_Init:00000000000009a8 .L0 
     /tmp/ccIfjRGV.s:3987   .text.Lcd_Init:00000000000009ac .L0 
     /tmp/ccIfjRGV.s:3988   .text.Lcd_Init:00000000000009ac .L0 
     /tmp/ccIfjRGV.s:3990   .text.Lcd_Init:00000000000009b0 .L0 
     /tmp/ccIfjRGV.s:4000   .text.Lcd_Init:00000000000009bc .L0 
     /tmp/ccIfjRGV.s:4009   .text.Lcd_Init:00000000000009c0 .L0 
     /tmp/ccIfjRGV.s:4017   .text.Lcd_Init:00000000000009c4 .L0 
     /tmp/ccIfjRGV.s:4020   .text.Lcd_Init:00000000000009ca .L0 
     /tmp/ccIfjRGV.s:4021   .text.Lcd_Init:00000000000009ca .L0 
     /tmp/ccIfjRGV.s:4027   .text.Lcd_Init:00000000000009cc .L0 
     /tmp/ccIfjRGV.s:4031   .text.Lcd_Init:00000000000009cc .L0 
     /tmp/ccIfjRGV.s:4032   .text.Lcd_Init:00000000000009cc .L0 
     /tmp/ccIfjRGV.s:4033   .text.Lcd_Init:00000000000009cc .L0 
     /tmp/ccIfjRGV.s:4035   .text.Lcd_Init:00000000000009ce .L0 
     /tmp/ccIfjRGV.s:4038   .text.Lcd_Init:00000000000009d2 .L0 
     /tmp/ccIfjRGV.s:4041   .text.Lcd_Init:00000000000009da .L0 
     /tmp/ccIfjRGV.s:4043   .text.Lcd_Init:00000000000009dc .L0 
     /tmp/ccIfjRGV.s:4045   .text.Lcd_Init:00000000000009de .L0 
     /tmp/ccIfjRGV.s:4047   .text.Lcd_Init:00000000000009e2 .L0 
     /tmp/ccIfjRGV.s:4053   .text.Lcd_Init:00000000000009f4 .L0 
     /tmp/ccIfjRGV.s:4062   .text.Lcd_Init:00000000000009f8 .L0 
     /tmp/ccIfjRGV.s:4063   .text.Lcd_Init:00000000000009f8 .L0 
     /tmp/ccIfjRGV.s:4065   .text.Lcd_Init:00000000000009fc .L0 
     /tmp/ccIfjRGV.s:4075   .text.Lcd_Init:0000000000000a08 .L0 
     /tmp/ccIfjRGV.s:4084   .text.Lcd_Init:0000000000000a0c .L0 
     /tmp/ccIfjRGV.s:4092   .text.Lcd_Init:0000000000000a10 .L0 
     /tmp/ccIfjRGV.s:4095   .text.Lcd_Init:0000000000000a16 .L0 
     /tmp/ccIfjRGV.s:4096   .text.Lcd_Init:0000000000000a16 .L0 
     /tmp/ccIfjRGV.s:4102   .text.Lcd_Init:0000000000000a18 .L0 
     /tmp/ccIfjRGV.s:4106   .text.Lcd_Init:0000000000000a18 .L0 
     /tmp/ccIfjRGV.s:4107   .text.Lcd_Init:0000000000000a18 .L0 
     /tmp/ccIfjRGV.s:4108   .text.Lcd_Init:0000000000000a18 .L0 
     /tmp/ccIfjRGV.s:4110   .text.Lcd_Init:0000000000000a1a .L0 
     /tmp/ccIfjRGV.s:4113   .text.Lcd_Init:0000000000000a1e .L0 
     /tmp/ccIfjRGV.s:4116   .text.Lcd_Init:0000000000000a26 .L0 
     /tmp/ccIfjRGV.s:4118   .text.Lcd_Init:0000000000000a28 .L0 
     /tmp/ccIfjRGV.s:4120   .text.Lcd_Init:0000000000000a2a .L0 
     /tmp/ccIfjRGV.s:4122   .text.Lcd_Init:0000000000000a2e .L0 
     /tmp/ccIfjRGV.s:4128   .text.Lcd_Init:0000000000000a40 .L0 
     /tmp/ccIfjRGV.s:4137   .text.Lcd_Init:0000000000000a44 .L0 
     /tmp/ccIfjRGV.s:4138   .text.Lcd_Init:0000000000000a44 .L0 
     /tmp/ccIfjRGV.s:4140   .text.Lcd_Init:0000000000000a48 .L0 
     /tmp/ccIfjRGV.s:4150   .text.Lcd_Init:0000000000000a54 .L0 
     /tmp/ccIfjRGV.s:4159   .text.Lcd_Init:0000000000000a58 .L0 
GAS LISTING /tmp/ccIfjRGV.s 			page 284


     /tmp/ccIfjRGV.s:4167   .text.Lcd_Init:0000000000000a5c .L0 
     /tmp/ccIfjRGV.s:4170   .text.Lcd_Init:0000000000000a62 .L0 
     /tmp/ccIfjRGV.s:4171   .text.Lcd_Init:0000000000000a62 .L0 
     /tmp/ccIfjRGV.s:4177   .text.Lcd_Init:0000000000000a64 .L0 
     /tmp/ccIfjRGV.s:4181   .text.Lcd_Init:0000000000000a64 .L0 
     /tmp/ccIfjRGV.s:4182   .text.Lcd_Init:0000000000000a64 .L0 
     /tmp/ccIfjRGV.s:4183   .text.Lcd_Init:0000000000000a64 .L0 
     /tmp/ccIfjRGV.s:4185   .text.Lcd_Init:0000000000000a66 .L0 
     /tmp/ccIfjRGV.s:4188   .text.Lcd_Init:0000000000000a6a .L0 
     /tmp/ccIfjRGV.s:4191   .text.Lcd_Init:0000000000000a72 .L0 
     /tmp/ccIfjRGV.s:4193   .text.Lcd_Init:0000000000000a74 .L0 
     /tmp/ccIfjRGV.s:4195   .text.Lcd_Init:0000000000000a76 .L0 
     /tmp/ccIfjRGV.s:4197   .text.Lcd_Init:0000000000000a7a .L0 
     /tmp/ccIfjRGV.s:4203   .text.Lcd_Init:0000000000000a8c .L0 
     /tmp/ccIfjRGV.s:4212   .text.Lcd_Init:0000000000000a90 .L0 
     /tmp/ccIfjRGV.s:4213   .text.Lcd_Init:0000000000000a90 .L0 
     /tmp/ccIfjRGV.s:4215   .text.Lcd_Init:0000000000000a94 .L0 
     /tmp/ccIfjRGV.s:4225   .text.Lcd_Init:0000000000000aa0 .L0 
     /tmp/ccIfjRGV.s:4234   .text.Lcd_Init:0000000000000aa4 .L0 
     /tmp/ccIfjRGV.s:4242   .text.Lcd_Init:0000000000000aa8 .L0 
     /tmp/ccIfjRGV.s:4245   .text.Lcd_Init:0000000000000aae .L0 
     /tmp/ccIfjRGV.s:4246   .text.Lcd_Init:0000000000000aae .L0 
     /tmp/ccIfjRGV.s:4252   .text.Lcd_Init:0000000000000ab0 .L0 
     /tmp/ccIfjRGV.s:4256   .text.Lcd_Init:0000000000000ab0 .L0 
     /tmp/ccIfjRGV.s:4257   .text.Lcd_Init:0000000000000ab0 .L0 
     /tmp/ccIfjRGV.s:4258   .text.Lcd_Init:0000000000000ab0 .L0 
     /tmp/ccIfjRGV.s:4260   .text.Lcd_Init:0000000000000ab2 .L0 
     /tmp/ccIfjRGV.s:4263   .text.Lcd_Init:0000000000000ab6 .L0 
     /tmp/ccIfjRGV.s:4266   .text.Lcd_Init:0000000000000abe .L0 
     /tmp/ccIfjRGV.s:4268   .text.Lcd_Init:0000000000000ac0 .L0 
     /tmp/ccIfjRGV.s:4270   .text.Lcd_Init:0000000000000ac2 .L0 
     /tmp/ccIfjRGV.s:4272   .text.Lcd_Init:0000000000000ac6 .L0 
     /tmp/ccIfjRGV.s:4278   .text.Lcd_Init:0000000000000ad8 .L0 
     /tmp/ccIfjRGV.s:4287   .text.Lcd_Init:0000000000000adc .L0 
     /tmp/ccIfjRGV.s:4288   .text.Lcd_Init:0000000000000adc .L0 
     /tmp/ccIfjRGV.s:4290   .text.Lcd_Init:0000000000000ae0 .L0 
     /tmp/ccIfjRGV.s:4300   .text.Lcd_Init:0000000000000aec .L0 
     /tmp/ccIfjRGV.s:4309   .text.Lcd_Init:0000000000000af0 .L0 
     /tmp/ccIfjRGV.s:4317   .text.Lcd_Init:0000000000000af4 .L0 
     /tmp/ccIfjRGV.s:4320   .text.Lcd_Init:0000000000000afa .L0 
     /tmp/ccIfjRGV.s:4321   .text.Lcd_Init:0000000000000afa .L0 
     /tmp/ccIfjRGV.s:4327   .text.Lcd_Init:0000000000000afc .L0 
     /tmp/ccIfjRGV.s:4331   .text.Lcd_Init:0000000000000afc .L0 
     /tmp/ccIfjRGV.s:4332   .text.Lcd_Init:0000000000000afc .L0 
     /tmp/ccIfjRGV.s:4333   .text.Lcd_Init:0000000000000afc .L0 
     /tmp/ccIfjRGV.s:4335   .text.Lcd_Init:0000000000000afe .L0 
     /tmp/ccIfjRGV.s:4338   .text.Lcd_Init:0000000000000b02 .L0 
     /tmp/ccIfjRGV.s:4341   .text.Lcd_Init:0000000000000b0a .L0 
     /tmp/ccIfjRGV.s:4343   .text.Lcd_Init:0000000000000b0c .L0 
     /tmp/ccIfjRGV.s:4345   .text.Lcd_Init:0000000000000b0e .L0 
     /tmp/ccIfjRGV.s:4347   .text.Lcd_Init:0000000000000b12 .L0 
     /tmp/ccIfjRGV.s:4353   .text.Lcd_Init:0000000000000b24 .L0 
     /tmp/ccIfjRGV.s:4362   .text.Lcd_Init:0000000000000b28 .L0 
     /tmp/ccIfjRGV.s:4363   .text.Lcd_Init:0000000000000b28 .L0 
     /tmp/ccIfjRGV.s:4365   .text.Lcd_Init:0000000000000b2c .L0 
     /tmp/ccIfjRGV.s:4375   .text.Lcd_Init:0000000000000b38 .L0 
     /tmp/ccIfjRGV.s:4384   .text.Lcd_Init:0000000000000b3c .L0 
GAS LISTING /tmp/ccIfjRGV.s 			page 285


     /tmp/ccIfjRGV.s:4392   .text.Lcd_Init:0000000000000b40 .L0 
     /tmp/ccIfjRGV.s:4395   .text.Lcd_Init:0000000000000b46 .L0 
     /tmp/ccIfjRGV.s:4396   .text.Lcd_Init:0000000000000b46 .L0 
     /tmp/ccIfjRGV.s:4402   .text.Lcd_Init:0000000000000b48 .L0 
     /tmp/ccIfjRGV.s:4406   .text.Lcd_Init:0000000000000b48 .L0 
     /tmp/ccIfjRGV.s:4407   .text.Lcd_Init:0000000000000b48 .L0 
     /tmp/ccIfjRGV.s:4408   .text.Lcd_Init:0000000000000b48 .L0 
     /tmp/ccIfjRGV.s:4410   .text.Lcd_Init:0000000000000b4a .L0 
     /tmp/ccIfjRGV.s:4413   .text.Lcd_Init:0000000000000b4e .L0 
     /tmp/ccIfjRGV.s:4416   .text.Lcd_Init:0000000000000b56 .L0 
     /tmp/ccIfjRGV.s:4418   .text.Lcd_Init:0000000000000b58 .L0 
     /tmp/ccIfjRGV.s:4420   .text.Lcd_Init:0000000000000b5a .L0 
     /tmp/ccIfjRGV.s:4422   .text.Lcd_Init:0000000000000b5e .L0 
     /tmp/ccIfjRGV.s:4428   .text.Lcd_Init:0000000000000b70 .L0 
     /tmp/ccIfjRGV.s:4437   .text.Lcd_Init:0000000000000b74 .L0 
     /tmp/ccIfjRGV.s:4438   .text.Lcd_Init:0000000000000b74 .L0 
     /tmp/ccIfjRGV.s:4440   .text.Lcd_Init:0000000000000b78 .L0 
     /tmp/ccIfjRGV.s:4450   .text.Lcd_Init:0000000000000b84 .L0 
     /tmp/ccIfjRGV.s:4459   .text.Lcd_Init:0000000000000b88 .L0 
     /tmp/ccIfjRGV.s:4467   .text.Lcd_Init:0000000000000b8c .L0 
     /tmp/ccIfjRGV.s:4470   .text.Lcd_Init:0000000000000b92 .L0 
     /tmp/ccIfjRGV.s:4471   .text.Lcd_Init:0000000000000b92 .L0 
     /tmp/ccIfjRGV.s:4477   .text.Lcd_Init:0000000000000b94 .L0 
     /tmp/ccIfjRGV.s:4481   .text.Lcd_Init:0000000000000b94 .L0 
     /tmp/ccIfjRGV.s:4482   .text.Lcd_Init:0000000000000b94 .L0 
     /tmp/ccIfjRGV.s:4483   .text.Lcd_Init:0000000000000b94 .L0 
     /tmp/ccIfjRGV.s:4485   .text.Lcd_Init:0000000000000b96 .L0 
     /tmp/ccIfjRGV.s:4488   .text.Lcd_Init:0000000000000b9a .L0 
     /tmp/ccIfjRGV.s:4491   .text.Lcd_Init:0000000000000ba2 .L0 
     /tmp/ccIfjRGV.s:4493   .text.Lcd_Init:0000000000000ba4 .L0 
     /tmp/ccIfjRGV.s:4495   .text.Lcd_Init:0000000000000ba6 .L0 
     /tmp/ccIfjRGV.s:4497   .text.Lcd_Init:0000000000000baa .L0 
     /tmp/ccIfjRGV.s:4503   .text.Lcd_Init:0000000000000bbc .L0 
     /tmp/ccIfjRGV.s:4512   .text.Lcd_Init:0000000000000bc0 .L0 
     /tmp/ccIfjRGV.s:4513   .text.Lcd_Init:0000000000000bc0 .L0 
     /tmp/ccIfjRGV.s:4515   .text.Lcd_Init:0000000000000bc4 .L0 
     /tmp/ccIfjRGV.s:4525   .text.Lcd_Init:0000000000000bd0 .L0 
     /tmp/ccIfjRGV.s:4534   .text.Lcd_Init:0000000000000bd4 .L0 
     /tmp/ccIfjRGV.s:4542   .text.Lcd_Init:0000000000000bd8 .L0 
     /tmp/ccIfjRGV.s:4545   .text.Lcd_Init:0000000000000bde .L0 
     /tmp/ccIfjRGV.s:4546   .text.Lcd_Init:0000000000000bde .L0 
     /tmp/ccIfjRGV.s:4552   .text.Lcd_Init:0000000000000be0 .L0 
     /tmp/ccIfjRGV.s:4556   .text.Lcd_Init:0000000000000be0 .L0 
     /tmp/ccIfjRGV.s:4557   .text.Lcd_Init:0000000000000be0 .L0 
     /tmp/ccIfjRGV.s:4558   .text.Lcd_Init:0000000000000be0 .L0 
     /tmp/ccIfjRGV.s:4560   .text.Lcd_Init:0000000000000be2 .L0 
     /tmp/ccIfjRGV.s:4563   .text.Lcd_Init:0000000000000be6 .L0 
     /tmp/ccIfjRGV.s:4566   .text.Lcd_Init:0000000000000bee .L0 
     /tmp/ccIfjRGV.s:4568   .text.Lcd_Init:0000000000000bf0 .L0 
     /tmp/ccIfjRGV.s:4570   .text.Lcd_Init:0000000000000bf2 .L0 
     /tmp/ccIfjRGV.s:4572   .text.Lcd_Init:0000000000000bf6 .L0 
     /tmp/ccIfjRGV.s:4578   .text.Lcd_Init:0000000000000c08 .L0 
     /tmp/ccIfjRGV.s:4587   .text.Lcd_Init:0000000000000c0c .L0 
     /tmp/ccIfjRGV.s:4588   .text.Lcd_Init:0000000000000c0c .L0 
     /tmp/ccIfjRGV.s:4590   .text.Lcd_Init:0000000000000c10 .L0 
     /tmp/ccIfjRGV.s:4600   .text.Lcd_Init:0000000000000c1c .L0 
     /tmp/ccIfjRGV.s:4609   .text.Lcd_Init:0000000000000c20 .L0 
GAS LISTING /tmp/ccIfjRGV.s 			page 286


     /tmp/ccIfjRGV.s:4617   .text.Lcd_Init:0000000000000c24 .L0 
     /tmp/ccIfjRGV.s:4620   .text.Lcd_Init:0000000000000c2a .L0 
     /tmp/ccIfjRGV.s:4621   .text.Lcd_Init:0000000000000c2a .L0 
     /tmp/ccIfjRGV.s:4627   .text.Lcd_Init:0000000000000c2c .L0 
     /tmp/ccIfjRGV.s:4631   .text.Lcd_Init:0000000000000c2c .L0 
     /tmp/ccIfjRGV.s:4632   .text.Lcd_Init:0000000000000c2c .L0 
     /tmp/ccIfjRGV.s:4633   .text.Lcd_Init:0000000000000c2c .L0 
     /tmp/ccIfjRGV.s:4635   .text.Lcd_Init:0000000000000c2e .L0 
     /tmp/ccIfjRGV.s:4638   .text.Lcd_Init:0000000000000c32 .L0 
     /tmp/ccIfjRGV.s:4641   .text.Lcd_Init:0000000000000c3a .L0 
     /tmp/ccIfjRGV.s:4643   .text.Lcd_Init:0000000000000c3c .L0 
     /tmp/ccIfjRGV.s:4645   .text.Lcd_Init:0000000000000c3e .L0 
     /tmp/ccIfjRGV.s:4647   .text.Lcd_Init:0000000000000c42 .L0 
     /tmp/ccIfjRGV.s:4653   .text.Lcd_Init:0000000000000c54 .L0 
     /tmp/ccIfjRGV.s:4662   .text.Lcd_Init:0000000000000c58 .L0 
     /tmp/ccIfjRGV.s:4663   .text.Lcd_Init:0000000000000c58 .L0 
     /tmp/ccIfjRGV.s:4665   .text.Lcd_Init:0000000000000c5c .L0 
     /tmp/ccIfjRGV.s:4675   .text.Lcd_Init:0000000000000c68 .L0 
     /tmp/ccIfjRGV.s:4684   .text.Lcd_Init:0000000000000c6c .L0 
     /tmp/ccIfjRGV.s:4692   .text.Lcd_Init:0000000000000c70 .L0 
     /tmp/ccIfjRGV.s:4695   .text.Lcd_Init:0000000000000c76 .L0 
     /tmp/ccIfjRGV.s:4696   .text.Lcd_Init:0000000000000c76 .L0 
     /tmp/ccIfjRGV.s:4702   .text.Lcd_Init:0000000000000c78 .L0 
     /tmp/ccIfjRGV.s:4706   .text.Lcd_Init:0000000000000c78 .L0 
     /tmp/ccIfjRGV.s:4707   .text.Lcd_Init:0000000000000c78 .L0 
     /tmp/ccIfjRGV.s:4708   .text.Lcd_Init:0000000000000c78 .L0 
     /tmp/ccIfjRGV.s:4710   .text.Lcd_Init:0000000000000c7a .L0 
     /tmp/ccIfjRGV.s:4713   .text.Lcd_Init:0000000000000c7e .L0 
     /tmp/ccIfjRGV.s:4716   .text.Lcd_Init:0000000000000c86 .L0 
     /tmp/ccIfjRGV.s:4718   .text.Lcd_Init:0000000000000c88 .L0 
     /tmp/ccIfjRGV.s:4720   .text.Lcd_Init:0000000000000c8a .L0 
     /tmp/ccIfjRGV.s:4722   .text.Lcd_Init:0000000000000c8e .L0 
     /tmp/ccIfjRGV.s:4728   .text.Lcd_Init:0000000000000ca0 .L0 
     /tmp/ccIfjRGV.s:4737   .text.Lcd_Init:0000000000000ca4 .L0 
     /tmp/ccIfjRGV.s:4738   .text.Lcd_Init:0000000000000ca4 .L0 
     /tmp/ccIfjRGV.s:4740   .text.Lcd_Init:0000000000000ca8 .L0 
     /tmp/ccIfjRGV.s:4750   .text.Lcd_Init:0000000000000cb4 .L0 
     /tmp/ccIfjRGV.s:4759   .text.Lcd_Init:0000000000000cb8 .L0 
     /tmp/ccIfjRGV.s:4767   .text.Lcd_Init:0000000000000cbc .L0 
     /tmp/ccIfjRGV.s:4770   .text.Lcd_Init:0000000000000cc2 .L0 
     /tmp/ccIfjRGV.s:4771   .text.Lcd_Init:0000000000000cc2 .L0 
     /tmp/ccIfjRGV.s:4777   .text.Lcd_Init:0000000000000cc4 .L0 
     /tmp/ccIfjRGV.s:4781   .text.Lcd_Init:0000000000000cc4 .L0 
     /tmp/ccIfjRGV.s:4782   .text.Lcd_Init:0000000000000cc4 .L0 
     /tmp/ccIfjRGV.s:4783   .text.Lcd_Init:0000000000000cc4 .L0 
     /tmp/ccIfjRGV.s:4785   .text.Lcd_Init:0000000000000cc6 .L0 
     /tmp/ccIfjRGV.s:4788   .text.Lcd_Init:0000000000000cca .L0 
     /tmp/ccIfjRGV.s:4791   .text.Lcd_Init:0000000000000cd2 .L0 
     /tmp/ccIfjRGV.s:4793   .text.Lcd_Init:0000000000000cd4 .L0 
     /tmp/ccIfjRGV.s:4795   .text.Lcd_Init:0000000000000cd6 .L0 
     /tmp/ccIfjRGV.s:4797   .text.Lcd_Init:0000000000000cda .L0 
     /tmp/ccIfjRGV.s:4803   .text.Lcd_Init:0000000000000cec .L0 
     /tmp/ccIfjRGV.s:4812   .text.Lcd_Init:0000000000000cf0 .L0 
     /tmp/ccIfjRGV.s:4813   .text.Lcd_Init:0000000000000cf0 .L0 
     /tmp/ccIfjRGV.s:4815   .text.Lcd_Init:0000000000000cf4 .L0 
     /tmp/ccIfjRGV.s:4825   .text.Lcd_Init:0000000000000d00 .L0 
     /tmp/ccIfjRGV.s:4834   .text.Lcd_Init:0000000000000d04 .L0 
GAS LISTING /tmp/ccIfjRGV.s 			page 287


     /tmp/ccIfjRGV.s:4842   .text.Lcd_Init:0000000000000d08 .L0 
     /tmp/ccIfjRGV.s:4845   .text.Lcd_Init:0000000000000d0e .L0 
     /tmp/ccIfjRGV.s:4846   .text.Lcd_Init:0000000000000d0e .L0 
     /tmp/ccIfjRGV.s:4852   .text.Lcd_Init:0000000000000d10 .L0 
     /tmp/ccIfjRGV.s:4856   .text.Lcd_Init:0000000000000d10 .L0 
     /tmp/ccIfjRGV.s:4857   .text.Lcd_Init:0000000000000d10 .L0 
     /tmp/ccIfjRGV.s:4858   .text.Lcd_Init:0000000000000d10 .L0 
     /tmp/ccIfjRGV.s:4860   .text.Lcd_Init:0000000000000d12 .L0 
     /tmp/ccIfjRGV.s:4863   .text.Lcd_Init:0000000000000d16 .L0 
     /tmp/ccIfjRGV.s:4866   .text.Lcd_Init:0000000000000d1e .L0 
     /tmp/ccIfjRGV.s:4868   .text.Lcd_Init:0000000000000d20 .L0 
     /tmp/ccIfjRGV.s:4870   .text.Lcd_Init:0000000000000d22 .L0 
     /tmp/ccIfjRGV.s:4872   .text.Lcd_Init:0000000000000d26 .L0 
     /tmp/ccIfjRGV.s:4878   .text.Lcd_Init:0000000000000d38 .L0 
     /tmp/ccIfjRGV.s:4887   .text.Lcd_Init:0000000000000d3c .L0 
     /tmp/ccIfjRGV.s:4888   .text.Lcd_Init:0000000000000d3c .L0 
     /tmp/ccIfjRGV.s:4890   .text.Lcd_Init:0000000000000d40 .L0 
     /tmp/ccIfjRGV.s:4900   .text.Lcd_Init:0000000000000d4c .L0 
     /tmp/ccIfjRGV.s:4909   .text.Lcd_Init:0000000000000d50 .L0 
     /tmp/ccIfjRGV.s:4917   .text.Lcd_Init:0000000000000d54 .L0 
     /tmp/ccIfjRGV.s:4920   .text.Lcd_Init:0000000000000d5a .L0 
     /tmp/ccIfjRGV.s:4921   .text.Lcd_Init:0000000000000d5a .L0 
     /tmp/ccIfjRGV.s:4927   .text.Lcd_Init:0000000000000d5c .L0 
     /tmp/ccIfjRGV.s:4931   .text.Lcd_Init:0000000000000d5c .L0 
     /tmp/ccIfjRGV.s:4932   .text.Lcd_Init:0000000000000d5c .L0 
     /tmp/ccIfjRGV.s:4933   .text.Lcd_Init:0000000000000d5c .L0 
     /tmp/ccIfjRGV.s:4935   .text.Lcd_Init:0000000000000d5e .L0 
     /tmp/ccIfjRGV.s:4938   .text.Lcd_Init:0000000000000d62 .L0 
     /tmp/ccIfjRGV.s:4941   .text.Lcd_Init:0000000000000d6a .L0 
     /tmp/ccIfjRGV.s:4943   .text.Lcd_Init:0000000000000d6c .L0 
     /tmp/ccIfjRGV.s:4945   .text.Lcd_Init:0000000000000d6e .L0 
     /tmp/ccIfjRGV.s:4947   .text.Lcd_Init:0000000000000d72 .L0 
     /tmp/ccIfjRGV.s:4953   .text.Lcd_Init:0000000000000d84 .L0 
     /tmp/ccIfjRGV.s:4962   .text.Lcd_Init:0000000000000d88 .L0 
     /tmp/ccIfjRGV.s:4963   .text.Lcd_Init:0000000000000d88 .L0 
     /tmp/ccIfjRGV.s:4965   .text.Lcd_Init:0000000000000d8c .L0 
     /tmp/ccIfjRGV.s:4975   .text.Lcd_Init:0000000000000d98 .L0 
     /tmp/ccIfjRGV.s:4984   .text.Lcd_Init:0000000000000d9c .L0 
     /tmp/ccIfjRGV.s:4992   .text.Lcd_Init:0000000000000da0 .L0 
     /tmp/ccIfjRGV.s:4995   .text.Lcd_Init:0000000000000da6 .L0 
     /tmp/ccIfjRGV.s:4996   .text.Lcd_Init:0000000000000da6 .L0 
     /tmp/ccIfjRGV.s:5002   .text.Lcd_Init:0000000000000da8 .L0 
     /tmp/ccIfjRGV.s:5006   .text.Lcd_Init:0000000000000da8 .L0 
     /tmp/ccIfjRGV.s:5007   .text.Lcd_Init:0000000000000da8 .L0 
     /tmp/ccIfjRGV.s:5008   .text.Lcd_Init:0000000000000da8 .L0 
     /tmp/ccIfjRGV.s:5010   .text.Lcd_Init:0000000000000daa .L0 
     /tmp/ccIfjRGV.s:5013   .text.Lcd_Init:0000000000000dae .L0 
     /tmp/ccIfjRGV.s:5016   .text.Lcd_Init:0000000000000db6 .L0 
     /tmp/ccIfjRGV.s:5018   .text.Lcd_Init:0000000000000db8 .L0 
     /tmp/ccIfjRGV.s:5020   .text.Lcd_Init:0000000000000dba .L0 
     /tmp/ccIfjRGV.s:5022   .text.Lcd_Init:0000000000000dbe .L0 
     /tmp/ccIfjRGV.s:5028   .text.Lcd_Init:0000000000000dd0 .L0 
     /tmp/ccIfjRGV.s:5037   .text.Lcd_Init:0000000000000dd4 .L0 
     /tmp/ccIfjRGV.s:5038   .text.Lcd_Init:0000000000000dd4 .L0 
     /tmp/ccIfjRGV.s:5040   .text.Lcd_Init:0000000000000dd8 .L0 
     /tmp/ccIfjRGV.s:5050   .text.Lcd_Init:0000000000000de4 .L0 
     /tmp/ccIfjRGV.s:5059   .text.Lcd_Init:0000000000000de8 .L0 
GAS LISTING /tmp/ccIfjRGV.s 			page 288


     /tmp/ccIfjRGV.s:5067   .text.Lcd_Init:0000000000000dec .L0 
     /tmp/ccIfjRGV.s:5070   .text.Lcd_Init:0000000000000df2 .L0 
     /tmp/ccIfjRGV.s:5071   .text.Lcd_Init:0000000000000df2 .L0 
     /tmp/ccIfjRGV.s:5077   .text.Lcd_Init:0000000000000df4 .L0 
     /tmp/ccIfjRGV.s:5081   .text.Lcd_Init:0000000000000df4 .L0 
     /tmp/ccIfjRGV.s:5082   .text.Lcd_Init:0000000000000df4 .L0 
     /tmp/ccIfjRGV.s:5083   .text.Lcd_Init:0000000000000df4 .L0 
     /tmp/ccIfjRGV.s:5085   .text.Lcd_Init:0000000000000df6 .L0 
     /tmp/ccIfjRGV.s:5088   .text.Lcd_Init:0000000000000dfa .L0 
     /tmp/ccIfjRGV.s:5091   .text.Lcd_Init:0000000000000e02 .L0 
     /tmp/ccIfjRGV.s:5093   .text.Lcd_Init:0000000000000e04 .L0 
     /tmp/ccIfjRGV.s:5095   .text.Lcd_Init:0000000000000e06 .L0 
     /tmp/ccIfjRGV.s:5097   .text.Lcd_Init:0000000000000e0a .L0 
     /tmp/ccIfjRGV.s:5103   .text.Lcd_Init:0000000000000e1c .L0 
     /tmp/ccIfjRGV.s:5112   .text.Lcd_Init:0000000000000e20 .L0 
     /tmp/ccIfjRGV.s:5113   .text.Lcd_Init:0000000000000e20 .L0 
     /tmp/ccIfjRGV.s:5115   .text.Lcd_Init:0000000000000e24 .L0 
     /tmp/ccIfjRGV.s:5125   .text.Lcd_Init:0000000000000e30 .L0 
     /tmp/ccIfjRGV.s:5134   .text.Lcd_Init:0000000000000e34 .L0 
     /tmp/ccIfjRGV.s:5142   .text.Lcd_Init:0000000000000e38 .L0 
     /tmp/ccIfjRGV.s:5145   .text.Lcd_Init:0000000000000e3e .L0 
     /tmp/ccIfjRGV.s:5146   .text.Lcd_Init:0000000000000e3e .L0 
     /tmp/ccIfjRGV.s:5152   .text.Lcd_Init:0000000000000e40 .L0 
     /tmp/ccIfjRGV.s:5156   .text.Lcd_Init:0000000000000e40 .L0 
     /tmp/ccIfjRGV.s:5157   .text.Lcd_Init:0000000000000e40 .L0 
     /tmp/ccIfjRGV.s:5158   .text.Lcd_Init:0000000000000e40 .L0 
     /tmp/ccIfjRGV.s:5160   .text.Lcd_Init:0000000000000e42 .L0 
     /tmp/ccIfjRGV.s:5163   .text.Lcd_Init:0000000000000e46 .L0 
     /tmp/ccIfjRGV.s:5166   .text.Lcd_Init:0000000000000e4e .L0 
     /tmp/ccIfjRGV.s:5168   .text.Lcd_Init:0000000000000e50 .L0 
     /tmp/ccIfjRGV.s:5170   .text.Lcd_Init:0000000000000e52 .L0 
     /tmp/ccIfjRGV.s:5172   .text.Lcd_Init:0000000000000e56 .L0 
     /tmp/ccIfjRGV.s:5178   .text.Lcd_Init:0000000000000e68 .L0 
     /tmp/ccIfjRGV.s:5187   .text.Lcd_Init:0000000000000e6c .L0 
     /tmp/ccIfjRGV.s:5188   .text.Lcd_Init:0000000000000e6c .L0 
     /tmp/ccIfjRGV.s:5190   .text.Lcd_Init:0000000000000e70 .L0 
     /tmp/ccIfjRGV.s:5200   .text.Lcd_Init:0000000000000e7c .L0 
     /tmp/ccIfjRGV.s:5209   .text.Lcd_Init:0000000000000e80 .L0 
     /tmp/ccIfjRGV.s:5217   .text.Lcd_Init:0000000000000e84 .L0 
     /tmp/ccIfjRGV.s:5220   .text.Lcd_Init:0000000000000e8a .L0 
     /tmp/ccIfjRGV.s:5221   .text.Lcd_Init:0000000000000e8a .L0 
     /tmp/ccIfjRGV.s:5227   .text.Lcd_Init:0000000000000e8c .L0 
     /tmp/ccIfjRGV.s:5231   .text.Lcd_Init:0000000000000e8c .L0 
     /tmp/ccIfjRGV.s:5232   .text.Lcd_Init:0000000000000e8c .L0 
     /tmp/ccIfjRGV.s:5233   .text.Lcd_Init:0000000000000e8c .L0 
     /tmp/ccIfjRGV.s:5235   .text.Lcd_Init:0000000000000e8e .L0 
     /tmp/ccIfjRGV.s:5238   .text.Lcd_Init:0000000000000e92 .L0 
     /tmp/ccIfjRGV.s:5241   .text.Lcd_Init:0000000000000e9a .L0 
     /tmp/ccIfjRGV.s:5243   .text.Lcd_Init:0000000000000e9c .L0 
     /tmp/ccIfjRGV.s:5245   .text.Lcd_Init:0000000000000e9e .L0 
     /tmp/ccIfjRGV.s:5247   .text.Lcd_Init:0000000000000ea2 .L0 
     /tmp/ccIfjRGV.s:5253   .text.Lcd_Init:0000000000000eb4 .L0 
     /tmp/ccIfjRGV.s:5262   .text.Lcd_Init:0000000000000eb8 .L0 
     /tmp/ccIfjRGV.s:5263   .text.Lcd_Init:0000000000000eb8 .L0 
     /tmp/ccIfjRGV.s:5265   .text.Lcd_Init:0000000000000ebc .L0 
     /tmp/ccIfjRGV.s:5275   .text.Lcd_Init:0000000000000ec8 .L0 
     /tmp/ccIfjRGV.s:5284   .text.Lcd_Init:0000000000000ecc .L0 
GAS LISTING /tmp/ccIfjRGV.s 			page 289


     /tmp/ccIfjRGV.s:5292   .text.Lcd_Init:0000000000000ed0 .L0 
     /tmp/ccIfjRGV.s:5295   .text.Lcd_Init:0000000000000ed6 .L0 
     /tmp/ccIfjRGV.s:5296   .text.Lcd_Init:0000000000000ed6 .L0 
     /tmp/ccIfjRGV.s:5302   .text.Lcd_Init:0000000000000ed8 .L0 
     /tmp/ccIfjRGV.s:5306   .text.Lcd_Init:0000000000000ed8 .L0 
     /tmp/ccIfjRGV.s:5307   .text.Lcd_Init:0000000000000ed8 .L0 
     /tmp/ccIfjRGV.s:5308   .text.Lcd_Init:0000000000000ed8 .L0 
     /tmp/ccIfjRGV.s:5310   .text.Lcd_Init:0000000000000eda .L0 
     /tmp/ccIfjRGV.s:5313   .text.Lcd_Init:0000000000000ede .L0 
     /tmp/ccIfjRGV.s:5316   .text.Lcd_Init:0000000000000ee6 .L0 
     /tmp/ccIfjRGV.s:5318   .text.Lcd_Init:0000000000000ee8 .L0 
     /tmp/ccIfjRGV.s:5320   .text.Lcd_Init:0000000000000eea .L0 
     /tmp/ccIfjRGV.s:5322   .text.Lcd_Init:0000000000000eee .L0 
     /tmp/ccIfjRGV.s:5328   .text.Lcd_Init:0000000000000f00 .L0 
     /tmp/ccIfjRGV.s:5337   .text.Lcd_Init:0000000000000f04 .L0 
     /tmp/ccIfjRGV.s:5338   .text.Lcd_Init:0000000000000f04 .L0 
     /tmp/ccIfjRGV.s:5340   .text.Lcd_Init:0000000000000f08 .L0 
     /tmp/ccIfjRGV.s:5350   .text.Lcd_Init:0000000000000f14 .L0 
     /tmp/ccIfjRGV.s:5359   .text.Lcd_Init:0000000000000f18 .L0 
     /tmp/ccIfjRGV.s:5367   .text.Lcd_Init:0000000000000f1c .L0 
     /tmp/ccIfjRGV.s:5370   .text.Lcd_Init:0000000000000f22 .L0 
     /tmp/ccIfjRGV.s:5371   .text.Lcd_Init:0000000000000f22 .L0 
     /tmp/ccIfjRGV.s:5377   .text.Lcd_Init:0000000000000f24 .L0 
     /tmp/ccIfjRGV.s:5381   .text.Lcd_Init:0000000000000f24 .L0 
     /tmp/ccIfjRGV.s:5382   .text.Lcd_Init:0000000000000f24 .L0 
     /tmp/ccIfjRGV.s:5383   .text.Lcd_Init:0000000000000f24 .L0 
     /tmp/ccIfjRGV.s:5385   .text.Lcd_Init:0000000000000f26 .L0 
     /tmp/ccIfjRGV.s:5388   .text.Lcd_Init:0000000000000f2a .L0 
     /tmp/ccIfjRGV.s:5391   .text.Lcd_Init:0000000000000f32 .L0 
     /tmp/ccIfjRGV.s:5393   .text.Lcd_Init:0000000000000f34 .L0 
     /tmp/ccIfjRGV.s:5395   .text.Lcd_Init:0000000000000f36 .L0 
     /tmp/ccIfjRGV.s:5397   .text.Lcd_Init:0000000000000f3a .L0 
     /tmp/ccIfjRGV.s:5403   .text.Lcd_Init:0000000000000f4c .L0 
     /tmp/ccIfjRGV.s:5412   .text.Lcd_Init:0000000000000f50 .L0 
     /tmp/ccIfjRGV.s:5413   .text.Lcd_Init:0000000000000f50 .L0 
     /tmp/ccIfjRGV.s:5415   .text.Lcd_Init:0000000000000f54 .L0 
     /tmp/ccIfjRGV.s:5425   .text.Lcd_Init:0000000000000f60 .L0 
     /tmp/ccIfjRGV.s:5434   .text.Lcd_Init:0000000000000f64 .L0 
     /tmp/ccIfjRGV.s:5442   .text.Lcd_Init:0000000000000f68 .L0 
     /tmp/ccIfjRGV.s:5445   .text.Lcd_Init:0000000000000f6e .L0 
     /tmp/ccIfjRGV.s:5446   .text.Lcd_Init:0000000000000f6e .L0 
     /tmp/ccIfjRGV.s:5452   .text.Lcd_Init:0000000000000f70 .L0 
     /tmp/ccIfjRGV.s:5456   .text.Lcd_Init:0000000000000f70 .L0 
     /tmp/ccIfjRGV.s:5457   .text.Lcd_Init:0000000000000f70 .L0 
     /tmp/ccIfjRGV.s:5458   .text.Lcd_Init:0000000000000f70 .L0 
     /tmp/ccIfjRGV.s:5460   .text.Lcd_Init:0000000000000f72 .L0 
     /tmp/ccIfjRGV.s:5463   .text.Lcd_Init:0000000000000f76 .L0 
     /tmp/ccIfjRGV.s:5466   .text.Lcd_Init:0000000000000f7e .L0 
     /tmp/ccIfjRGV.s:5468   .text.Lcd_Init:0000000000000f80 .L0 
     /tmp/ccIfjRGV.s:5470   .text.Lcd_Init:0000000000000f82 .L0 
     /tmp/ccIfjRGV.s:5472   .text.Lcd_Init:0000000000000f86 .L0 
     /tmp/ccIfjRGV.s:5478   .text.Lcd_Init:0000000000000f98 .L0 
     /tmp/ccIfjRGV.s:5487   .text.Lcd_Init:0000000000000f9c .L0 
     /tmp/ccIfjRGV.s:5488   .text.Lcd_Init:0000000000000f9c .L0 
     /tmp/ccIfjRGV.s:5490   .text.Lcd_Init:0000000000000fa0 .L0 
     /tmp/ccIfjRGV.s:5500   .text.Lcd_Init:0000000000000fac .L0 
     /tmp/ccIfjRGV.s:5509   .text.Lcd_Init:0000000000000fb0 .L0 
GAS LISTING /tmp/ccIfjRGV.s 			page 290


     /tmp/ccIfjRGV.s:5517   .text.Lcd_Init:0000000000000fb4 .L0 
     /tmp/ccIfjRGV.s:5520   .text.Lcd_Init:0000000000000fba .L0 
     /tmp/ccIfjRGV.s:5521   .text.Lcd_Init:0000000000000fba .L0 
     /tmp/ccIfjRGV.s:5527   .text.Lcd_Init:0000000000000fbc .L0 
     /tmp/ccIfjRGV.s:5531   .text.Lcd_Init:0000000000000fbc .L0 
     /tmp/ccIfjRGV.s:5532   .text.Lcd_Init:0000000000000fbc .L0 
     /tmp/ccIfjRGV.s:5533   .text.Lcd_Init:0000000000000fbc .L0 
     /tmp/ccIfjRGV.s:5535   .text.Lcd_Init:0000000000000fbe .L0 
     /tmp/ccIfjRGV.s:5538   .text.Lcd_Init:0000000000000fc2 .L0 
     /tmp/ccIfjRGV.s:5541   .text.Lcd_Init:0000000000000fca .L0 
     /tmp/ccIfjRGV.s:5543   .text.Lcd_Init:0000000000000fcc .L0 
     /tmp/ccIfjRGV.s:5545   .text.Lcd_Init:0000000000000fce .L0 
     /tmp/ccIfjRGV.s:5547   .text.Lcd_Init:0000000000000fd2 .L0 
     /tmp/ccIfjRGV.s:5553   .text.Lcd_Init:0000000000000fe4 .L0 
     /tmp/ccIfjRGV.s:5562   .text.Lcd_Init:0000000000000fe8 .L0 
     /tmp/ccIfjRGV.s:5563   .text.Lcd_Init:0000000000000fe8 .L0 
     /tmp/ccIfjRGV.s:5565   .text.Lcd_Init:0000000000000fec .L0 
     /tmp/ccIfjRGV.s:5575   .text.Lcd_Init:0000000000000ff8 .L0 
     /tmp/ccIfjRGV.s:5584   .text.Lcd_Init:0000000000000ffc .L0 
     /tmp/ccIfjRGV.s:5592   .text.Lcd_Init:0000000000001000 .L0 
     /tmp/ccIfjRGV.s:5595   .text.Lcd_Init:0000000000001006 .L0 
     /tmp/ccIfjRGV.s:5596   .text.Lcd_Init:0000000000001006 .L0 
     /tmp/ccIfjRGV.s:5602   .text.Lcd_Init:0000000000001008 .L0 
     /tmp/ccIfjRGV.s:5606   .text.Lcd_Init:0000000000001008 .L0 
     /tmp/ccIfjRGV.s:5607   .text.Lcd_Init:0000000000001008 .L0 
     /tmp/ccIfjRGV.s:5608   .text.Lcd_Init:0000000000001008 .L0 
     /tmp/ccIfjRGV.s:5610   .text.Lcd_Init:000000000000100a .L0 
     /tmp/ccIfjRGV.s:5613   .text.Lcd_Init:000000000000100e .L0 
     /tmp/ccIfjRGV.s:5616   .text.Lcd_Init:0000000000001016 .L0 
     /tmp/ccIfjRGV.s:5618   .text.Lcd_Init:0000000000001018 .L0 
     /tmp/ccIfjRGV.s:5620   .text.Lcd_Init:000000000000101a .L0 
     /tmp/ccIfjRGV.s:5622   .text.Lcd_Init:000000000000101e .L0 
     /tmp/ccIfjRGV.s:5628   .text.Lcd_Init:0000000000001030 .L0 
     /tmp/ccIfjRGV.s:5637   .text.Lcd_Init:0000000000001034 .L0 
     /tmp/ccIfjRGV.s:5638   .text.Lcd_Init:0000000000001034 .L0 
     /tmp/ccIfjRGV.s:5640   .text.Lcd_Init:0000000000001038 .L0 
     /tmp/ccIfjRGV.s:5650   .text.Lcd_Init:0000000000001044 .L0 
     /tmp/ccIfjRGV.s:5659   .text.Lcd_Init:0000000000001048 .L0 
     /tmp/ccIfjRGV.s:5667   .text.Lcd_Init:000000000000104c .L0 
     /tmp/ccIfjRGV.s:5670   .text.Lcd_Init:0000000000001052 .L0 
     /tmp/ccIfjRGV.s:5671   .text.Lcd_Init:0000000000001052 .L0 
     /tmp/ccIfjRGV.s:5677   .text.Lcd_Init:0000000000001054 .L0 
     /tmp/ccIfjRGV.s:5681   .text.Lcd_Init:0000000000001054 .L0 
     /tmp/ccIfjRGV.s:5682   .text.Lcd_Init:0000000000001054 .L0 
     /tmp/ccIfjRGV.s:5683   .text.Lcd_Init:0000000000001054 .L0 
     /tmp/ccIfjRGV.s:5685   .text.Lcd_Init:0000000000001056 .L0 
     /tmp/ccIfjRGV.s:5688   .text.Lcd_Init:000000000000105a .L0 
     /tmp/ccIfjRGV.s:5691   .text.Lcd_Init:0000000000001062 .L0 
     /tmp/ccIfjRGV.s:5693   .text.Lcd_Init:0000000000001064 .L0 
     /tmp/ccIfjRGV.s:5695   .text.Lcd_Init:0000000000001066 .L0 
     /tmp/ccIfjRGV.s:5697   .text.Lcd_Init:000000000000106a .L0 
     /tmp/ccIfjRGV.s:5703   .text.Lcd_Init:000000000000107c .L0 
     /tmp/ccIfjRGV.s:5712   .text.Lcd_Init:0000000000001080 .L0 
     /tmp/ccIfjRGV.s:5713   .text.Lcd_Init:0000000000001080 .L0 
     /tmp/ccIfjRGV.s:5715   .text.Lcd_Init:0000000000001084 .L0 
     /tmp/ccIfjRGV.s:5725   .text.Lcd_Init:0000000000001090 .L0 
     /tmp/ccIfjRGV.s:5734   .text.Lcd_Init:0000000000001094 .L0 
GAS LISTING /tmp/ccIfjRGV.s 			page 291


     /tmp/ccIfjRGV.s:5742   .text.Lcd_Init:0000000000001098 .L0 
     /tmp/ccIfjRGV.s:5745   .text.Lcd_Init:000000000000109e .L0 
     /tmp/ccIfjRGV.s:5746   .text.Lcd_Init:000000000000109e .L0 
     /tmp/ccIfjRGV.s:5752   .text.Lcd_Init:00000000000010a0 .L0 
     /tmp/ccIfjRGV.s:5756   .text.Lcd_Init:00000000000010a0 .L0 
     /tmp/ccIfjRGV.s:5757   .text.Lcd_Init:00000000000010a0 .L0 
     /tmp/ccIfjRGV.s:5758   .text.Lcd_Init:00000000000010a0 .L0 
     /tmp/ccIfjRGV.s:5760   .text.Lcd_Init:00000000000010a2 .L0 
     /tmp/ccIfjRGV.s:5763   .text.Lcd_Init:00000000000010a6 .L0 
     /tmp/ccIfjRGV.s:5766   .text.Lcd_Init:00000000000010ae .L0 
     /tmp/ccIfjRGV.s:5768   .text.Lcd_Init:00000000000010b0 .L0 
     /tmp/ccIfjRGV.s:5770   .text.Lcd_Init:00000000000010b2 .L0 
     /tmp/ccIfjRGV.s:5772   .text.Lcd_Init:00000000000010b6 .L0 
     /tmp/ccIfjRGV.s:5778   .text.Lcd_Init:00000000000010c8 .L0 
     /tmp/ccIfjRGV.s:5787   .text.Lcd_Init:00000000000010cc .L0 
     /tmp/ccIfjRGV.s:5788   .text.Lcd_Init:00000000000010cc .L0 
     /tmp/ccIfjRGV.s:5790   .text.Lcd_Init:00000000000010d0 .L0 
     /tmp/ccIfjRGV.s:5800   .text.Lcd_Init:00000000000010dc .L0 
     /tmp/ccIfjRGV.s:5809   .text.Lcd_Init:00000000000010e0 .L0 
     /tmp/ccIfjRGV.s:5817   .text.Lcd_Init:00000000000010e4 .L0 
     /tmp/ccIfjRGV.s:5820   .text.Lcd_Init:00000000000010ea .L0 
     /tmp/ccIfjRGV.s:5821   .text.Lcd_Init:00000000000010ea .L0 
     /tmp/ccIfjRGV.s:5827   .text.Lcd_Init:00000000000010ec .L0 
     /tmp/ccIfjRGV.s:5831   .text.Lcd_Init:00000000000010ec .L0 
     /tmp/ccIfjRGV.s:5832   .text.Lcd_Init:00000000000010ec .L0 
     /tmp/ccIfjRGV.s:5833   .text.Lcd_Init:00000000000010ec .L0 
     /tmp/ccIfjRGV.s:5835   .text.Lcd_Init:00000000000010ee .L0 
     /tmp/ccIfjRGV.s:5838   .text.Lcd_Init:00000000000010f2 .L0 
     /tmp/ccIfjRGV.s:5841   .text.Lcd_Init:00000000000010fa .L0 
     /tmp/ccIfjRGV.s:5843   .text.Lcd_Init:00000000000010fc .L0 
     /tmp/ccIfjRGV.s:5845   .text.Lcd_Init:00000000000010fe .L0 
     /tmp/ccIfjRGV.s:5847   .text.Lcd_Init:0000000000001102 .L0 
     /tmp/ccIfjRGV.s:5853   .text.Lcd_Init:0000000000001114 .L0 
     /tmp/ccIfjRGV.s:5862   .text.Lcd_Init:0000000000001118 .L0 
     /tmp/ccIfjRGV.s:5863   .text.Lcd_Init:0000000000001118 .L0 
     /tmp/ccIfjRGV.s:5865   .text.Lcd_Init:000000000000111c .L0 
     /tmp/ccIfjRGV.s:5875   .text.Lcd_Init:0000000000001128 .L0 
     /tmp/ccIfjRGV.s:5884   .text.Lcd_Init:000000000000112c .L0 
     /tmp/ccIfjRGV.s:5892   .text.Lcd_Init:0000000000001130 .L0 
     /tmp/ccIfjRGV.s:5895   .text.Lcd_Init:0000000000001136 .L0 
     /tmp/ccIfjRGV.s:5896   .text.Lcd_Init:0000000000001136 .L0 
     /tmp/ccIfjRGV.s:5902   .text.Lcd_Init:0000000000001138 .L0 
     /tmp/ccIfjRGV.s:5906   .text.Lcd_Init:0000000000001138 .L0 
     /tmp/ccIfjRGV.s:5907   .text.Lcd_Init:0000000000001138 .L0 
     /tmp/ccIfjRGV.s:5908   .text.Lcd_Init:0000000000001138 .L0 
     /tmp/ccIfjRGV.s:5910   .text.Lcd_Init:000000000000113a .L0 
     /tmp/ccIfjRGV.s:5913   .text.Lcd_Init:000000000000113e .L0 
     /tmp/ccIfjRGV.s:5916   .text.Lcd_Init:0000000000001146 .L0 
     /tmp/ccIfjRGV.s:5918   .text.Lcd_Init:0000000000001148 .L0 
     /tmp/ccIfjRGV.s:5920   .text.Lcd_Init:000000000000114a .L0 
     /tmp/ccIfjRGV.s:5922   .text.Lcd_Init:000000000000114e .L0 
     /tmp/ccIfjRGV.s:5928   .text.Lcd_Init:0000000000001160 .L0 
     /tmp/ccIfjRGV.s:5937   .text.Lcd_Init:0000000000001164 .L0 
     /tmp/ccIfjRGV.s:5938   .text.Lcd_Init:0000000000001164 .L0 
     /tmp/ccIfjRGV.s:5940   .text.Lcd_Init:0000000000001168 .L0 
     /tmp/ccIfjRGV.s:5950   .text.Lcd_Init:0000000000001174 .L0 
     /tmp/ccIfjRGV.s:5959   .text.Lcd_Init:0000000000001178 .L0 
GAS LISTING /tmp/ccIfjRGV.s 			page 292


     /tmp/ccIfjRGV.s:5967   .text.Lcd_Init:000000000000117c .L0 
     /tmp/ccIfjRGV.s:5970   .text.Lcd_Init:0000000000001182 .L0 
     /tmp/ccIfjRGV.s:5971   .text.Lcd_Init:0000000000001182 .L0 
     /tmp/ccIfjRGV.s:5977   .text.Lcd_Init:0000000000001184 .L0 
     /tmp/ccIfjRGV.s:5981   .text.Lcd_Init:0000000000001184 .L0 
     /tmp/ccIfjRGV.s:5982   .text.Lcd_Init:0000000000001184 .L0 
     /tmp/ccIfjRGV.s:5983   .text.Lcd_Init:0000000000001184 .L0 
     /tmp/ccIfjRGV.s:5985   .text.Lcd_Init:0000000000001186 .L0 
     /tmp/ccIfjRGV.s:5988   .text.Lcd_Init:000000000000118a .L0 
     /tmp/ccIfjRGV.s:5991   .text.Lcd_Init:0000000000001192 .L0 
     /tmp/ccIfjRGV.s:5993   .text.Lcd_Init:0000000000001194 .L0 
     /tmp/ccIfjRGV.s:5995   .text.Lcd_Init:0000000000001196 .L0 
     /tmp/ccIfjRGV.s:5997   .text.Lcd_Init:000000000000119a .L0 
     /tmp/ccIfjRGV.s:6003   .text.Lcd_Init:00000000000011ac .L0 
     /tmp/ccIfjRGV.s:6012   .text.Lcd_Init:00000000000011b0 .L0 
     /tmp/ccIfjRGV.s:6013   .text.Lcd_Init:00000000000011b0 .L0 
     /tmp/ccIfjRGV.s:6015   .text.Lcd_Init:00000000000011b4 .L0 
     /tmp/ccIfjRGV.s:6025   .text.Lcd_Init:00000000000011c0 .L0 
     /tmp/ccIfjRGV.s:6034   .text.Lcd_Init:00000000000011c4 .L0 
     /tmp/ccIfjRGV.s:6042   .text.Lcd_Init:00000000000011c8 .L0 
     /tmp/ccIfjRGV.s:6045   .text.Lcd_Init:00000000000011ce .L0 
     /tmp/ccIfjRGV.s:6046   .text.Lcd_Init:00000000000011ce .L0 
     /tmp/ccIfjRGV.s:6052   .text.Lcd_Init:00000000000011d0 .L0 
     /tmp/ccIfjRGV.s:6056   .text.Lcd_Init:00000000000011d0 .L0 
     /tmp/ccIfjRGV.s:6057   .text.Lcd_Init:00000000000011d0 .L0 
     /tmp/ccIfjRGV.s:6058   .text.Lcd_Init:00000000000011d0 .L0 
     /tmp/ccIfjRGV.s:6060   .text.Lcd_Init:00000000000011d2 .L0 
     /tmp/ccIfjRGV.s:6063   .text.Lcd_Init:00000000000011d6 .L0 
     /tmp/ccIfjRGV.s:6066   .text.Lcd_Init:00000000000011de .L0 
     /tmp/ccIfjRGV.s:6068   .text.Lcd_Init:00000000000011e0 .L0 
     /tmp/ccIfjRGV.s:6070   .text.Lcd_Init:00000000000011e2 .L0 
     /tmp/ccIfjRGV.s:6072   .text.Lcd_Init:00000000000011e6 .L0 
     /tmp/ccIfjRGV.s:6078   .text.Lcd_Init:00000000000011f8 .L0 
     /tmp/ccIfjRGV.s:6087   .text.Lcd_Init:00000000000011fc .L0 
     /tmp/ccIfjRGV.s:6088   .text.Lcd_Init:00000000000011fc .L0 
     /tmp/ccIfjRGV.s:6090   .text.Lcd_Init:0000000000001200 .L0 
     /tmp/ccIfjRGV.s:6100   .text.Lcd_Init:000000000000120c .L0 
     /tmp/ccIfjRGV.s:6109   .text.Lcd_Init:0000000000001210 .L0 
     /tmp/ccIfjRGV.s:6117   .text.Lcd_Init:0000000000001214 .L0 
     /tmp/ccIfjRGV.s:6120   .text.Lcd_Init:000000000000121a .L0 
     /tmp/ccIfjRGV.s:6121   .text.Lcd_Init:000000000000121a .L0 
     /tmp/ccIfjRGV.s:6127   .text.Lcd_Init:000000000000121c .L0 
     /tmp/ccIfjRGV.s:6131   .text.Lcd_Init:000000000000121c .L0 
     /tmp/ccIfjRGV.s:6132   .text.Lcd_Init:000000000000121c .L0 
     /tmp/ccIfjRGV.s:6133   .text.Lcd_Init:000000000000121c .L0 
     /tmp/ccIfjRGV.s:6135   .text.Lcd_Init:000000000000121e .L0 
     /tmp/ccIfjRGV.s:6138   .text.Lcd_Init:0000000000001222 .L0 
     /tmp/ccIfjRGV.s:6141   .text.Lcd_Init:000000000000122a .L0 
     /tmp/ccIfjRGV.s:6143   .text.Lcd_Init:000000000000122c .L0 
     /tmp/ccIfjRGV.s:6145   .text.Lcd_Init:000000000000122e .L0 
     /tmp/ccIfjRGV.s:6147   .text.Lcd_Init:0000000000001232 .L0 
     /tmp/ccIfjRGV.s:6153   .text.Lcd_Init:0000000000001244 .L0 
     /tmp/ccIfjRGV.s:6162   .text.Lcd_Init:0000000000001248 .L0 
     /tmp/ccIfjRGV.s:6163   .text.Lcd_Init:0000000000001248 .L0 
     /tmp/ccIfjRGV.s:6165   .text.Lcd_Init:000000000000124c .L0 
     /tmp/ccIfjRGV.s:6175   .text.Lcd_Init:0000000000001258 .L0 
     /tmp/ccIfjRGV.s:6184   .text.Lcd_Init:000000000000125c .L0 
GAS LISTING /tmp/ccIfjRGV.s 			page 293


     /tmp/ccIfjRGV.s:6192   .text.Lcd_Init:0000000000001260 .L0 
     /tmp/ccIfjRGV.s:6195   .text.Lcd_Init:0000000000001266 .L0 
     /tmp/ccIfjRGV.s:6196   .text.Lcd_Init:0000000000001266 .L0 
     /tmp/ccIfjRGV.s:6202   .text.Lcd_Init:0000000000001268 .L0 
     /tmp/ccIfjRGV.s:6206   .text.Lcd_Init:0000000000001268 .L0 
     /tmp/ccIfjRGV.s:6207   .text.Lcd_Init:0000000000001268 .L0 
     /tmp/ccIfjRGV.s:6208   .text.Lcd_Init:0000000000001268 .L0 
     /tmp/ccIfjRGV.s:6210   .text.Lcd_Init:000000000000126a .L0 
     /tmp/ccIfjRGV.s:6213   .text.Lcd_Init:000000000000126e .L0 
     /tmp/ccIfjRGV.s:6216   .text.Lcd_Init:0000000000001276 .L0 
     /tmp/ccIfjRGV.s:6218   .text.Lcd_Init:0000000000001278 .L0 
     /tmp/ccIfjRGV.s:6220   .text.Lcd_Init:000000000000127a .L0 
     /tmp/ccIfjRGV.s:6222   .text.Lcd_Init:000000000000127e .L0 
     /tmp/ccIfjRGV.s:6228   .text.Lcd_Init:0000000000001290 .L0 
     /tmp/ccIfjRGV.s:6237   .text.Lcd_Init:0000000000001294 .L0 
     /tmp/ccIfjRGV.s:6238   .text.Lcd_Init:0000000000001294 .L0 
     /tmp/ccIfjRGV.s:6240   .text.Lcd_Init:0000000000001298 .L0 
     /tmp/ccIfjRGV.s:6250   .text.Lcd_Init:00000000000012a4 .L0 
     /tmp/ccIfjRGV.s:6259   .text.Lcd_Init:00000000000012a8 .L0 
     /tmp/ccIfjRGV.s:6267   .text.Lcd_Init:00000000000012ac .L0 
     /tmp/ccIfjRGV.s:6270   .text.Lcd_Init:00000000000012b2 .L0 
     /tmp/ccIfjRGV.s:6271   .text.Lcd_Init:00000000000012b2 .L0 
     /tmp/ccIfjRGV.s:6277   .text.Lcd_Init:00000000000012b4 .L0 
     /tmp/ccIfjRGV.s:6281   .text.Lcd_Init:00000000000012b4 .L0 
     /tmp/ccIfjRGV.s:6282   .text.Lcd_Init:00000000000012b4 .L0 
     /tmp/ccIfjRGV.s:6283   .text.Lcd_Init:00000000000012b4 .L0 
     /tmp/ccIfjRGV.s:6285   .text.Lcd_Init:00000000000012b6 .L0 
     /tmp/ccIfjRGV.s:6288   .text.Lcd_Init:00000000000012ba .L0 
     /tmp/ccIfjRGV.s:6291   .text.Lcd_Init:00000000000012c2 .L0 
     /tmp/ccIfjRGV.s:6293   .text.Lcd_Init:00000000000012c4 .L0 
     /tmp/ccIfjRGV.s:6295   .text.Lcd_Init:00000000000012c6 .L0 
     /tmp/ccIfjRGV.s:6297   .text.Lcd_Init:00000000000012ca .L0 
     /tmp/ccIfjRGV.s:6303   .text.Lcd_Init:00000000000012dc .L0 
     /tmp/ccIfjRGV.s:6312   .text.Lcd_Init:00000000000012e0 .L0 
     /tmp/ccIfjRGV.s:6313   .text.Lcd_Init:00000000000012e0 .L0 
     /tmp/ccIfjRGV.s:6315   .text.Lcd_Init:00000000000012e4 .L0 
     /tmp/ccIfjRGV.s:6325   .text.Lcd_Init:00000000000012f0 .L0 
     /tmp/ccIfjRGV.s:6334   .text.Lcd_Init:00000000000012f4 .L0 
     /tmp/ccIfjRGV.s:6342   .text.Lcd_Init:00000000000012f8 .L0 
     /tmp/ccIfjRGV.s:6345   .text.Lcd_Init:00000000000012fe .L0 
     /tmp/ccIfjRGV.s:6346   .text.Lcd_Init:00000000000012fe .L0 
     /tmp/ccIfjRGV.s:6352   .text.Lcd_Init:0000000000001300 .L0 
     /tmp/ccIfjRGV.s:6356   .text.Lcd_Init:0000000000001300 .L0 
     /tmp/ccIfjRGV.s:6357   .text.Lcd_Init:0000000000001300 .L0 
     /tmp/ccIfjRGV.s:6358   .text.Lcd_Init:0000000000001300 .L0 
     /tmp/ccIfjRGV.s:6360   .text.Lcd_Init:0000000000001302 .L0 
     /tmp/ccIfjRGV.s:6363   .text.Lcd_Init:0000000000001306 .L0 
     /tmp/ccIfjRGV.s:6366   .text.Lcd_Init:000000000000130e .L0 
     /tmp/ccIfjRGV.s:6368   .text.Lcd_Init:0000000000001310 .L0 
     /tmp/ccIfjRGV.s:6370   .text.Lcd_Init:0000000000001312 .L0 
     /tmp/ccIfjRGV.s:6372   .text.Lcd_Init:0000000000001316 .L0 
     /tmp/ccIfjRGV.s:6378   .text.Lcd_Init:0000000000001328 .L0 
     /tmp/ccIfjRGV.s:6387   .text.Lcd_Init:000000000000132c .L0 
     /tmp/ccIfjRGV.s:6388   .text.Lcd_Init:000000000000132c .L0 
     /tmp/ccIfjRGV.s:6390   .text.Lcd_Init:0000000000001330 .L0 
     /tmp/ccIfjRGV.s:6400   .text.Lcd_Init:000000000000133c .L0 
     /tmp/ccIfjRGV.s:6409   .text.Lcd_Init:0000000000001340 .L0 
GAS LISTING /tmp/ccIfjRGV.s 			page 294


     /tmp/ccIfjRGV.s:6417   .text.Lcd_Init:0000000000001344 .L0 
     /tmp/ccIfjRGV.s:6420   .text.Lcd_Init:000000000000134a .L0 
     /tmp/ccIfjRGV.s:6421   .text.Lcd_Init:000000000000134a .L0 
     /tmp/ccIfjRGV.s:6427   .text.Lcd_Init:000000000000134c .L0 
     /tmp/ccIfjRGV.s:6431   .text.Lcd_Init:000000000000134c .L0 
     /tmp/ccIfjRGV.s:6432   .text.Lcd_Init:000000000000134c .L0 
     /tmp/ccIfjRGV.s:6433   .text.Lcd_Init:000000000000134c .L0 
     /tmp/ccIfjRGV.s:6435   .text.Lcd_Init:000000000000134e .L0 
     /tmp/ccIfjRGV.s:6438   .text.Lcd_Init:0000000000001352 .L0 
     /tmp/ccIfjRGV.s:6441   .text.Lcd_Init:000000000000135a .L0 
     /tmp/ccIfjRGV.s:6443   .text.Lcd_Init:000000000000135c .L0 
     /tmp/ccIfjRGV.s:6445   .text.Lcd_Init:000000000000135e .L0 
     /tmp/ccIfjRGV.s:6447   .text.Lcd_Init:0000000000001362 .L0 
     /tmp/ccIfjRGV.s:6453   .text.Lcd_Init:0000000000001374 .L0 
     /tmp/ccIfjRGV.s:6462   .text.Lcd_Init:0000000000001378 .L0 
     /tmp/ccIfjRGV.s:6463   .text.Lcd_Init:0000000000001378 .L0 
     /tmp/ccIfjRGV.s:6465   .text.Lcd_Init:000000000000137c .L0 
     /tmp/ccIfjRGV.s:6475   .text.Lcd_Init:0000000000001388 .L0 
     /tmp/ccIfjRGV.s:6484   .text.Lcd_Init:000000000000138c .L0 
     /tmp/ccIfjRGV.s:6492   .text.Lcd_Init:0000000000001390 .L0 
     /tmp/ccIfjRGV.s:6495   .text.Lcd_Init:0000000000001396 .L0 
     /tmp/ccIfjRGV.s:6496   .text.Lcd_Init:0000000000001396 .L0 
     /tmp/ccIfjRGV.s:6502   .text.Lcd_Init:0000000000001398 .L0 
     /tmp/ccIfjRGV.s:6506   .text.Lcd_Init:0000000000001398 .L0 
     /tmp/ccIfjRGV.s:6507   .text.Lcd_Init:0000000000001398 .L0 
     /tmp/ccIfjRGV.s:6508   .text.Lcd_Init:0000000000001398 .L0 
     /tmp/ccIfjRGV.s:6510   .text.Lcd_Init:000000000000139a .L0 
     /tmp/ccIfjRGV.s:6513   .text.Lcd_Init:000000000000139e .L0 
     /tmp/ccIfjRGV.s:6516   .text.Lcd_Init:00000000000013a6 .L0 
     /tmp/ccIfjRGV.s:6518   .text.Lcd_Init:00000000000013a8 .L0 
     /tmp/ccIfjRGV.s:6520   .text.Lcd_Init:00000000000013aa .L0 
     /tmp/ccIfjRGV.s:6522   .text.Lcd_Init:00000000000013ae .L0 
     /tmp/ccIfjRGV.s:6528   .text.Lcd_Init:00000000000013c0 .L0 
     /tmp/ccIfjRGV.s:6537   .text.Lcd_Init:00000000000013c4 .L0 
     /tmp/ccIfjRGV.s:6538   .text.Lcd_Init:00000000000013c4 .L0 
     /tmp/ccIfjRGV.s:6540   .text.Lcd_Init:00000000000013c8 .L0 
     /tmp/ccIfjRGV.s:6550   .text.Lcd_Init:00000000000013d4 .L0 
     /tmp/ccIfjRGV.s:6559   .text.Lcd_Init:00000000000013d8 .L0 
     /tmp/ccIfjRGV.s:6567   .text.Lcd_Init:00000000000013dc .L0 
     /tmp/ccIfjRGV.s:6570   .text.Lcd_Init:00000000000013e2 .L0 
     /tmp/ccIfjRGV.s:6571   .text.Lcd_Init:00000000000013e2 .L0 
     /tmp/ccIfjRGV.s:6577   .text.Lcd_Init:00000000000013e4 .L0 
     /tmp/ccIfjRGV.s:6581   .text.Lcd_Init:00000000000013e4 .L0 
     /tmp/ccIfjRGV.s:6582   .text.Lcd_Init:00000000000013e4 .L0 
     /tmp/ccIfjRGV.s:6583   .text.Lcd_Init:00000000000013e4 .L0 
     /tmp/ccIfjRGV.s:6585   .text.Lcd_Init:00000000000013e6 .L0 
     /tmp/ccIfjRGV.s:6588   .text.Lcd_Init:00000000000013ea .L0 
     /tmp/ccIfjRGV.s:6591   .text.Lcd_Init:00000000000013f2 .L0 
     /tmp/ccIfjRGV.s:6593   .text.Lcd_Init:00000000000013f4 .L0 
     /tmp/ccIfjRGV.s:6595   .text.Lcd_Init:00000000000013f6 .L0 
     /tmp/ccIfjRGV.s:6597   .text.Lcd_Init:00000000000013fa .L0 
     /tmp/ccIfjRGV.s:6603   .text.Lcd_Init:000000000000140c .L0 
     /tmp/ccIfjRGV.s:6612   .text.Lcd_Init:0000000000001410 .L0 
     /tmp/ccIfjRGV.s:6613   .text.Lcd_Init:0000000000001410 .L0 
     /tmp/ccIfjRGV.s:6615   .text.Lcd_Init:0000000000001414 .L0 
     /tmp/ccIfjRGV.s:6625   .text.Lcd_Init:0000000000001420 .L0 
     /tmp/ccIfjRGV.s:6634   .text.Lcd_Init:0000000000001424 .L0 
GAS LISTING /tmp/ccIfjRGV.s 			page 295


     /tmp/ccIfjRGV.s:6642   .text.Lcd_Init:0000000000001428 .L0 
     /tmp/ccIfjRGV.s:6645   .text.Lcd_Init:000000000000142e .L0 
     /tmp/ccIfjRGV.s:6646   .text.Lcd_Init:000000000000142e .L0 
     /tmp/ccIfjRGV.s:6652   .text.Lcd_Init:0000000000001430 .L0 
     /tmp/ccIfjRGV.s:6656   .text.Lcd_Init:0000000000001430 .L0 
     /tmp/ccIfjRGV.s:6657   .text.Lcd_Init:0000000000001430 .L0 
     /tmp/ccIfjRGV.s:6658   .text.Lcd_Init:0000000000001430 .L0 
     /tmp/ccIfjRGV.s:6660   .text.Lcd_Init:0000000000001432 .L0 
     /tmp/ccIfjRGV.s:6663   .text.Lcd_Init:0000000000001436 .L0 
     /tmp/ccIfjRGV.s:6666   .text.Lcd_Init:000000000000143e .L0 
     /tmp/ccIfjRGV.s:6668   .text.Lcd_Init:0000000000001440 .L0 
     /tmp/ccIfjRGV.s:6670   .text.Lcd_Init:0000000000001442 .L0 
     /tmp/ccIfjRGV.s:6672   .text.Lcd_Init:0000000000001446 .L0 
     /tmp/ccIfjRGV.s:6678   .text.Lcd_Init:0000000000001458 .L0 
     /tmp/ccIfjRGV.s:6687   .text.Lcd_Init:000000000000145c .L0 
     /tmp/ccIfjRGV.s:6688   .text.Lcd_Init:000000000000145c .L0 
     /tmp/ccIfjRGV.s:6690   .text.Lcd_Init:0000000000001460 .L0 
     /tmp/ccIfjRGV.s:6700   .text.Lcd_Init:000000000000146c .L0 
     /tmp/ccIfjRGV.s:6709   .text.Lcd_Init:0000000000001470 .L0 
     /tmp/ccIfjRGV.s:6717   .text.Lcd_Init:0000000000001474 .L0 
     /tmp/ccIfjRGV.s:6720   .text.Lcd_Init:000000000000147a .L0 
     /tmp/ccIfjRGV.s:6721   .text.Lcd_Init:000000000000147a .L0 
     /tmp/ccIfjRGV.s:6727   .text.Lcd_Init:000000000000147c .L0 
     /tmp/ccIfjRGV.s:6731   .text.Lcd_Init:000000000000147c .L0 
     /tmp/ccIfjRGV.s:6732   .text.Lcd_Init:000000000000147c .L0 
     /tmp/ccIfjRGV.s:6733   .text.Lcd_Init:000000000000147c .L0 
     /tmp/ccIfjRGV.s:6735   .text.Lcd_Init:000000000000147e .L0 
     /tmp/ccIfjRGV.s:6738   .text.Lcd_Init:0000000000001482 .L0 
     /tmp/ccIfjRGV.s:6741   .text.Lcd_Init:000000000000148a .L0 
     /tmp/ccIfjRGV.s:6743   .text.Lcd_Init:000000000000148c .L0 
     /tmp/ccIfjRGV.s:6745   .text.Lcd_Init:000000000000148e .L0 
     /tmp/ccIfjRGV.s:6747   .text.Lcd_Init:0000000000001492 .L0 
     /tmp/ccIfjRGV.s:6753   .text.Lcd_Init:00000000000014a4 .L0 
     /tmp/ccIfjRGV.s:6762   .text.Lcd_Init:00000000000014a8 .L0 
     /tmp/ccIfjRGV.s:6763   .text.Lcd_Init:00000000000014a8 .L0 
     /tmp/ccIfjRGV.s:6765   .text.Lcd_Init:00000000000014ac .L0 
     /tmp/ccIfjRGV.s:6775   .text.Lcd_Init:00000000000014b8 .L0 
     /tmp/ccIfjRGV.s:6784   .text.Lcd_Init:00000000000014bc .L0 
     /tmp/ccIfjRGV.s:6792   .text.Lcd_Init:00000000000014c0 .L0 
     /tmp/ccIfjRGV.s:6795   .text.Lcd_Init:00000000000014c6 .L0 
     /tmp/ccIfjRGV.s:6796   .text.Lcd_Init:00000000000014c6 .L0 
     /tmp/ccIfjRGV.s:6802   .text.Lcd_Init:00000000000014c8 .L0 
     /tmp/ccIfjRGV.s:6806   .text.Lcd_Init:00000000000014c8 .L0 
     /tmp/ccIfjRGV.s:6807   .text.Lcd_Init:00000000000014c8 .L0 
     /tmp/ccIfjRGV.s:6808   .text.Lcd_Init:00000000000014c8 .L0 
     /tmp/ccIfjRGV.s:6810   .text.Lcd_Init:00000000000014ca .L0 
     /tmp/ccIfjRGV.s:6813   .text.Lcd_Init:00000000000014ce .L0 
     /tmp/ccIfjRGV.s:6816   .text.Lcd_Init:00000000000014d6 .L0 
     /tmp/ccIfjRGV.s:6818   .text.Lcd_Init:00000000000014d8 .L0 
     /tmp/ccIfjRGV.s:6820   .text.Lcd_Init:00000000000014da .L0 
     /tmp/ccIfjRGV.s:6822   .text.Lcd_Init:00000000000014de .L0 
     /tmp/ccIfjRGV.s:6828   .text.Lcd_Init:00000000000014f0 .L0 
     /tmp/ccIfjRGV.s:6837   .text.Lcd_Init:00000000000014f4 .L0 
     /tmp/ccIfjRGV.s:6838   .text.Lcd_Init:00000000000014f4 .L0 
     /tmp/ccIfjRGV.s:6840   .text.Lcd_Init:00000000000014f8 .L0 
     /tmp/ccIfjRGV.s:6850   .text.Lcd_Init:0000000000001504 .L0 
     /tmp/ccIfjRGV.s:6859   .text.Lcd_Init:0000000000001508 .L0 
GAS LISTING /tmp/ccIfjRGV.s 			page 296


     /tmp/ccIfjRGV.s:6867   .text.Lcd_Init:000000000000150c .L0 
     /tmp/ccIfjRGV.s:6870   .text.Lcd_Init:0000000000001512 .L0 
     /tmp/ccIfjRGV.s:6871   .text.Lcd_Init:0000000000001512 .L0 
     /tmp/ccIfjRGV.s:6877   .text.Lcd_Init:0000000000001514 .L0 
     /tmp/ccIfjRGV.s:6881   .text.Lcd_Init:0000000000001514 .L0 
     /tmp/ccIfjRGV.s:6882   .text.Lcd_Init:0000000000001514 .L0 
     /tmp/ccIfjRGV.s:6883   .text.Lcd_Init:0000000000001514 .L0 
     /tmp/ccIfjRGV.s:6885   .text.Lcd_Init:0000000000001516 .L0 
     /tmp/ccIfjRGV.s:6888   .text.Lcd_Init:000000000000151a .L0 
     /tmp/ccIfjRGV.s:6891   .text.Lcd_Init:0000000000001522 .L0 
     /tmp/ccIfjRGV.s:6893   .text.Lcd_Init:0000000000001524 .L0 
     /tmp/ccIfjRGV.s:6895   .text.Lcd_Init:0000000000001526 .L0 
     /tmp/ccIfjRGV.s:6897   .text.Lcd_Init:000000000000152a .L0 
     /tmp/ccIfjRGV.s:6903   .text.Lcd_Init:000000000000153c .L0 
     /tmp/ccIfjRGV.s:6912   .text.Lcd_Init:0000000000001540 .L0 
     /tmp/ccIfjRGV.s:6913   .text.Lcd_Init:0000000000001540 .L0 
     /tmp/ccIfjRGV.s:6915   .text.Lcd_Init:0000000000001544 .L0 
     /tmp/ccIfjRGV.s:6925   .text.Lcd_Init:0000000000001550 .L0 
     /tmp/ccIfjRGV.s:6934   .text.Lcd_Init:0000000000001554 .L0 
     /tmp/ccIfjRGV.s:6942   .text.Lcd_Init:0000000000001558 .L0 
     /tmp/ccIfjRGV.s:6945   .text.Lcd_Init:000000000000155e .L0 
     /tmp/ccIfjRGV.s:6946   .text.Lcd_Init:000000000000155e .L0 
     /tmp/ccIfjRGV.s:6952   .text.Lcd_Init:0000000000001560 .L0 
     /tmp/ccIfjRGV.s:6956   .text.Lcd_Init:0000000000001560 .L0 
     /tmp/ccIfjRGV.s:6957   .text.Lcd_Init:0000000000001560 .L0 
     /tmp/ccIfjRGV.s:6958   .text.Lcd_Init:0000000000001560 .L0 
     /tmp/ccIfjRGV.s:6960   .text.Lcd_Init:0000000000001562 .L0 
     /tmp/ccIfjRGV.s:6963   .text.Lcd_Init:0000000000001566 .L0 
     /tmp/ccIfjRGV.s:6966   .text.Lcd_Init:000000000000156e .L0 
     /tmp/ccIfjRGV.s:6968   .text.Lcd_Init:0000000000001570 .L0 
     /tmp/ccIfjRGV.s:6970   .text.Lcd_Init:0000000000001572 .L0 
     /tmp/ccIfjRGV.s:6972   .text.Lcd_Init:0000000000001576 .L0 
     /tmp/ccIfjRGV.s:6978   .text.Lcd_Init:0000000000001588 .L0 
     /tmp/ccIfjRGV.s:6987   .text.Lcd_Init:000000000000158c .L0 
     /tmp/ccIfjRGV.s:6988   .text.Lcd_Init:000000000000158c .L0 
     /tmp/ccIfjRGV.s:6990   .text.Lcd_Init:0000000000001590 .L0 
     /tmp/ccIfjRGV.s:7000   .text.Lcd_Init:000000000000159c .L0 
     /tmp/ccIfjRGV.s:7009   .text.Lcd_Init:00000000000015a0 .L0 
     /tmp/ccIfjRGV.s:7017   .text.Lcd_Init:00000000000015a4 .L0 
     /tmp/ccIfjRGV.s:7020   .text.Lcd_Init:00000000000015aa .L0 
     /tmp/ccIfjRGV.s:7021   .text.Lcd_Init:00000000000015aa .L0 
     /tmp/ccIfjRGV.s:7027   .text.Lcd_Init:00000000000015ac .L0 
     /tmp/ccIfjRGV.s:7031   .text.Lcd_Init:00000000000015ac .L0 
     /tmp/ccIfjRGV.s:7032   .text.Lcd_Init:00000000000015ac .L0 
     /tmp/ccIfjRGV.s:7033   .text.Lcd_Init:00000000000015ac .L0 
     /tmp/ccIfjRGV.s:7035   .text.Lcd_Init:00000000000015ae .L0 
     /tmp/ccIfjRGV.s:7038   .text.Lcd_Init:00000000000015b2 .L0 
     /tmp/ccIfjRGV.s:7041   .text.Lcd_Init:00000000000015ba .L0 
     /tmp/ccIfjRGV.s:7043   .text.Lcd_Init:00000000000015bc .L0 
     /tmp/ccIfjRGV.s:7045   .text.Lcd_Init:00000000000015be .L0 
     /tmp/ccIfjRGV.s:7047   .text.Lcd_Init:00000000000015c2 .L0 
     /tmp/ccIfjRGV.s:7053   .text.Lcd_Init:00000000000015d4 .L0 
     /tmp/ccIfjRGV.s:7062   .text.Lcd_Init:00000000000015d8 .L0 
     /tmp/ccIfjRGV.s:7063   .text.Lcd_Init:00000000000015d8 .L0 
     /tmp/ccIfjRGV.s:7065   .text.Lcd_Init:00000000000015dc .L0 
     /tmp/ccIfjRGV.s:7075   .text.Lcd_Init:00000000000015e8 .L0 
     /tmp/ccIfjRGV.s:7084   .text.Lcd_Init:00000000000015ec .L0 
GAS LISTING /tmp/ccIfjRGV.s 			page 297


     /tmp/ccIfjRGV.s:7092   .text.Lcd_Init:00000000000015f0 .L0 
     /tmp/ccIfjRGV.s:7095   .text.Lcd_Init:00000000000015f6 .L0 
     /tmp/ccIfjRGV.s:7096   .text.Lcd_Init:00000000000015f6 .L0 
     /tmp/ccIfjRGV.s:7102   .text.Lcd_Init:00000000000015f8 .L0 
     /tmp/ccIfjRGV.s:7106   .text.Lcd_Init:00000000000015f8 .L0 
     /tmp/ccIfjRGV.s:7107   .text.Lcd_Init:00000000000015f8 .L0 
     /tmp/ccIfjRGV.s:7108   .text.Lcd_Init:00000000000015f8 .L0 
     /tmp/ccIfjRGV.s:7110   .text.Lcd_Init:00000000000015fa .L0 
     /tmp/ccIfjRGV.s:7113   .text.Lcd_Init:00000000000015fe .L0 
     /tmp/ccIfjRGV.s:7116   .text.Lcd_Init:0000000000001606 .L0 
     /tmp/ccIfjRGV.s:7118   .text.Lcd_Init:0000000000001608 .L0 
     /tmp/ccIfjRGV.s:7120   .text.Lcd_Init:000000000000160a .L0 
     /tmp/ccIfjRGV.s:7122   .text.Lcd_Init:000000000000160e .L0 
     /tmp/ccIfjRGV.s:7128   .text.Lcd_Init:0000000000001620 .L0 
     /tmp/ccIfjRGV.s:7137   .text.Lcd_Init:0000000000001624 .L0 
     /tmp/ccIfjRGV.s:7138   .text.Lcd_Init:0000000000001624 .L0 
     /tmp/ccIfjRGV.s:7140   .text.Lcd_Init:0000000000001628 .L0 
     /tmp/ccIfjRGV.s:7150   .text.Lcd_Init:0000000000001634 .L0 
     /tmp/ccIfjRGV.s:7159   .text.Lcd_Init:0000000000001638 .L0 
     /tmp/ccIfjRGV.s:7167   .text.Lcd_Init:000000000000163c .L0 
     /tmp/ccIfjRGV.s:7170   .text.Lcd_Init:0000000000001642 .L0 
     /tmp/ccIfjRGV.s:7171   .text.Lcd_Init:0000000000001642 .L0 
     /tmp/ccIfjRGV.s:7177   .text.Lcd_Init:0000000000001644 .L0 
     /tmp/ccIfjRGV.s:7181   .text.Lcd_Init:0000000000001644 .L0 
     /tmp/ccIfjRGV.s:7182   .text.Lcd_Init:0000000000001644 .L0 
     /tmp/ccIfjRGV.s:7183   .text.Lcd_Init:0000000000001644 .L0 
     /tmp/ccIfjRGV.s:7185   .text.Lcd_Init:0000000000001646 .L0 
     /tmp/ccIfjRGV.s:7188   .text.Lcd_Init:000000000000164a .L0 
     /tmp/ccIfjRGV.s:7191   .text.Lcd_Init:0000000000001652 .L0 
     /tmp/ccIfjRGV.s:7193   .text.Lcd_Init:0000000000001654 .L0 
     /tmp/ccIfjRGV.s:7195   .text.Lcd_Init:0000000000001656 .L0 
     /tmp/ccIfjRGV.s:7197   .text.Lcd_Init:000000000000165a .L0 
     /tmp/ccIfjRGV.s:7203   .text.Lcd_Init:000000000000166c .L0 
     /tmp/ccIfjRGV.s:7212   .text.Lcd_Init:0000000000001670 .L0 
     /tmp/ccIfjRGV.s:7213   .text.Lcd_Init:0000000000001670 .L0 
     /tmp/ccIfjRGV.s:7215   .text.Lcd_Init:0000000000001674 .L0 
     /tmp/ccIfjRGV.s:7225   .text.Lcd_Init:0000000000001680 .L0 
     /tmp/ccIfjRGV.s:7234   .text.Lcd_Init:0000000000001684 .L0 
     /tmp/ccIfjRGV.s:7242   .text.Lcd_Init:0000000000001688 .L0 
     /tmp/ccIfjRGV.s:7245   .text.Lcd_Init:000000000000168e .L0 
     /tmp/ccIfjRGV.s:7246   .text.Lcd_Init:000000000000168e .L0 
     /tmp/ccIfjRGV.s:7252   .text.Lcd_Init:0000000000001690 .L0 
     /tmp/ccIfjRGV.s:7256   .text.Lcd_Init:0000000000001690 .L0 
     /tmp/ccIfjRGV.s:7257   .text.Lcd_Init:0000000000001690 .L0 
     /tmp/ccIfjRGV.s:7258   .text.Lcd_Init:0000000000001690 .L0 
     /tmp/ccIfjRGV.s:7260   .text.Lcd_Init:0000000000001692 .L0 
     /tmp/ccIfjRGV.s:7263   .text.Lcd_Init:0000000000001696 .L0 
     /tmp/ccIfjRGV.s:7266   .text.Lcd_Init:000000000000169e .L0 
     /tmp/ccIfjRGV.s:7268   .text.Lcd_Init:00000000000016a0 .L0 
     /tmp/ccIfjRGV.s:7270   .text.Lcd_Init:00000000000016a2 .L0 
     /tmp/ccIfjRGV.s:7272   .text.Lcd_Init:00000000000016a6 .L0 
     /tmp/ccIfjRGV.s:7278   .text.Lcd_Init:00000000000016b8 .L0 
     /tmp/ccIfjRGV.s:7287   .text.Lcd_Init:00000000000016bc .L0 
     /tmp/ccIfjRGV.s:7288   .text.Lcd_Init:00000000000016bc .L0 
     /tmp/ccIfjRGV.s:7290   .text.Lcd_Init:00000000000016c0 .L0 
     /tmp/ccIfjRGV.s:7300   .text.Lcd_Init:00000000000016cc .L0 
     /tmp/ccIfjRGV.s:7309   .text.Lcd_Init:00000000000016d0 .L0 
GAS LISTING /tmp/ccIfjRGV.s 			page 298


     /tmp/ccIfjRGV.s:7317   .text.Lcd_Init:00000000000016d4 .L0 
     /tmp/ccIfjRGV.s:7320   .text.Lcd_Init:00000000000016da .L0 
     /tmp/ccIfjRGV.s:7321   .text.Lcd_Init:00000000000016da .L0 
     /tmp/ccIfjRGV.s:7327   .text.Lcd_Init:00000000000016dc .L0 
     /tmp/ccIfjRGV.s:7331   .text.Lcd_Init:00000000000016dc .L0 
     /tmp/ccIfjRGV.s:7332   .text.Lcd_Init:00000000000016dc .L0 
     /tmp/ccIfjRGV.s:7333   .text.Lcd_Init:00000000000016dc .L0 
     /tmp/ccIfjRGV.s:7335   .text.Lcd_Init:00000000000016de .L0 
     /tmp/ccIfjRGV.s:7338   .text.Lcd_Init:00000000000016e2 .L0 
     /tmp/ccIfjRGV.s:7341   .text.Lcd_Init:00000000000016ea .L0 
     /tmp/ccIfjRGV.s:7343   .text.Lcd_Init:00000000000016ec .L0 
     /tmp/ccIfjRGV.s:7345   .text.Lcd_Init:00000000000016ee .L0 
     /tmp/ccIfjRGV.s:7347   .text.Lcd_Init:00000000000016f2 .L0 
     /tmp/ccIfjRGV.s:7353   .text.Lcd_Init:0000000000001704 .L0 
     /tmp/ccIfjRGV.s:7362   .text.Lcd_Init:0000000000001708 .L0 
     /tmp/ccIfjRGV.s:7363   .text.Lcd_Init:0000000000001708 .L0 
     /tmp/ccIfjRGV.s:7365   .text.Lcd_Init:000000000000170c .L0 
     /tmp/ccIfjRGV.s:7375   .text.Lcd_Init:0000000000001718 .L0 
     /tmp/ccIfjRGV.s:7384   .text.Lcd_Init:000000000000171c .L0 
     /tmp/ccIfjRGV.s:7392   .text.Lcd_Init:0000000000001720 .L0 
     /tmp/ccIfjRGV.s:7395   .text.Lcd_Init:0000000000001726 .L0 
     /tmp/ccIfjRGV.s:7396   .text.Lcd_Init:0000000000001726 .L0 
     /tmp/ccIfjRGV.s:7402   .text.Lcd_Init:0000000000001728 .L0 
     /tmp/ccIfjRGV.s:7406   .text.Lcd_Init:0000000000001728 .L0 
     /tmp/ccIfjRGV.s:7407   .text.Lcd_Init:0000000000001728 .L0 
     /tmp/ccIfjRGV.s:7408   .text.Lcd_Init:0000000000001728 .L0 
     /tmp/ccIfjRGV.s:7410   .text.Lcd_Init:000000000000172a .L0 
     /tmp/ccIfjRGV.s:7413   .text.Lcd_Init:000000000000172e .L0 
     /tmp/ccIfjRGV.s:7416   .text.Lcd_Init:0000000000001736 .L0 
     /tmp/ccIfjRGV.s:7418   .text.Lcd_Init:0000000000001738 .L0 
     /tmp/ccIfjRGV.s:7420   .text.Lcd_Init:000000000000173a .L0 
     /tmp/ccIfjRGV.s:7422   .text.Lcd_Init:000000000000173e .L0 
     /tmp/ccIfjRGV.s:7428   .text.Lcd_Init:0000000000001750 .L0 
     /tmp/ccIfjRGV.s:7431   .text.Lcd_Init:0000000000001754 .L0 
     /tmp/ccIfjRGV.s:7432   .text.Lcd_Init:0000000000001754 .L0 
     /tmp/ccIfjRGV.s:7437   .text.Lcd_Init:0000000000001756 .L0 
     /tmp/ccIfjRGV.s:7438   .text.Lcd_Init:0000000000001758 .L0 
     /tmp/ccIfjRGV.s:7439   .text.Lcd_Init:0000000000001758 .L0 
     /tmp/ccIfjRGV.s:7441   .text.Lcd_Init:000000000000175a .L0 
     /tmp/ccIfjRGV.s:7446   .text.Lcd_Init:000000000000175a .L0 
     /tmp/ccIfjRGV.s:7455   .text.Lcd_Init:0000000000001764 .L0 
     /tmp/ccIfjRGV.s:7456   .text.Lcd_Init:0000000000001764 .L0 
     /tmp/ccIfjRGV.s:7457   .text.Lcd_Init:0000000000001766 .L0 
     /tmp/ccIfjRGV.s:7459   .text.Lcd_Init:0000000000001768 .L0 
     /tmp/ccIfjRGV.s:7461   .text.Lcd_Init:000000000000176a .L0 
     /tmp/ccIfjRGV.s:7464   .text.Lcd_Init:000000000000176c .L0 
     /tmp/ccIfjRGV.s:7468   .text.Lcd_Init:000000000000176e .L0 
     /tmp/ccIfjRGV.s:7473   .text.Lcd_Init:000000000000176e .L0 
     /tmp/ccIfjRGV.s:7477   .text.Lcd_Init:0000000000001776 .L0 
     /tmp/ccIfjRGV.s:7479   .text.Lcd_Init:0000000000001778 .L0 
     /tmp/ccIfjRGV.s:7481   .text.Lcd_Init:000000000000177a .L0 
     /tmp/ccIfjRGV.s:7483   .text.Lcd_Init:000000000000177e .L0 
     /tmp/ccIfjRGV.s:7489   .text.Lcd_Init:0000000000001790 .L0 
     /tmp/ccIfjRGV.s:7491   .text.Lcd_Init:0000000000001794 .L0 
     /tmp/ccIfjRGV.s:7492   .text.Lcd_Init:0000000000001794 .L0 
     /tmp/ccIfjRGV.s:7497   .text.Lcd_Init:000000000000179e .L0 
     /tmp/ccIfjRGV.s:7498   .text.Lcd_Init:000000000000179e .L0 
GAS LISTING /tmp/ccIfjRGV.s 			page 299


     /tmp/ccIfjRGV.s:7508   .text.Lcd_Init:00000000000017a2 .L0 
     /tmp/ccIfjRGV.s:7511   .text.Lcd_Init:00000000000017aa .L0 
     /tmp/ccIfjRGV.s:7513   .text.Lcd_Init:00000000000017ac .L0 
     /tmp/ccIfjRGV.s:7516   .text.Lcd_Init:00000000000017ae .L0 
     /tmp/ccIfjRGV.s:7518   .text.Lcd_Init:00000000000017b2 .L0 
     /tmp/ccIfjRGV.s:7524   .text.Lcd_Init:00000000000017c4 .L0 
     /tmp/ccIfjRGV.s:7529   .text.Lcd_Init:00000000000017cc .L0 
     /tmp/ccIfjRGV.s:7536   .text.LCD_Clear:0000000000000000 LCD_Clear
     /tmp/ccIfjRGV.s:7539   .text.LCD_Clear:0000000000000000 .L0 
     /tmp/ccIfjRGV.s:7541   .text.LCD_Clear:0000000000000000 .L0 
     /tmp/ccIfjRGV.s:7542   .text.LCD_Clear:0000000000000000 .L0 
     /tmp/ccIfjRGV.s:7543   .text.LCD_Clear:0000000000000000 .L0 
     /tmp/ccIfjRGV.s:7544   .text.LCD_Clear:0000000000000000 .L0 
     /tmp/ccIfjRGV.s:7546   .text.LCD_Clear:0000000000000002 .L0 
     /tmp/ccIfjRGV.s:7549   .text.LCD_Clear:0000000000000004 .L0 
     /tmp/ccIfjRGV.s:7550   .text.LCD_Clear:0000000000000008 .L0 
     /tmp/ccIfjRGV.s:7552   .text.LCD_Clear:0000000000000008 .L0 
     /tmp/ccIfjRGV.s:7554   .text.LCD_Clear:000000000000000a .L0 
     /tmp/ccIfjRGV.s:7559   .text.LCD_Clear:0000000000000012 .L0 
     /tmp/ccIfjRGV.s:7562   .text.LCD_Clear:0000000000000018 .L0 
     /tmp/ccIfjRGV.s:7563   .text.LCD_Clear:0000000000000018 .L0 
     /tmp/ccIfjRGV.s:7564   .text.LCD_Clear:0000000000000018 .L0 
     /tmp/ccIfjRGV.s:7566   .text.LCD_Clear:0000000000000018 .L0 
     /tmp/ccIfjRGV.s:7571   .text.LCD_Clear:0000000000000024 .L0 
     /tmp/ccIfjRGV.s:7572   .text.LCD_Clear:0000000000000024 .L0 
     /tmp/ccIfjRGV.s:7576   .text.LCD_Clear:0000000000000028 .L0 
     /tmp/ccIfjRGV.s:7582   .text.LCD_Clear:0000000000000034 .L0 
     /tmp/ccIfjRGV.s:7587   .text.LCD_Clear:0000000000000038 .L0 
     /tmp/ccIfjRGV.s:7589   .text.LCD_Clear:000000000000003c .L0 
     /tmp/ccIfjRGV.s:7590   .text.LCD_Clear:000000000000003e .L0 
     /tmp/ccIfjRGV.s:7592   .text.LCD_Clear:0000000000000040 .L0 
     /tmp/ccIfjRGV.s:7594   .text.LCD_Clear:0000000000000042 .L0 
     /tmp/ccIfjRGV.s:7597   .text.LCD_Clear:0000000000000044 .L0 
     /tmp/ccIfjRGV.s:7601   .text.LCD_Clear:0000000000000046 .L0 
     /tmp/ccIfjRGV.s:7603   .text.LCD_Clear:0000000000000048 .L0 
     /tmp/ccIfjRGV.s:7610   .text.LCD_ShowChinese:0000000000000000 LCD_ShowChinese
     /tmp/ccIfjRGV.s:7613   .text.LCD_ShowChinese:0000000000000000 .L0 
     /tmp/ccIfjRGV.s:7615   .text.LCD_ShowChinese:0000000000000000 .L0 
     /tmp/ccIfjRGV.s:7616   .text.LCD_ShowChinese:0000000000000000 .L0 
     /tmp/ccIfjRGV.s:7617   .text.LCD_ShowChinese:0000000000000000 .L0 
     /tmp/ccIfjRGV.s:7618   .text.LCD_ShowChinese:0000000000000000 .L0 
     /tmp/ccIfjRGV.s:7619   .text.LCD_ShowChinese:0000000000000000 .L0 
     /tmp/ccIfjRGV.s:7620   .text.LCD_ShowChinese:0000000000000000 .L0 
     /tmp/ccIfjRGV.s:7622   .text.LCD_ShowChinese:0000000000000002 .L0 
     /tmp/ccIfjRGV.s:7624   .text.LCD_ShowChinese:0000000000000004 .L0 
     /tmp/ccIfjRGV.s:7632   .text.LCD_ShowChinese:0000000000000016 .L0 
     /tmp/ccIfjRGV.s:7633   .text.LCD_ShowChinese:0000000000000016 .L0 
     /tmp/ccIfjRGV.s:7644   .text.LCD_ShowChinese:000000000000002e .L0 
     /tmp/ccIfjRGV.s:7645   .text.LCD_ShowChinese:000000000000002e .L0 
     /tmp/ccIfjRGV.s:7646   .text.LCD_ShowChinese:000000000000002e .L0 
     /tmp/ccIfjRGV.s:7647   .text.LCD_ShowChinese:000000000000002e .L0 
     /tmp/ccIfjRGV.s:7648   .text.LCD_ShowChinese:000000000000002e .L0 
     /tmp/ccIfjRGV.s:7650   .text.LCD_ShowChinese:000000000000002e .L0 
     /tmp/ccIfjRGV.s:7655   .text.LCD_ShowChinese:000000000000003e .L0 
     /tmp/ccIfjRGV.s:7658   .text.LCD_ShowChinese:0000000000000040 .L0 
     /tmp/ccIfjRGV.s:7660   .text.LCD_ShowChinese:0000000000000044 .L0 
     /tmp/ccIfjRGV.s:7663   .text.LCD_ShowChinese:000000000000004c .L0 
GAS LISTING /tmp/ccIfjRGV.s 			page 300


     /tmp/ccIfjRGV.s:7664   .text.LCD_ShowChinese:000000000000004c .L0 
     /tmp/ccIfjRGV.s:7665   .text.LCD_ShowChinese:000000000000004c .L0 
     /tmp/ccIfjRGV.s:7670   .text.LCD_ShowChinese:0000000000000056 .L0 
     /tmp/ccIfjRGV.s:7673   .text.LCD_ShowChinese:000000000000005a .L0 
     /tmp/ccIfjRGV.s:7675   .text.LCD_ShowChinese:000000000000005c .L0 
     /tmp/ccIfjRGV.s:7677   .text.LCD_ShowChinese:0000000000000060 .L0 
     /tmp/ccIfjRGV.s:7681   .text.LCD_ShowChinese:0000000000000062 .L0 
     /tmp/ccIfjRGV.s:7685   .text.LCD_ShowChinese:0000000000000064 .L0 
     /tmp/ccIfjRGV.s:7686   .text.LCD_ShowChinese:0000000000000064 .L0 
     /tmp/ccIfjRGV.s:7687   .text.LCD_ShowChinese:0000000000000064 .L0 
     /tmp/ccIfjRGV.s:7688   .text.LCD_ShowChinese:0000000000000064 .L0 
     /tmp/ccIfjRGV.s:7690   .text.LCD_ShowChinese:0000000000000068 .L0 
     /tmp/ccIfjRGV.s:7692   .text.LCD_ShowChinese:000000000000006a .L0 
     /tmp/ccIfjRGV.s:7695   .text.LCD_ShowChinese:0000000000000070 .L0 
     /tmp/ccIfjRGV.s:7698   .text.LCD_ShowChinese:0000000000000072 .L0 
     /tmp/ccIfjRGV.s:7706   .text.LCD_ShowChinese:0000000000000080 .L0 
     /tmp/ccIfjRGV.s:7708   .text.LCD_ShowChinese:0000000000000084 .L0 
     /tmp/ccIfjRGV.s:7709   .text.LCD_ShowChinese:0000000000000084 .L0 
     /tmp/ccIfjRGV.s:7713   .text.LCD_ShowChinese:000000000000008a .L0 
     /tmp/ccIfjRGV.s:7716   .text.LCD_ShowChinese:000000000000008c .L0 
     /tmp/ccIfjRGV.s:7720   .text.LCD_ShowChinese:0000000000000090 .L0 
     /tmp/ccIfjRGV.s:7721   .text.LCD_ShowChinese:0000000000000092 .L0 
     /tmp/ccIfjRGV.s:7722   .text.LCD_ShowChinese:0000000000000092 .L0 
     /tmp/ccIfjRGV.s:7724   .text.LCD_ShowChinese:0000000000000094 .L0 
     /tmp/ccIfjRGV.s:7726   .text.LCD_ShowChinese:0000000000000096 .L0 
     /tmp/ccIfjRGV.s:7729   .text.LCD_ShowChinese:0000000000000098 .L0 
     /tmp/ccIfjRGV.s:7732   .text.LCD_ShowChinese:000000000000009a .L0 
     /tmp/ccIfjRGV.s:7734   .text.LCD_ShowChinese:000000000000009c .L0 
     /tmp/ccIfjRGV.s:7736   .text.LCD_ShowChinese:000000000000009e .L0 
     /tmp/ccIfjRGV.s:7738   .text.LCD_ShowChinese:00000000000000a0 .L0 
     /tmp/ccIfjRGV.s:7741   .text.LCD_ShowChinese:00000000000000a2 .L0 
     /tmp/ccIfjRGV.s:7746   .text.LCD_ShowChinese:00000000000000a4 .L0 
     /tmp/ccIfjRGV.s:7748   .text.LCD_ShowChinese:00000000000000a4 .L0 
     /tmp/ccIfjRGV.s:7751   .text.LCD_ShowChinese:00000000000000ac .L0 
     /tmp/ccIfjRGV.s:7752   .text.LCD_ShowChinese:00000000000000ac .L0 
     /tmp/ccIfjRGV.s:7753   .text.LCD_ShowChinese:00000000000000ac .L0 
     /tmp/ccIfjRGV.s:7758   .text.LCD_ShowChinese:00000000000000b6 .L0 
     /tmp/ccIfjRGV.s:7759   .text.LCD_ShowChinese:00000000000000b8 .L0 
     /tmp/ccIfjRGV.s:7766   .text.LCD_DrawPoint:0000000000000000 LCD_DrawPoint
     /tmp/ccIfjRGV.s:7769   .text.LCD_DrawPoint:0000000000000000 .L0 
     /tmp/ccIfjRGV.s:7771   .text.LCD_DrawPoint:0000000000000000 .L0 
     /tmp/ccIfjRGV.s:7772   .text.LCD_DrawPoint:0000000000000000 .L0 
     /tmp/ccIfjRGV.s:7773   .text.LCD_DrawPoint:0000000000000000 .L0 
     /tmp/ccIfjRGV.s:7775   .text.LCD_DrawPoint:0000000000000002 .L0 
     /tmp/ccIfjRGV.s:7778   .text.LCD_DrawPoint:0000000000000004 .L0 
     /tmp/ccIfjRGV.s:7779   .text.LCD_DrawPoint:0000000000000006 .L0 
     /tmp/ccIfjRGV.s:7781   .text.LCD_DrawPoint:0000000000000006 .L0 
     /tmp/ccIfjRGV.s:7783   .text.LCD_DrawPoint:0000000000000008 .L0 
     /tmp/ccIfjRGV.s:7786   .text.LCD_DrawPoint:000000000000000a .L0 
     /tmp/ccIfjRGV.s:7787   .text.LCD_DrawPoint:000000000000000c .L0 
     /tmp/ccIfjRGV.s:7789   .text.LCD_DrawPoint:000000000000000c .L0 
     /tmp/ccIfjRGV.s:7792   .text.LCD_DrawPoint:0000000000000014 .L0 
     /tmp/ccIfjRGV.s:7794   .text.LCD_DrawPoint:0000000000000016 .L0 
     /tmp/ccIfjRGV.s:7795   .text.LCD_DrawPoint:0000000000000018 .L0 
     /tmp/ccIfjRGV.s:7798   .text.LCD_DrawPoint:000000000000001a .L0 
     /tmp/ccIfjRGV.s:7801   .text.LCD_DrawPoint:000000000000001c .L0 
     /tmp/ccIfjRGV.s:7803   .text.LCD_DrawPoint:000000000000001c .L0 
GAS LISTING /tmp/ccIfjRGV.s 			page 301


     /tmp/ccIfjRGV.s:7805   .text.LCD_DrawPoint:0000000000000024 .L0 
     /tmp/ccIfjRGV.s:7812   .text.LCD_Fill:0000000000000000 LCD_Fill
     /tmp/ccIfjRGV.s:7815   .text.LCD_Fill:0000000000000000 .L0 
     /tmp/ccIfjRGV.s:7817   .text.LCD_Fill:0000000000000000 .L0 
     /tmp/ccIfjRGV.s:7818   .text.LCD_Fill:0000000000000000 .L0 
     /tmp/ccIfjRGV.s:7819   .text.LCD_Fill:0000000000000000 .L0 
     /tmp/ccIfjRGV.s:7820   .text.LCD_Fill:0000000000000000 .L0 
     /tmp/ccIfjRGV.s:7822   .text.LCD_Fill:0000000000000002 .L0 
     /tmp/ccIfjRGV.s:7825   .text.LCD_Fill:0000000000000006 .L0 
     /tmp/ccIfjRGV.s:7826   .text.LCD_Fill:0000000000000006 .L0 
     /tmp/ccIfjRGV.s:7834   .text.LCD_Fill:0000000000000014 .L0 
     /tmp/ccIfjRGV.s:7835   .text.LCD_Fill:0000000000000014 .L0 
     /tmp/ccIfjRGV.s:7836   .text.LCD_Fill:0000000000000014 .L0 
     /tmp/ccIfjRGV.s:7837   .text.LCD_Fill:0000000000000014 .L0 
     /tmp/ccIfjRGV.s:7838   .text.LCD_Fill:0000000000000014 .L0 
     /tmp/ccIfjRGV.s:7840   .text.LCD_Fill:0000000000000014 .L0 
     /tmp/ccIfjRGV.s:7844   .text.LCD_Fill:000000000000001a .L0 
     /tmp/ccIfjRGV.s:7847   .text.LCD_Fill:0000000000000022 .L0 
     /tmp/ccIfjRGV.s:7851   .text.LCD_Fill:0000000000000026 .L0 
     /tmp/ccIfjRGV.s:7856   .text.LCD_Fill:000000000000002c .L0 
     /tmp/ccIfjRGV.s:7857   .text.LCD_Fill:000000000000002c .L0 
     /tmp/ccIfjRGV.s:7860   .text.LCD_Fill:000000000000002e .L0 
     /tmp/ccIfjRGV.s:7864   .text.LCD_Fill:0000000000000038 .L0 
     /tmp/ccIfjRGV.s:7867   .text.LCD_Fill:000000000000003c .L0 
     /tmp/ccIfjRGV.s:7870   .text.LCD_Fill:000000000000003e .L0 
     /tmp/ccIfjRGV.s:7874   .text.LCD_Fill:0000000000000042 .L0 
     /tmp/ccIfjRGV.s:7875   .text.LCD_Fill:0000000000000044 .L0 
     /tmp/ccIfjRGV.s:7877   .text.LCD_Fill:0000000000000046 .L0 
     /tmp/ccIfjRGV.s:7879   .text.LCD_Fill:0000000000000048 .L0 
     /tmp/ccIfjRGV.s:7882   .text.LCD_Fill:000000000000004a .L0 
     /tmp/ccIfjRGV.s:7885   .text.LCD_Fill:000000000000004c .L0 
     /tmp/ccIfjRGV.s:7888   .text.LCD_Fill:000000000000004e .L0 
     /tmp/ccIfjRGV.s:7891   .text.LCD_Fill:0000000000000050 .L0 
     /tmp/ccIfjRGV.s:7895   .text.LCD_Fill:0000000000000052 .L0 
     /tmp/ccIfjRGV.s:7897   .text.LCD_Fill:0000000000000054 .L0 
     /tmp/ccIfjRGV.s:7904   .text.LCD_DrawPoint_big:0000000000000000 LCD_DrawPoint_big
     /tmp/ccIfjRGV.s:7907   .text.LCD_DrawPoint_big:0000000000000000 .L0 
     /tmp/ccIfjRGV.s:7909   .text.LCD_DrawPoint_big:0000000000000000 .L0 
     /tmp/ccIfjRGV.s:7910   .text.LCD_DrawPoint_big:0000000000000000 .L0 
     /tmp/ccIfjRGV.s:7920   .text.LCD_DrawPoint_big:0000000000000016 .L0 
     /tmp/ccIfjRGV.s:7927   .text.LCD_DrawLine:0000000000000000 LCD_DrawLine
     /tmp/ccIfjRGV.s:7930   .text.LCD_DrawLine:0000000000000000 .L0 
     /tmp/ccIfjRGV.s:7932   .text.LCD_DrawLine:0000000000000000 .L0 
     /tmp/ccIfjRGV.s:7933   .text.LCD_DrawLine:0000000000000000 .L0 
     /tmp/ccIfjRGV.s:7934   .text.LCD_DrawLine:0000000000000000 .L0 
     /tmp/ccIfjRGV.s:7935   .text.LCD_DrawLine:0000000000000000 .L0 
     /tmp/ccIfjRGV.s:7936   .text.LCD_DrawLine:0000000000000000 .L0 
     /tmp/ccIfjRGV.s:7937   .text.LCD_DrawLine:0000000000000000 .L0 
     /tmp/ccIfjRGV.s:7939   .text.LCD_DrawLine:0000000000000002 .L0 
     /tmp/ccIfjRGV.s:7952   .text.LCD_DrawLine:000000000000001a .L0 
     /tmp/ccIfjRGV.s:7953   .text.LCD_DrawLine:000000000000001a .L0 
     /tmp/ccIfjRGV.s:7954   .text.LCD_DrawLine:000000000000001a .L0 
     /tmp/ccIfjRGV.s:7955   .text.LCD_DrawLine:000000000000001a .L0 
     /tmp/ccIfjRGV.s:7956   .text.LCD_DrawLine:000000000000001a .L0 
     /tmp/ccIfjRGV.s:7957   .text.LCD_DrawLine:000000000000001a .L0 
     /tmp/ccIfjRGV.s:7958   .text.LCD_DrawLine:000000000000001a .L0 
     /tmp/ccIfjRGV.s:7959   .text.LCD_DrawLine:000000000000001a .L0 
GAS LISTING /tmp/ccIfjRGV.s 			page 302


     /tmp/ccIfjRGV.s:7960   .text.LCD_DrawLine:000000000000001a .L0 
     /tmp/ccIfjRGV.s:7961   .text.LCD_DrawLine:000000000000001a .L0 
     /tmp/ccIfjRGV.s:7962   .text.LCD_DrawLine:000000000000001a .L0 
     /tmp/ccIfjRGV.s:7963   .text.LCD_DrawLine:000000000000001a .L0 
     /tmp/ccIfjRGV.s:7965   .text.LCD_DrawLine:000000000000001a .L0 
     /tmp/ccIfjRGV.s:7968   .text.LCD_DrawLine:000000000000001e .L0 
     /tmp/ccIfjRGV.s:7969   .text.LCD_DrawLine:000000000000001e .L0 
     /tmp/ccIfjRGV.s:7971   .text.LCD_DrawLine:0000000000000020 .L0 
     /tmp/ccIfjRGV.s:7974   .text.LCD_DrawLine:0000000000000024 .L0 
     /tmp/ccIfjRGV.s:7975   .text.LCD_DrawLine:0000000000000024 .L0 
     /tmp/ccIfjRGV.s:7978   .text.LCD_DrawLine:0000000000000026 .L0 
     /tmp/ccIfjRGV.s:7979   .text.LCD_DrawLine:0000000000000026 .L0 
     /tmp/ccIfjRGV.s:7982   .text.LCD_DrawLine:0000000000000028 .L0 
     /tmp/ccIfjRGV.s:7983   .text.LCD_DrawLine:0000000000000028 .L0 
     /tmp/ccIfjRGV.s:7985   .text.LCD_DrawLine:000000000000002a .L0 
     /tmp/ccIfjRGV.s:7989   .text.LCD_DrawLine:000000000000002e .L0 
     /tmp/ccIfjRGV.s:7990   .text.LCD_DrawLine:000000000000002e .L0 
     /tmp/ccIfjRGV.s:7992   .text.LCD_DrawLine:0000000000000030 .L0 
     /tmp/ccIfjRGV.s:7996   .text.LCD_DrawLine:0000000000000034 .L0 
     /tmp/ccIfjRGV.s:8003   .text.LCD_DrawLine:000000000000003c .L0 
     /tmp/ccIfjRGV.s:8004   .text.LCD_DrawLine:000000000000003c .L0 
     /tmp/ccIfjRGV.s:8006   .text.LCD_DrawLine:000000000000003e .L0 
     /tmp/ccIfjRGV.s:8008   .text.LCD_DrawLine:0000000000000040 .L0 
     /tmp/ccIfjRGV.s:8014   .text.LCD_DrawLine:0000000000000042 .L0 
     /tmp/ccIfjRGV.s:8015   .text.LCD_DrawLine:0000000000000042 .L0 
     /tmp/ccIfjRGV.s:8022   .text.LCD_DrawLine:0000000000000052 .L0 
     /tmp/ccIfjRGV.s:8026   .text.LCD_DrawLine:0000000000000054 .L0 
     /tmp/ccIfjRGV.s:8031   .text.LCD_DrawLine:0000000000000056 .L0 
     /tmp/ccIfjRGV.s:8036   .text.LCD_DrawLine:000000000000005e .L0 
     /tmp/ccIfjRGV.s:8037   .text.LCD_DrawLine:000000000000005e .L0 
     /tmp/ccIfjRGV.s:8038   .text.LCD_DrawLine:000000000000005e .L0 
     /tmp/ccIfjRGV.s:8039   .text.LCD_DrawLine:000000000000005e .L0 
     /tmp/ccIfjRGV.s:8040   .text.LCD_DrawLine:000000000000005e .L0 
     /tmp/ccIfjRGV.s:8043   .text.LCD_DrawLine:0000000000000060 .L0 
     /tmp/ccIfjRGV.s:8044   .text.LCD_DrawLine:0000000000000060 .L0 
     /tmp/ccIfjRGV.s:8046   .text.LCD_DrawLine:0000000000000064 .L0 
     /tmp/ccIfjRGV.s:8049   .text.LCD_DrawLine:0000000000000066 .L0 
     /tmp/ccIfjRGV.s:8050   .text.LCD_DrawLine:0000000000000066 .L0 
     /tmp/ccIfjRGV.s:8054   .text.LCD_DrawLine:0000000000000068 .L0 
     /tmp/ccIfjRGV.s:8055   .text.LCD_DrawLine:0000000000000068 .L0 
     /tmp/ccIfjRGV.s:8057   .text.LCD_DrawLine:000000000000006c .L0 
     /tmp/ccIfjRGV.s:8060   .text.LCD_DrawLine:0000000000000070 .L0 
     /tmp/ccIfjRGV.s:8061   .text.LCD_DrawLine:0000000000000070 .L0 
     /tmp/ccIfjRGV.s:8065   .text.LCD_DrawLine:0000000000000072 .L0 
     /tmp/ccIfjRGV.s:8068   .text.LCD_DrawLine:0000000000000076 .L0 
     /tmp/ccIfjRGV.s:8073   .text.LCD_DrawLine:000000000000007e .L0 
     /tmp/ccIfjRGV.s:8074   .text.LCD_DrawLine:0000000000000080 .L0 
     /tmp/ccIfjRGV.s:8075   .text.LCD_DrawLine:0000000000000080 .L0 
     /tmp/ccIfjRGV.s:8077   .text.LCD_DrawLine:0000000000000082 .L0 
     /tmp/ccIfjRGV.s:8080   .text.LCD_DrawLine:0000000000000084 .L0 
     /tmp/ccIfjRGV.s:8083   .text.LCD_DrawLine:0000000000000086 .L0 
     /tmp/ccIfjRGV.s:8086   .text.LCD_DrawLine:0000000000000088 .L0 
     /tmp/ccIfjRGV.s:8089   .text.LCD_DrawLine:000000000000008a .L0 
     /tmp/ccIfjRGV.s:8092   .text.LCD_DrawLine:000000000000008c .L0 
     /tmp/ccIfjRGV.s:8094   .text.LCD_DrawLine:000000000000008e .L0 
     /tmp/ccIfjRGV.s:8097   .text.LCD_DrawLine:0000000000000090 .L0 
     /tmp/ccIfjRGV.s:8100   .text.LCD_DrawLine:0000000000000092 .L0 
GAS LISTING /tmp/ccIfjRGV.s 			page 303


     /tmp/ccIfjRGV.s:8103   .text.LCD_DrawLine:0000000000000094 .L0 
     /tmp/ccIfjRGV.s:8106   .text.LCD_DrawLine:0000000000000096 .L0 
     /tmp/ccIfjRGV.s:8110   .text.LCD_DrawLine:0000000000000098 .L0 
     /tmp/ccIfjRGV.s:8115   .text.LCD_DrawLine:000000000000009a .L0 
     /tmp/ccIfjRGV.s:8117   .text.LCD_DrawLine:000000000000009a .L0 
     /tmp/ccIfjRGV.s:8118   .text.LCD_DrawLine:000000000000009a .L0 
     /tmp/ccIfjRGV.s:8120   .text.LCD_DrawLine:000000000000009c .L0 
     /tmp/ccIfjRGV.s:8123   .text.LCD_DrawLine:00000000000000a0 .L0 
     /tmp/ccIfjRGV.s:8124   .text.LCD_DrawLine:00000000000000a0 .L0 
     /tmp/ccIfjRGV.s:8125   .text.LCD_DrawLine:00000000000000a0 .L0 
     /tmp/ccIfjRGV.s:8128   .text.LCD_DrawLine:00000000000000a4 .L0 
     /tmp/ccIfjRGV.s:8131   .text.LCD_DrawLine:00000000000000a6 .L0 
     /tmp/ccIfjRGV.s:8132   .text.LCD_DrawLine:00000000000000a6 .L0 
     /tmp/ccIfjRGV.s:8134   .text.LCD_DrawLine:00000000000000a8 .L0 
     /tmp/ccIfjRGV.s:8137   .text.LCD_DrawLine:00000000000000ac .L0 
     /tmp/ccIfjRGV.s:8138   .text.LCD_DrawLine:00000000000000ac .L0 
     /tmp/ccIfjRGV.s:8140   .text.LCD_DrawLine:00000000000000ae .L0 
     /tmp/ccIfjRGV.s:8143   .text.LCD_DrawLine:00000000000000b2 .L0 
     /tmp/ccIfjRGV.s:8144   .text.LCD_DrawLine:00000000000000b2 .L0 
     /tmp/ccIfjRGV.s:8145   .text.LCD_DrawLine:00000000000000b2 .L0 
     /tmp/ccIfjRGV.s:8148   .text.LCD_DrawLine:00000000000000b6 .L0 
     /tmp/ccIfjRGV.s:8150   .text.LCD_DrawLine:00000000000000ba .L0 
     /tmp/ccIfjRGV.s:8157   .text.LCD_DrawRectangle:0000000000000000 LCD_DrawRectangle
     /tmp/ccIfjRGV.s:8160   .text.LCD_DrawRectangle:0000000000000000 .L0 
     /tmp/ccIfjRGV.s:8162   .text.LCD_DrawRectangle:0000000000000000 .L0 
     /tmp/ccIfjRGV.s:8163   .text.LCD_DrawRectangle:0000000000000000 .L0 
     /tmp/ccIfjRGV.s:8164   .text.LCD_DrawRectangle:0000000000000000 .L0 
     /tmp/ccIfjRGV.s:8166   .text.LCD_DrawRectangle:0000000000000002 .L0 
     /tmp/ccIfjRGV.s:8168   .text.LCD_DrawRectangle:0000000000000004 .L0 
     /tmp/ccIfjRGV.s:8171   .text.LCD_DrawRectangle:0000000000000006 .L0 
     /tmp/ccIfjRGV.s:8174   .text.LCD_DrawRectangle:0000000000000008 .L0 
     /tmp/ccIfjRGV.s:8179   .text.LCD_DrawRectangle:0000000000000012 .L0 
     /tmp/ccIfjRGV.s:8180   .text.LCD_DrawRectangle:0000000000000012 .L0 
     /tmp/ccIfjRGV.s:8181   .text.LCD_DrawRectangle:0000000000000012 .L0 
     /tmp/ccIfjRGV.s:8182   .text.LCD_DrawRectangle:0000000000000012 .L0 
     /tmp/ccIfjRGV.s:8183   .text.LCD_DrawRectangle:0000000000000012 .L0 
     /tmp/ccIfjRGV.s:8185   .text.LCD_DrawRectangle:0000000000000012 .L0 
     /tmp/ccIfjRGV.s:8190   .text.LCD_DrawRectangle:000000000000001a .L0 
     /tmp/ccIfjRGV.s:8193   .text.LCD_DrawRectangle:0000000000000022 .L0 
     /tmp/ccIfjRGV.s:8201   .text.LCD_DrawRectangle:0000000000000034 .L0 
     /tmp/ccIfjRGV.s:8209   .text.LCD_DrawRectangle:0000000000000046 .L0 
     /tmp/ccIfjRGV.s:8211   .text.LCD_DrawRectangle:0000000000000048 .L0 
     /tmp/ccIfjRGV.s:8212   .text.LCD_DrawRectangle:000000000000004a .L0 
     /tmp/ccIfjRGV.s:8215   .text.LCD_DrawRectangle:000000000000004c .L0 
     /tmp/ccIfjRGV.s:8217   .text.LCD_DrawRectangle:000000000000004e .L0 
     /tmp/ccIfjRGV.s:8220   .text.LCD_DrawRectangle:000000000000004e .L0 
     /tmp/ccIfjRGV.s:8223   .text.LCD_DrawRectangle:0000000000000052 .L0 
     /tmp/ccIfjRGV.s:8224   .text.LCD_DrawRectangle:0000000000000054 .L0 
     /tmp/ccIfjRGV.s:8227   .text.LCD_DrawRectangle:0000000000000054 .L0 
     /tmp/ccIfjRGV.s:8230   .text.LCD_DrawRectangle:0000000000000058 .L0 
     /tmp/ccIfjRGV.s:8231   .text.LCD_DrawRectangle:000000000000005a .L0 
     /tmp/ccIfjRGV.s:8234   .text.LCD_DrawRectangle:000000000000005c .L0 
     /tmp/ccIfjRGV.s:8238   .text.LCD_DrawRectangle:000000000000005e .L0 
     /tmp/ccIfjRGV.s:8240   .text.LCD_DrawRectangle:000000000000005e .L0 
     /tmp/ccIfjRGV.s:8242   .text.LCD_DrawRectangle:0000000000000066 .L0 
     /tmp/ccIfjRGV.s:8249   .text.Draw_Circle:0000000000000000 Draw_Circle
     /tmp/ccIfjRGV.s:8252   .text.Draw_Circle:0000000000000000 .L0 
GAS LISTING /tmp/ccIfjRGV.s 			page 304


     /tmp/ccIfjRGV.s:8254   .text.Draw_Circle:0000000000000000 .L0 
     /tmp/ccIfjRGV.s:8255   .text.Draw_Circle:0000000000000000 .L0 
     /tmp/ccIfjRGV.s:8256   .text.Draw_Circle:0000000000000000 .L0 
     /tmp/ccIfjRGV.s:8257   .text.Draw_Circle:0000000000000000 .L0 
     /tmp/ccIfjRGV.s:8258   .text.Draw_Circle:0000000000000000 .L0 
     /tmp/ccIfjRGV.s:8260   .text.Draw_Circle:0000000000000004 .L0 
     /tmp/ccIfjRGV.s:8262   .text.Draw_Circle:0000000000000006 .L0 
     /tmp/ccIfjRGV.s:8276   .text.Draw_Circle:0000000000000020 .L0 
     /tmp/ccIfjRGV.s:8277   .text.Draw_Circle:0000000000000020 .L0 
     /tmp/ccIfjRGV.s:8278   .text.Draw_Circle:0000000000000020 .L0 
     /tmp/ccIfjRGV.s:8279   .text.Draw_Circle:0000000000000020 .L0 
     /tmp/ccIfjRGV.s:8280   .text.Draw_Circle:0000000000000020 .L0 
     /tmp/ccIfjRGV.s:8281   .text.Draw_Circle:0000000000000020 .L0 
     /tmp/ccIfjRGV.s:8282   .text.Draw_Circle:0000000000000020 .L0 
     /tmp/ccIfjRGV.s:8283   .text.Draw_Circle:0000000000000020 .L0 
     /tmp/ccIfjRGV.s:8284   .text.Draw_Circle:0000000000000020 .L0 
     /tmp/ccIfjRGV.s:8285   .text.Draw_Circle:0000000000000020 .L0 
     /tmp/ccIfjRGV.s:8286   .text.Draw_Circle:0000000000000020 .L0 
     /tmp/ccIfjRGV.s:8287   .text.Draw_Circle:0000000000000020 .L0 
     /tmp/ccIfjRGV.s:8288   .text.Draw_Circle:0000000000000020 .L0 
     /tmp/ccIfjRGV.s:8290   .text.Draw_Circle:0000000000000020 .L0 
     /tmp/ccIfjRGV.s:8293   .text.Draw_Circle:0000000000000022 .L0 
     /tmp/ccIfjRGV.s:8294   .text.Draw_Circle:0000000000000022 .L0 
     /tmp/ccIfjRGV.s:8296   .text.Draw_Circle:0000000000000024 .L0 
     /tmp/ccIfjRGV.s:8300   .text.Draw_Circle:000000000000002a .L0 
     /tmp/ccIfjRGV.s:8304   .text.Draw_Circle:000000000000002c .L0 
     /tmp/ccIfjRGV.s:8310   .text.Draw_Circle:0000000000000034 .L0 
     /tmp/ccIfjRGV.s:8317   .text.Draw_Circle:0000000000000044 .L0 
     /tmp/ccIfjRGV.s:8323   .text.Draw_Circle:000000000000004e .L0 
     /tmp/ccIfjRGV.s:8328   .text.Draw_Circle:0000000000000052 .L0 
     /tmp/ccIfjRGV.s:8335   .text.Draw_Circle:0000000000000062 .L0 
     /tmp/ccIfjRGV.s:8341   .text.Draw_Circle:000000000000006c .L0 
     /tmp/ccIfjRGV.s:8347   .text.Draw_Circle:0000000000000074 .L0 
     /tmp/ccIfjRGV.s:8354   .text.Draw_Circle:0000000000000084 .L0 
     /tmp/ccIfjRGV.s:8360   .text.Draw_Circle:000000000000008e .L0 
     /tmp/ccIfjRGV.s:8365   .text.Draw_Circle:0000000000000092 .L0 
     /tmp/ccIfjRGV.s:8372   .text.Draw_Circle:00000000000000a2 .L0 
     /tmp/ccIfjRGV.s:8379   .text.Draw_Circle:00000000000000b0 .L0 
     /tmp/ccIfjRGV.s:8384   .text.Draw_Circle:00000000000000b2 .L0 
     /tmp/ccIfjRGV.s:8391   .text.Draw_Circle:00000000000000c2 .L0 
     /tmp/ccIfjRGV.s:8397   .text.Draw_Circle:00000000000000cc .L0 
     /tmp/ccIfjRGV.s:8402   .text.Draw_Circle:00000000000000ce .L0 
     /tmp/ccIfjRGV.s:8409   .text.Draw_Circle:00000000000000de .L0 
     /tmp/ccIfjRGV.s:8417   .text.Draw_Circle:00000000000000e8 .L0 
     /tmp/ccIfjRGV.s:8418   .text.Draw_Circle:00000000000000e8 .L0 
     /tmp/ccIfjRGV.s:8425   .text.Draw_Circle:00000000000000f8 .L0 
     /tmp/ccIfjRGV.s:8433   .text.Draw_Circle:0000000000000102 .L0 
     /tmp/ccIfjRGV.s:8434   .text.Draw_Circle:0000000000000102 .L0 
     /tmp/ccIfjRGV.s:8441   .text.Draw_Circle:0000000000000112 .L0 
     /tmp/ccIfjRGV.s:8447   .text.Draw_Circle:000000000000011c .L0 
     /tmp/ccIfjRGV.s:8448   .text.Draw_Circle:000000000000011c .L0 
     /tmp/ccIfjRGV.s:8451   .text.Draw_Circle:000000000000011e .L0 
     /tmp/ccIfjRGV.s:8452   .text.Draw_Circle:000000000000011e .L0 
     /tmp/ccIfjRGV.s:8454   .text.Draw_Circle:0000000000000122 .L0 
     /tmp/ccIfjRGV.s:8456   .text.Draw_Circle:0000000000000126 .L0 
     /tmp/ccIfjRGV.s:8458   .text.Draw_Circle:0000000000000128 .L0 
     /tmp/ccIfjRGV.s:8463   .text.Draw_Circle:0000000000000132 .L0 
GAS LISTING /tmp/ccIfjRGV.s 			page 305


     /tmp/ccIfjRGV.s:8465   .text.Draw_Circle:0000000000000136 .L0 
     /tmp/ccIfjRGV.s:8466   .text.Draw_Circle:0000000000000138 .L0 
     /tmp/ccIfjRGV.s:8468   .text.Draw_Circle:000000000000013a .L0 
     /tmp/ccIfjRGV.s:8470   .text.Draw_Circle:000000000000013c .L0 
     /tmp/ccIfjRGV.s:8472   .text.Draw_Circle:000000000000013e .L0 
     /tmp/ccIfjRGV.s:8475   .text.Draw_Circle:0000000000000140 .L0 
     /tmp/ccIfjRGV.s:8478   .text.Draw_Circle:0000000000000142 .L0 
     /tmp/ccIfjRGV.s:8481   .text.Draw_Circle:0000000000000144 .L0 
     /tmp/ccIfjRGV.s:8484   .text.Draw_Circle:0000000000000146 .L0 
     /tmp/ccIfjRGV.s:8487   .text.Draw_Circle:0000000000000148 .L0 
     /tmp/ccIfjRGV.s:8489   .text.Draw_Circle:000000000000014a .L0 
     /tmp/ccIfjRGV.s:8491   .text.Draw_Circle:000000000000014c .L0 
     /tmp/ccIfjRGV.s:8493   .text.Draw_Circle:000000000000014e .L0 
     /tmp/ccIfjRGV.s:8495   .text.Draw_Circle:0000000000000150 .L0 
     /tmp/ccIfjRGV.s:8498   .text.Draw_Circle:0000000000000152 .L0 
     /tmp/ccIfjRGV.s:8500   .text.Draw_Circle:0000000000000154 .L0 
     /tmp/ccIfjRGV.s:8507   .text.LCD_ShowChar:0000000000000000 LCD_ShowChar
     /tmp/ccIfjRGV.s:8510   .text.LCD_ShowChar:0000000000000000 .L0 
     /tmp/ccIfjRGV.s:8512   .text.LCD_ShowChar:0000000000000000 .L0 
     /tmp/ccIfjRGV.s:8513   .text.LCD_ShowChar:0000000000000000 .L0 
     /tmp/ccIfjRGV.s:8514   .text.LCD_ShowChar:0000000000000000 .L0 
     /tmp/ccIfjRGV.s:8515   .text.LCD_ShowChar:0000000000000000 .L0 
     /tmp/ccIfjRGV.s:8516   .text.LCD_ShowChar:0000000000000000 .L0 
     /tmp/ccIfjRGV.s:8517   .text.LCD_ShowChar:0000000000000000 .L0 
     /tmp/ccIfjRGV.s:8520   .text.LCD_ShowChar:0000000000000008 .L0 
     /tmp/ccIfjRGV.s:8524   .text.LCD_ShowChar:0000000000000010 .L0 
     /tmp/ccIfjRGV.s:8528   .text.LCD_ShowChar:000000000000001a .L0 
     /tmp/ccIfjRGV.s:8535   .text.LCD_ShowString:0000000000000000 LCD_ShowString
     /tmp/ccIfjRGV.s:8538   .text.LCD_ShowString:0000000000000000 .L0 
     /tmp/ccIfjRGV.s:8540   .text.LCD_ShowString:0000000000000000 .L0 
     /tmp/ccIfjRGV.s:8541   .text.LCD_ShowString:0000000000000000 .L0 
     /tmp/ccIfjRGV.s:8542   .text.LCD_ShowString:0000000000000000 .L0 
     /tmp/ccIfjRGV.s:8545   .text.LCD_ShowString:0000000000000006 .L0 
     /tmp/ccIfjRGV.s:8547   .text.LCD_ShowString:0000000000000008 .L0 
     /tmp/ccIfjRGV.s:8549   .text.LCD_ShowString:000000000000000a .L0 
     /tmp/ccIfjRGV.s:8551   .text.LCD_ShowString:000000000000000a .L0 
     /tmp/ccIfjRGV.s:8553   .text.LCD_ShowString:000000000000000c .L0 
     /tmp/ccIfjRGV.s:8560   .text.LCD_ShowString:000000000000001a .L0 
     /tmp/ccIfjRGV.s:8561   .text.LCD_ShowString:000000000000001a .L0 
     /tmp/ccIfjRGV.s:8562   .text.LCD_ShowString:000000000000001a .L0 
     /tmp/ccIfjRGV.s:8563   .text.LCD_ShowString:000000000000001a .L0 
     /tmp/ccIfjRGV.s:8564   .text.LCD_ShowString:000000000000001a .L0 
     /tmp/ccIfjRGV.s:8565   .text.LCD_ShowString:000000000000001a .L0 
     /tmp/ccIfjRGV.s:8566   .text.LCD_ShowString:000000000000001a .L0 
     /tmp/ccIfjRGV.s:8572   .text.LCD_ShowString:0000000000000022 .L0 
     /tmp/ccIfjRGV.s:8574   .text.LCD_ShowString:0000000000000026 .L0 
     /tmp/ccIfjRGV.s:8576   .text.LCD_ShowString:000000000000002a .L0 
     /tmp/ccIfjRGV.s:8580   .text.LCD_ShowString:000000000000002e .L0 
     /tmp/ccIfjRGV.s:8581   .text.LCD_ShowString:000000000000002e .L0 
     /tmp/ccIfjRGV.s:8582   .text.LCD_ShowString:000000000000002e .L0 
     /tmp/ccIfjRGV.s:8583   .text.LCD_ShowString:000000000000002e .L0 
     /tmp/ccIfjRGV.s:8584   .text.LCD_ShowString:000000000000002e .L0 
     /tmp/ccIfjRGV.s:8586   .text.LCD_ShowString:0000000000000032 .L0 
     /tmp/ccIfjRGV.s:8589   .text.LCD_ShowString:0000000000000034 .L0 
     /tmp/ccIfjRGV.s:8590   .text.LCD_ShowString:0000000000000034 .L0 
     /tmp/ccIfjRGV.s:8591   .text.LCD_ShowString:0000000000000034 .L0 
     /tmp/ccIfjRGV.s:8593   .text.LCD_ShowString:0000000000000038 .L0 
GAS LISTING /tmp/ccIfjRGV.s 			page 306


     /tmp/ccIfjRGV.s:8598   .text.LCD_ShowString:000000000000003c .L0 
     /tmp/ccIfjRGV.s:8599   .text.LCD_ShowString:000000000000003c .L0 
     /tmp/ccIfjRGV.s:8600   .text.LCD_ShowString:000000000000003c .L0 
     /tmp/ccIfjRGV.s:8603   .text.LCD_ShowString:000000000000003c .L0 
     /tmp/ccIfjRGV.s:8604   .text.LCD_ShowString:000000000000003c .L0 
     /tmp/ccIfjRGV.s:8606   .text.LCD_ShowString:000000000000003e .L0 
     /tmp/ccIfjRGV.s:8617   .text.LCD_ShowString:0000000000000046 .L0 
     /tmp/ccIfjRGV.s:8626   .text.LCD_ShowString:0000000000000050 .L0 
     /tmp/ccIfjRGV.s:8627   .text.LCD_ShowString:0000000000000050 .L0 
     /tmp/ccIfjRGV.s:8628   .text.LCD_ShowString:0000000000000050 .L0 
     /tmp/ccIfjRGV.s:8631   .text.LCD_ShowString:0000000000000056 .L0 
     /tmp/ccIfjRGV.s:8632   .text.LCD_ShowString:0000000000000058 .L0 
     /tmp/ccIfjRGV.s:8633   .text.LCD_ShowString:0000000000000058 .L0 
     /tmp/ccIfjRGV.s:8635   .text.LCD_ShowString:000000000000005a .L0 
     /tmp/ccIfjRGV.s:8638   .text.LCD_ShowString:000000000000005c .L0 
     /tmp/ccIfjRGV.s:8641   .text.LCD_ShowString:000000000000005e .L0 
     /tmp/ccIfjRGV.s:8643   .text.LCD_ShowString:0000000000000060 .L0 
     /tmp/ccIfjRGV.s:8646   .text.LCD_ShowString:0000000000000062 .L0 
     /tmp/ccIfjRGV.s:8648   .text.LCD_ShowString:0000000000000064 .L0 
     /tmp/ccIfjRGV.s:8650   .text.LCD_ShowString:0000000000000066 .L0 
     /tmp/ccIfjRGV.s:8653   .text.LCD_ShowString:0000000000000068 .L0 
     /tmp/ccIfjRGV.s:8658   .text.LCD_ShowString:000000000000006a .L0 
     /tmp/ccIfjRGV.s:8660   .text.LCD_ShowString:000000000000006a .L0 
     /tmp/ccIfjRGV.s:8661   .text.LCD_ShowString:000000000000006a .L0 
     /tmp/ccIfjRGV.s:8663   .text.LCD_ShowString:000000000000006e .L0 
     /tmp/ccIfjRGV.s:8669   .text.LCD_ShowString:0000000000000074 .L0 
     /tmp/ccIfjRGV.s:8670   .text.LCD_ShowString:0000000000000074 .L0 
     /tmp/ccIfjRGV.s:8671   .text.LCD_ShowString:0000000000000074 .L0 
     /tmp/ccIfjRGV.s:8674   .text.LCD_ShowString:0000000000000074 .L0 
     /tmp/ccIfjRGV.s:8675   .text.LCD_ShowString:0000000000000074 .L0 
     /tmp/ccIfjRGV.s:8681   .text.LCD_ShowString:0000000000000078 .L0 
     /tmp/ccIfjRGV.s:8682   .text.LCD_ShowString:0000000000000078 .L0 
     /tmp/ccIfjRGV.s:8686   .text.LCD_ShowString:0000000000000082 .L0 
     /tmp/ccIfjRGV.s:8692   .text.LCD_ShowString:0000000000000088 .L0 
     /tmp/ccIfjRGV.s:8693   .text.LCD_ShowString:0000000000000088 .L0 
     /tmp/ccIfjRGV.s:8694   .text.LCD_ShowString:0000000000000088 .L0 
     /tmp/ccIfjRGV.s:8697   .text.LCD_ShowString:0000000000000088 .L0 
     /tmp/ccIfjRGV.s:8698   .text.LCD_ShowString:0000000000000088 .L0 
     /tmp/ccIfjRGV.s:8700   .text.LCD_ShowString:000000000000008a .L0 
     /tmp/ccIfjRGV.s:8705   .text.LCD_ShowString:000000000000008e .L0 
     /tmp/ccIfjRGV.s:8706   .text.LCD_ShowString:000000000000008e .L0 
     /tmp/ccIfjRGV.s:8707   .text.LCD_ShowString:000000000000008e .L0 
     /tmp/ccIfjRGV.s:8708   .text.LCD_ShowString:000000000000008e .L0 
     /tmp/ccIfjRGV.s:8709   .text.LCD_ShowString:000000000000008e .L0 
     /tmp/ccIfjRGV.s:8710   .text.LCD_ShowString:000000000000008e .L0 
     /tmp/ccIfjRGV.s:8711   .text.LCD_ShowString:000000000000008e .L0 
     /tmp/ccIfjRGV.s:8712   .text.LCD_ShowString:000000000000008e .L0 
     /tmp/ccIfjRGV.s:8713   .text.LCD_ShowString:000000000000008e .L0 
     /tmp/ccIfjRGV.s:8715   .text.LCD_ShowString:0000000000000090 .L0 
     /tmp/ccIfjRGV.s:8722   .text.LCD_ShowStr:0000000000000000 LCD_ShowStr
     /tmp/ccIfjRGV.s:8725   .text.LCD_ShowStr:0000000000000000 .L0 
     /tmp/ccIfjRGV.s:8727   .text.LCD_ShowStr:0000000000000000 .L0 
     /tmp/ccIfjRGV.s:8728   .text.LCD_ShowStr:0000000000000000 .L0 
     /tmp/ccIfjRGV.s:8729   .text.LCD_ShowStr:0000000000000000 .L0 
     /tmp/ccIfjRGV.s:8731   .text.LCD_ShowStr:0000000000000002 .L0 
     /tmp/ccIfjRGV.s:8740   .text.LCD_ShowStr:0000000000000012 .L0 
     /tmp/ccIfjRGV.s:8741   .text.LCD_ShowStr:0000000000000012 .L0 
GAS LISTING /tmp/ccIfjRGV.s 			page 307


     /tmp/ccIfjRGV.s:8742   .text.LCD_ShowStr:0000000000000012 .L0 
     /tmp/ccIfjRGV.s:8743   .text.LCD_ShowStr:0000000000000012 .L0 
     /tmp/ccIfjRGV.s:8744   .text.LCD_ShowStr:0000000000000012 .L0 
     /tmp/ccIfjRGV.s:8745   .text.LCD_ShowStr:0000000000000012 .L0 
     /tmp/ccIfjRGV.s:8746   .text.LCD_ShowStr:0000000000000012 .L0 
     /tmp/ccIfjRGV.s:8747   .text.LCD_ShowStr:0000000000000012 .L0 
     /tmp/ccIfjRGV.s:8749   .text.LCD_ShowStr:0000000000000012 .L0 
     /tmp/ccIfjRGV.s:8751   .text.LCD_ShowStr:0000000000000014 .L0 
     /tmp/ccIfjRGV.s:8754   .text.LCD_ShowStr:0000000000000018 .L0 
     /tmp/ccIfjRGV.s:8764   .text.LCD_ShowStr:000000000000002a .L0 
     /tmp/ccIfjRGV.s:8765   .text.LCD_ShowStr:000000000000002a .L0 
     /tmp/ccIfjRGV.s:8766   .text.LCD_ShowStr:000000000000002a .L0 
     /tmp/ccIfjRGV.s:8767   .text.LCD_ShowStr:000000000000002a .L0 
     /tmp/ccIfjRGV.s:8768   .text.LCD_ShowStr:000000000000002a .L0 
     /tmp/ccIfjRGV.s:8770   .text.LCD_ShowStr:000000000000002e .L0 
     /tmp/ccIfjRGV.s:8773   .text.LCD_ShowStr:0000000000000030 .L0 
     /tmp/ccIfjRGV.s:8774   .text.LCD_ShowStr:0000000000000030 .L0 
     /tmp/ccIfjRGV.s:8776   .text.LCD_ShowStr:0000000000000034 .L0 
     /tmp/ccIfjRGV.s:8778   .text.LCD_ShowStr:0000000000000036 .L0 
     /tmp/ccIfjRGV.s:8789   .text.LCD_ShowStr:000000000000003e .L0 
     /tmp/ccIfjRGV.s:8798   .text.LCD_ShowStr:0000000000000048 .L0 
     /tmp/ccIfjRGV.s:8799   .text.LCD_ShowStr:0000000000000048 .L0 
     /tmp/ccIfjRGV.s:8800   .text.LCD_ShowStr:0000000000000048 .L0 
     /tmp/ccIfjRGV.s:8802   .text.LCD_ShowStr:000000000000004c .L0 
     /tmp/ccIfjRGV.s:8806   .text.LCD_ShowStr:000000000000004e .L0 
     /tmp/ccIfjRGV.s:8807   .text.LCD_ShowStr:0000000000000050 .L0 
     /tmp/ccIfjRGV.s:8808   .text.LCD_ShowStr:0000000000000050 .L0 
     /tmp/ccIfjRGV.s:8810   .text.LCD_ShowStr:0000000000000052 .L0 
     /tmp/ccIfjRGV.s:8813   .text.LCD_ShowStr:0000000000000054 .L0 
     /tmp/ccIfjRGV.s:8815   .text.LCD_ShowStr:0000000000000056 .L0 
     /tmp/ccIfjRGV.s:8817   .text.LCD_ShowStr:0000000000000058 .L0 
     /tmp/ccIfjRGV.s:8819   .text.LCD_ShowStr:000000000000005a .L0 
     /tmp/ccIfjRGV.s:8821   .text.LCD_ShowStr:000000000000005c .L0 
     /tmp/ccIfjRGV.s:8823   .text.LCD_ShowStr:000000000000005e .L0 
     /tmp/ccIfjRGV.s:8826   .text.LCD_ShowStr:0000000000000060 .L0 
     /tmp/ccIfjRGV.s:8831   .text.LCD_ShowStr:0000000000000062 .L0 
     /tmp/ccIfjRGV.s:8833   .text.LCD_ShowStr:0000000000000062 .L0 
     /tmp/ccIfjRGV.s:8838   .text.LCD_ShowStr:000000000000006c .L0 
     /tmp/ccIfjRGV.s:8845   .text.mypow:0000000000000000 mypow
     /tmp/ccIfjRGV.s:8848   .text.mypow:0000000000000000 .L0 
     /tmp/ccIfjRGV.s:8850   .text.mypow:0000000000000000 .L0 
     /tmp/ccIfjRGV.s:8851   .text.mypow:0000000000000000 .L0 
     /tmp/ccIfjRGV.s:8852   .text.mypow:0000000000000000 .L0 
     /tmp/ccIfjRGV.s:8853   .text.mypow:0000000000000000 .L0 
     /tmp/ccIfjRGV.s:8857   .text.mypow:0000000000000008 .L0 
     /tmp/ccIfjRGV.s:8859   .text.mypow:000000000000000a .L0 
     /tmp/ccIfjRGV.s:8864   .text.mypow:0000000000000010 .L0 
     /tmp/ccIfjRGV.s:8865   .text.mypow:0000000000000010 .L0 
     /tmp/ccIfjRGV.s:8869   .text.mypow:0000000000000016 .L0 
     /tmp/ccIfjRGV.s:8872   .text.mypow:000000000000001a .L0 
     /tmp/ccIfjRGV.s:8876   .text.mypow:000000000000001e .L0 
     /tmp/ccIfjRGV.s:8879   .text.mypow:0000000000000022 .L0 
     /tmp/ccIfjRGV.s:8886   .text.LCD_ShowNum:0000000000000000 LCD_ShowNum
     /tmp/ccIfjRGV.s:8889   .text.LCD_ShowNum:0000000000000000 .L0 
     /tmp/ccIfjRGV.s:8891   .text.LCD_ShowNum:0000000000000000 .L0 
     /tmp/ccIfjRGV.s:8892   .text.LCD_ShowNum:0000000000000000 .L0 
     /tmp/ccIfjRGV.s:8893   .text.LCD_ShowNum:0000000000000000 .L0 
GAS LISTING /tmp/ccIfjRGV.s 			page 308


     /tmp/ccIfjRGV.s:8894   .text.LCD_ShowNum:0000000000000000 .L0 
     /tmp/ccIfjRGV.s:8895   .text.LCD_ShowNum:0000000000000000 .L0 
     /tmp/ccIfjRGV.s:8897   .text.LCD_ShowNum:0000000000000002 .L0 
     /tmp/ccIfjRGV.s:8911   .text.LCD_ShowNum:000000000000001c .L0 
     /tmp/ccIfjRGV.s:8912   .text.LCD_ShowNum:000000000000001c .L0 
     /tmp/ccIfjRGV.s:8913   .text.LCD_ShowNum:000000000000001c .L0 
     /tmp/ccIfjRGV.s:8914   .text.LCD_ShowNum:000000000000001c .L0 
     /tmp/ccIfjRGV.s:8915   .text.LCD_ShowNum:000000000000001c .L0 
     /tmp/ccIfjRGV.s:8916   .text.LCD_ShowNum:000000000000001c .L0 
     /tmp/ccIfjRGV.s:8917   .text.LCD_ShowNum:000000000000001c .L0 
     /tmp/ccIfjRGV.s:8918   .text.LCD_ShowNum:000000000000001c .L0 
     /tmp/ccIfjRGV.s:8919   .text.LCD_ShowNum:000000000000001c .L0 
     /tmp/ccIfjRGV.s:8920   .text.LCD_ShowNum:000000000000001c .L0 
     /tmp/ccIfjRGV.s:8921   .text.LCD_ShowNum:000000000000001c .L0 
     /tmp/ccIfjRGV.s:8922   .text.LCD_ShowNum:000000000000001c .L0 
     /tmp/ccIfjRGV.s:8923   .text.LCD_ShowNum:000000000000001c .L0 
     /tmp/ccIfjRGV.s:8925   .text.LCD_ShowNum:000000000000001c .L0 
     /tmp/ccIfjRGV.s:8927   .text.LCD_ShowNum:000000000000001e .L0 
     /tmp/ccIfjRGV.s:8935   .text.LCD_ShowNum:0000000000000030 .L0 
     /tmp/ccIfjRGV.s:8939   .text.LCD_ShowNum:0000000000000032 .L0 
     /tmp/ccIfjRGV.s:8943   .text.LCD_ShowNum:0000000000000036 .L0 
     /tmp/ccIfjRGV.s:8947   .text.LCD_ShowNum:0000000000000038 .L0 
     /tmp/ccIfjRGV.s:8949   .text.LCD_ShowNum:000000000000003c .L0 
     /tmp/ccIfjRGV.s:8953   .text.LCD_ShowNum:0000000000000040 .L0 
     /tmp/ccIfjRGV.s:8955   .text.LCD_ShowNum:0000000000000044 .L0 
     /tmp/ccIfjRGV.s:8961   .text.LCD_ShowNum:0000000000000048 .L0 
     /tmp/ccIfjRGV.s:8962   .text.LCD_ShowNum:0000000000000048 .L0 
     /tmp/ccIfjRGV.s:8963   .text.LCD_ShowNum:0000000000000048 .L0 
     /tmp/ccIfjRGV.s:8964   .text.LCD_ShowNum:0000000000000048 .L0 
     /tmp/ccIfjRGV.s:8967   .text.LCD_ShowNum:000000000000004e .L0 
     /tmp/ccIfjRGV.s:8971   .text.LCD_ShowNum:0000000000000050 .L0 
     /tmp/ccIfjRGV.s:8972   .text.LCD_ShowNum:0000000000000050 .L0 
     /tmp/ccIfjRGV.s:8974   .text.LCD_ShowNum:0000000000000054 .L0 
     /tmp/ccIfjRGV.s:8977   .text.LCD_ShowNum:0000000000000056 .L0 
     /tmp/ccIfjRGV.s:8980   .text.LCD_ShowNum:0000000000000058 .L0 
     /tmp/ccIfjRGV.s:8982   .text.LCD_ShowNum:000000000000005c .L0 
     /tmp/ccIfjRGV.s:8985   .text.LCD_ShowNum:000000000000005e .L0 
     /tmp/ccIfjRGV.s:8992   .text.LCD_ShowNum:0000000000000066 .L0 
     /tmp/ccIfjRGV.s:8993   .text.LCD_ShowNum:0000000000000066 .L0 
     /tmp/ccIfjRGV.s:8996   .text.LCD_ShowNum:000000000000006a .L0 
     /tmp/ccIfjRGV.s:8997   .text.LCD_ShowNum:000000000000006a .L0 
     /tmp/ccIfjRGV.s:8999   .text.LCD_ShowNum:000000000000006e .L0 
     /tmp/ccIfjRGV.s:9001   .text.LCD_ShowNum:0000000000000072 .L0 
     /tmp/ccIfjRGV.s:9002   .text.LCD_ShowNum:0000000000000072 .L0 
     /tmp/ccIfjRGV.s:9009   .text.LCD_ShowNum:0000000000000076 .L0 
     /tmp/ccIfjRGV.s:9010   .text.LCD_ShowNum:0000000000000076 .L0 
     /tmp/ccIfjRGV.s:9011   .text.LCD_ShowNum:0000000000000076 .L0 
     /tmp/ccIfjRGV.s:9012   .text.LCD_ShowNum:0000000000000076 .L0 
     /tmp/ccIfjRGV.s:9013   .text.LCD_ShowNum:0000000000000076 .L0 
     /tmp/ccIfjRGV.s:9014   .text.LCD_ShowNum:0000000000000076 .L0 
     /tmp/ccIfjRGV.s:9016   .text.LCD_ShowNum:000000000000007a .L0 
     /tmp/ccIfjRGV.s:9034   .text.LCD_ShowNum:000000000000009c .L0 
     /tmp/ccIfjRGV.s:9038   .text.LCD_ShowNum:00000000000000a0 .L0 
     /tmp/ccIfjRGV.s:9039   .text.LCD_ShowNum:00000000000000a2 .L0 
     /tmp/ccIfjRGV.s:9040   .text.LCD_ShowNum:00000000000000a2 .L0 
     /tmp/ccIfjRGV.s:9042   .text.LCD_ShowNum:00000000000000a4 .L0 
     /tmp/ccIfjRGV.s:9044   .text.LCD_ShowNum:00000000000000a6 .L0 
GAS LISTING /tmp/ccIfjRGV.s 			page 309


     /tmp/ccIfjRGV.s:9046   .text.LCD_ShowNum:00000000000000a8 .L0 
     /tmp/ccIfjRGV.s:9048   .text.LCD_ShowNum:00000000000000aa .L0 
     /tmp/ccIfjRGV.s:9050   .text.LCD_ShowNum:00000000000000ac .L0 
     /tmp/ccIfjRGV.s:9052   .text.LCD_ShowNum:00000000000000ae .L0 
     /tmp/ccIfjRGV.s:9054   .text.LCD_ShowNum:00000000000000b0 .L0 
     /tmp/ccIfjRGV.s:9056   .text.LCD_ShowNum:00000000000000b2 .L0 
     /tmp/ccIfjRGV.s:9058   .text.LCD_ShowNum:00000000000000b4 .L0 
     /tmp/ccIfjRGV.s:9060   .text.LCD_ShowNum:00000000000000b6 .L0 
     /tmp/ccIfjRGV.s:9062   .text.LCD_ShowNum:00000000000000b8 .L0 
     /tmp/ccIfjRGV.s:9064   .text.LCD_ShowNum:00000000000000ba .L0 
     /tmp/ccIfjRGV.s:9067   .text.LCD_ShowNum:00000000000000bc .L0 
     /tmp/ccIfjRGV.s:9073   .text.LCD_ShowNum:00000000000000be .L0 
     /tmp/ccIfjRGV.s:9077   .text.LCD_ShowNum:00000000000000be .L0 
     /tmp/ccIfjRGV.s:9086   .text.LCD_ShowNum:00000000000000c2 .L0 
     /tmp/ccIfjRGV.s:9087   .text.LCD_ShowNum:00000000000000c2 .L0 
     /tmp/ccIfjRGV.s:9088   .text.LCD_ShowNum:00000000000000c2 .L0 
     /tmp/ccIfjRGV.s:9089   .text.LCD_ShowNum:00000000000000c2 .L0 
     /tmp/ccIfjRGV.s:9090   .text.LCD_ShowNum:00000000000000c2 .L0 
     /tmp/ccIfjRGV.s:9091   .text.LCD_ShowNum:00000000000000c2 .L0 
     /tmp/ccIfjRGV.s:9093   .text.LCD_ShowNum:00000000000000c6 .L0 
     /tmp/ccIfjRGV.s:9105   .text.LCD_ShowNum:00000000000000e0 .L0 
     /tmp/ccIfjRGV.s:9114   .text.LCD_ShowNum1:0000000000000000 LCD_ShowNum1
     /tmp/ccIfjRGV.s:9117   .text.LCD_ShowNum1:0000000000000000 .L0 
     /tmp/ccIfjRGV.s:9119   .text.LCD_ShowNum1:0000000000000000 .L0 
     /tmp/ccIfjRGV.s:9120   .text.LCD_ShowNum1:0000000000000000 .L0 
     /tmp/ccIfjRGV.s:9121   .text.LCD_ShowNum1:0000000000000000 .L0 
     /tmp/ccIfjRGV.s:9122   .text.LCD_ShowNum1:0000000000000000 .L0 
     /tmp/ccIfjRGV.s:9123   .text.LCD_ShowNum1:0000000000000000 .L0 
     /tmp/ccIfjRGV.s:9125   .text.LCD_ShowNum1:0000000000000002 .L0 
     /tmp/ccIfjRGV.s:9127   .text.LCD_ShowNum1:0000000000000002 .L0 
     /tmp/ccIfjRGV.s:9129   .text.LCD_ShowNum1:0000000000000006 .L0 
     /tmp/ccIfjRGV.s:9130   .text.LCD_ShowNum1:0000000000000008 .L0 
     /tmp/ccIfjRGV.s:9133   .text.LCD_ShowNum1:000000000000000a .L0 
     /tmp/ccIfjRGV.s:9136   .text.LCD_ShowNum1:000000000000000e .L0 
     /tmp/ccIfjRGV.s:9137   .text.LCD_ShowNum1:0000000000000010 .L0 
     /tmp/ccIfjRGV.s:9140   .text.LCD_ShowNum1:0000000000000012 .L0 
     /tmp/ccIfjRGV.s:9143   .text.LCD_ShowNum1:0000000000000014 .L0 
     /tmp/ccIfjRGV.s:9147   .text.LCD_ShowNum1:000000000000001c .L0 
     /tmp/ccIfjRGV.s:9148   .text.LCD_ShowNum1:000000000000001c .L0 
     /tmp/ccIfjRGV.s:9149   .text.LCD_ShowNum1:000000000000001c .L0 
     /tmp/ccIfjRGV.s:9150   .text.LCD_ShowNum1:000000000000001c .L0 
     /tmp/ccIfjRGV.s:9158   .text.LCD_ShowNum1:000000000000002a .L0 
     /tmp/ccIfjRGV.s:9159   .text.LCD_ShowNum1:000000000000002a .L0 
     /tmp/ccIfjRGV.s:9160   .text.LCD_ShowNum1:000000000000002a .L0 
     /tmp/ccIfjRGV.s:9161   .text.LCD_ShowNum1:000000000000002a .L0 
     /tmp/ccIfjRGV.s:9162   .text.LCD_ShowNum1:000000000000002a .L0 
     /tmp/ccIfjRGV.s:9163   .text.LCD_ShowNum1:000000000000002a .L0 
     /tmp/ccIfjRGV.s:9165   .text.LCD_ShowNum1:000000000000002a .L0 
     /tmp/ccIfjRGV.s:9167   .text.LCD_ShowNum1:000000000000002c .L0 
     /tmp/ccIfjRGV.s:9170   .text.LCD_ShowNum1:0000000000000034 .L0 
     /tmp/ccIfjRGV.s:9173   .text.LCD_ShowNum1:000000000000003c .L0 
     /tmp/ccIfjRGV.s:9179   .text.LCD_ShowNum1:0000000000000044 .L0 
     /tmp/ccIfjRGV.s:9185   .text.LCD_ShowNum1:0000000000000048 .L0 
     /tmp/ccIfjRGV.s:9187   .text.LCD_ShowNum1:000000000000004c .L0 
     /tmp/ccIfjRGV.s:9191   .text.LCD_ShowNum1:0000000000000050 .L0 
     /tmp/ccIfjRGV.s:9195   .text.LCD_ShowNum1:0000000000000052 .L0 
     /tmp/ccIfjRGV.s:9196   .text.LCD_ShowNum1:0000000000000052 .L0 
GAS LISTING /tmp/ccIfjRGV.s 			page 310


     /tmp/ccIfjRGV.s:9203   .text.LCD_ShowNum1:000000000000005c .L0 
     /tmp/ccIfjRGV.s:9204   .text.LCD_ShowNum1:000000000000005c .L0 
     /tmp/ccIfjRGV.s:9205   .text.LCD_ShowNum1:000000000000005c .L0 
     /tmp/ccIfjRGV.s:9209   .text.LCD_ShowNum1:0000000000000064 .L0 
     /tmp/ccIfjRGV.s:9211   .text.LCD_ShowNum1:0000000000000066 .L0 
     /tmp/ccIfjRGV.s:9215   .text.LCD_ShowNum1:0000000000000068 .L0 
     /tmp/ccIfjRGV.s:9216   .text.LCD_ShowNum1:0000000000000068 .L0 
     /tmp/ccIfjRGV.s:9218   .text.LCD_ShowNum1:000000000000006c .L0 
     /tmp/ccIfjRGV.s:9221   .text.LCD_ShowNum1:000000000000006e .L0 
     /tmp/ccIfjRGV.s:9224   .text.LCD_ShowNum1:0000000000000070 .L0 
     /tmp/ccIfjRGV.s:9226   .text.LCD_ShowNum1:0000000000000074 .L0 
     /tmp/ccIfjRGV.s:9229   .text.LCD_ShowNum1:0000000000000076 .L0 
     /tmp/ccIfjRGV.s:9236   .text.LCD_ShowNum1:000000000000007e .L0 
     /tmp/ccIfjRGV.s:9237   .text.LCD_ShowNum1:000000000000007e .L0 
     /tmp/ccIfjRGV.s:9238   .text.LCD_ShowNum1:000000000000007e .L0 
     /tmp/ccIfjRGV.s:9240   .text.LCD_ShowNum1:0000000000000082 .L0 
     /tmp/ccIfjRGV.s:9243   .text.LCD_ShowNum1:0000000000000086 .L0 
     /tmp/ccIfjRGV.s:9244   .text.LCD_ShowNum1:0000000000000086 .L0 
     /tmp/ccIfjRGV.s:9246   .text.LCD_ShowNum1:000000000000008a .L0 
     /tmp/ccIfjRGV.s:9251   .text.LCD_ShowNum1:000000000000008c .L0 
     /tmp/ccIfjRGV.s:9252   .text.LCD_ShowNum1:000000000000008c .L0 
     /tmp/ccIfjRGV.s:9253   .text.LCD_ShowNum1:000000000000008c .L0 
     /tmp/ccIfjRGV.s:9254   .text.LCD_ShowNum1:000000000000008c .L0 
     /tmp/ccIfjRGV.s:9255   .text.LCD_ShowNum1:000000000000008c .L0 
     /tmp/ccIfjRGV.s:9257   .text.LCD_ShowNum1:0000000000000090 .L0 
     /tmp/ccIfjRGV.s:9264   .text.LCD_ShowNum1:000000000000009a .L0 
     /tmp/ccIfjRGV.s:9274   .text.LCD_ShowNum1:00000000000000aa .L0 
     /tmp/ccIfjRGV.s:9279   .text.LCD_ShowNum1:00000000000000b0 .L0 
     /tmp/ccIfjRGV.s:9283   .text.LCD_ShowNum1:00000000000000b4 .L0 
     /tmp/ccIfjRGV.s:9284   .text.LCD_ShowNum1:00000000000000b6 .L0 
     /tmp/ccIfjRGV.s:9285   .text.LCD_ShowNum1:00000000000000b6 .L0 
     /tmp/ccIfjRGV.s:9287   .text.LCD_ShowNum1:00000000000000b8 .L0 
     /tmp/ccIfjRGV.s:9289   .text.LCD_ShowNum1:00000000000000ba .L0 
     /tmp/ccIfjRGV.s:9291   .text.LCD_ShowNum1:00000000000000bc .L0 
     /tmp/ccIfjRGV.s:9293   .text.LCD_ShowNum1:00000000000000be .L0 
     /tmp/ccIfjRGV.s:9296   .text.LCD_ShowNum1:00000000000000c0 .L0 
     /tmp/ccIfjRGV.s:9298   .text.LCD_ShowNum1:00000000000000c2 .L0 
     /tmp/ccIfjRGV.s:9301   .text.LCD_ShowNum1:00000000000000c4 .L0 
     /tmp/ccIfjRGV.s:9304   .text.LCD_ShowNum1:00000000000000c6 .L0 
     /tmp/ccIfjRGV.s:9306   .text.LCD_ShowNum1:00000000000000c8 .L0 
     /tmp/ccIfjRGV.s:9309   .text.LCD_ShowNum1:00000000000000ca .L0 
     /tmp/ccIfjRGV.s:9311   .text.LCD_ShowNum1:00000000000000cc .L0 
     /tmp/ccIfjRGV.s:9314   .text.LCD_ShowNum1:00000000000000ce .L0 
     /tmp/ccIfjRGV.s:9319   .text.LCD_ShowNum1:00000000000000d0 .L0 
     /tmp/ccIfjRGV.s:9321   .text.LCD_ShowNum1:00000000000000d0 .L0 
     /tmp/ccIfjRGV.s:9322   .text.LCD_ShowNum1:00000000000000d0 .L0 
     /tmp/ccIfjRGV.s:9324   .text.LCD_ShowNum1:00000000000000d4 .L0 
     /tmp/ccIfjRGV.s:9329   .text.LCD_ShowNum1:00000000000000d6 .L0 
     /tmp/ccIfjRGV.s:9330   .text.LCD_ShowNum1:00000000000000d6 .L0 
     /tmp/ccIfjRGV.s:9331   .text.LCD_ShowNum1:00000000000000d6 .L0 
     /tmp/ccIfjRGV.s:9332   .text.LCD_ShowNum1:00000000000000d6 .L0 
     /tmp/ccIfjRGV.s:9333   .text.LCD_ShowNum1:00000000000000d6 .L0 
     /tmp/ccIfjRGV.s:9335   .text.LCD_ShowNum1:00000000000000da .L0 
     /tmp/ccIfjRGV.s:9346   .text.LCD_ShowNum1:00000000000000f0 .L0 
     /tmp/ccIfjRGV.s:9347   .text.LCD_ShowNum1:00000000000000f0 .L0 
     /tmp/ccIfjRGV.s:9350   .text.LCD_ShowNum1:00000000000000f2 .L0 
     /tmp/ccIfjRGV.s:9353   .text.LCD_ShowNum1:00000000000000f4 .L0 
GAS LISTING /tmp/ccIfjRGV.s 			page 311


     /tmp/ccIfjRGV.s:9356   .text.LCD_ShowNum1:00000000000000f8 .L0 
     /tmp/ccIfjRGV.s:9357   .text.LCD_ShowNum1:00000000000000f8 .L0 
     /tmp/ccIfjRGV.s:9365   .text.LCD_ShowNum1:00000000000000fe .L0 
     /tmp/ccIfjRGV.s:9369   .text.LCD_ShowNum1:0000000000000102 .L0 
     /tmp/ccIfjRGV.s:9376   .text.LCD_ShowPicture:0000000000000000 LCD_ShowPicture
     /tmp/ccIfjRGV.s:9379   .text.LCD_ShowPicture:0000000000000000 .L0 
     /tmp/ccIfjRGV.s:9381   .text.LCD_ShowPicture:0000000000000000 .L0 
     /tmp/ccIfjRGV.s:9382   .text.LCD_ShowPicture:0000000000000000 .L0 
     /tmp/ccIfjRGV.s:9383   .text.LCD_ShowPicture:0000000000000000 .L0 
     /tmp/ccIfjRGV.s:9384   .text.LCD_ShowPicture:0000000000000000 .L0 
     /tmp/ccIfjRGV.s:9386   .text.LCD_ShowPicture:0000000000000002 .L0 
     /tmp/ccIfjRGV.s:9389   .text.LCD_ShowPicture:0000000000000004 .L0 
     /tmp/ccIfjRGV.s:9390   .text.LCD_ShowPicture:0000000000000008 .L0 
     /tmp/ccIfjRGV.s:9392   .text.LCD_ShowPicture:0000000000000008 .L0 
     /tmp/ccIfjRGV.s:9394   .text.LCD_ShowPicture:000000000000000c .L0 
     /tmp/ccIfjRGV.s:9396   .text.LCD_ShowPicture:000000000000000e .L0 
     /tmp/ccIfjRGV.s:9398   .text.LCD_ShowPicture:0000000000000010 .L0 
     /tmp/ccIfjRGV.s:9400   .text.LCD_ShowPicture:0000000000000014 .L0 
     /tmp/ccIfjRGV.s:9402   .text.LCD_ShowPicture:0000000000000018 .L0 
     /tmp/ccIfjRGV.s:9403   .text.LCD_ShowPicture:0000000000000018 .L0 
     /tmp/ccIfjRGV.s:9405   .text.LCD_ShowPicture:0000000000000018 .L0 
     /tmp/ccIfjRGV.s:9407   .text.LCD_ShowPicture:000000000000001a .L0 
     /tmp/ccIfjRGV.s:9410   .text.LCD_ShowPicture:000000000000001c .L0 
     /tmp/ccIfjRGV.s:9413   .text.LCD_ShowPicture:0000000000000024 .L0 
     /tmp/ccIfjRGV.s:9418   .text.LCD_ShowPicture:000000000000002a .L0 
     /tmp/ccIfjRGV.s:9424   .text.LCD_ShowPicture:0000000000000038 .L0 
     /tmp/ccIfjRGV.s:9427   .text.LCD_ShowPicture:000000000000003c .L0 
     /tmp/ccIfjRGV.s:9428   .text.LCD_ShowPicture:000000000000003e .L0 
     /tmp/ccIfjRGV.s:9430   .text.LCD_ShowPicture:0000000000000040 .L0 
     /tmp/ccIfjRGV.s:9432   .text.LCD_ShowPicture:0000000000000042 .L0 
     /tmp/ccIfjRGV.s:9435   .text.LCD_ShowPicture:0000000000000044 .L0 
     /tmp/ccIfjRGV.s:9437   .text.LCD_ShowPicture:0000000000000046 .L0 
     /tmp/ccIfjRGV.s:9453   .bss.queue:0000000000000000 queue
     /tmp/ccIfjRGV.s:11917  .sbss.w:0000000000000000 w
     /tmp/ccIfjRGV.s:11910  .sbss.r:0000000000000000 r
     /tmp/ccIfjRGV.s:11903  .sbss.lcd_conf:0000000000000000 lcd_conf
     /tmp/ccIfjRGV.s:9460   .data.Hzk16:0000000000000000 Hzk16
     /tmp/ccIfjRGV.s:10340  .rodata.asc2_1608:0000000000000000 asc2_1608
     /tmp/ccIfjRGV.s:9690   .data.Hzk32:0000000000000000 Hzk32
     /tmp/ccIfjRGV.s:9450   .bss.queue:0000000000000000 .LANCHOR2
     /tmp/ccIfjRGV.s:9457   .data.Hzk16:0000000000000000 .LANCHOR5
     /tmp/ccIfjRGV.s:9687   .data.Hzk32:0000000000000000 .LANCHOR6
     /tmp/ccIfjRGV.s:10337  .rodata.asc2_1608:0000000000000000 .LANCHOR4
     /tmp/ccIfjRGV.s:11900  .sbss.lcd_conf:0000000000000000 .LANCHOR3
     /tmp/ccIfjRGV.s:11907  .sbss.r:0000000000000000 .LANCHOR0
     /tmp/ccIfjRGV.s:11914  .sbss.w:0000000000000000 .LANCHOR1
     /tmp/ccIfjRGV.s:163    .text.lcd_delay_1ms:00000000000000ce .L0 
     /tmp/ccIfjRGV.s:326    .text.LCD_WR_Queue:00000000000000cc .L0 
     /tmp/ccIfjRGV.s:379    .text.LCD_Wait_On_Queue:000000000000003a .L0 
     /tmp/ccIfjRGV.s:477    .text.LCD_Write_Bus:000000000000007a .L0 
     /tmp/ccIfjRGV.s:573    .text.LCD_Writ_Bus:0000000000000078 .L0 
     /tmp/ccIfjRGV.s:693    .text.LCD_WR_DATA8:000000000000007c .L0 
     /tmp/ccIfjRGV.s:907    .text.LCD_WR_DATA:00000000000000da .L0 
     /tmp/ccIfjRGV.s:1027   .text.LCD_WR_REG:000000000000007a .L0 
     /tmp/ccIfjRGV.s:1355   .text.LCD_Address_Set:0000000000000182 .L0 
     /tmp/ccIfjRGV.s:1570   .text.LCD_ShowChar.part.3:00000000000000ea .L0 
     /tmp/ccIfjRGV.s:1655   .text.spi_config:000000000000006c .L0 
GAS LISTING /tmp/ccIfjRGV.s 			page 312


     /tmp/ccIfjRGV.s:1704   .text.Lcd_SetType:000000000000002a .L0 
     /tmp/ccIfjRGV.s:7532   .text.Lcd_Init:00000000000017cc .L0 
     /tmp/ccIfjRGV.s:7606   .text.LCD_Clear:0000000000000048 .L0 
     /tmp/ccIfjRGV.s:7762   .text.LCD_ShowChinese:00000000000000b8 .L0 
     /tmp/ccIfjRGV.s:7808   .text.LCD_DrawPoint:0000000000000024 .L0 
     /tmp/ccIfjRGV.s:7900   .text.LCD_Fill:0000000000000054 .L0 
     /tmp/ccIfjRGV.s:7923   .text.LCD_DrawPoint_big:0000000000000016 .L0 
     /tmp/ccIfjRGV.s:8153   .text.LCD_DrawLine:00000000000000ba .L0 
     /tmp/ccIfjRGV.s:8245   .text.LCD_DrawRectangle:0000000000000066 .L0 
     /tmp/ccIfjRGV.s:8503   .text.Draw_Circle:0000000000000154 .L0 
     /tmp/ccIfjRGV.s:8531   .text.LCD_ShowChar:000000000000001a .L0 
     /tmp/ccIfjRGV.s:8718   .text.LCD_ShowString:0000000000000090 .L0 
     /tmp/ccIfjRGV.s:8841   .text.LCD_ShowStr:000000000000006c .L0 
     /tmp/ccIfjRGV.s:8882   .text.mypow:0000000000000022 .L0 
     /tmp/ccIfjRGV.s:9110   .text.LCD_ShowNum:00000000000000e0 .L0 
     /tmp/ccIfjRGV.s:9372   .text.LCD_ShowNum1:0000000000000102 .L0 
     /tmp/ccIfjRGV.s:9448   .text.LCD_ShowPicture:0000000000000046 .L0 
                     .debug_frame:0000000000000000 .L0 
     /tmp/ccIfjRGV.s:11895  .rodata.lcd_delay_1ms.cst8:0000000000000000 .LC0
     /tmp/ccIfjRGV.s:72     .text.lcd_delay_1ms:000000000000003a .L3
     /tmp/ccIfjRGV.s:60     .text.lcd_delay_1ms:0000000000000026 .L2
     /tmp/ccIfjRGV.s:79     .text.lcd_delay_1ms:000000000000004a .L4
     /tmp/ccIfjRGV.s:288    .text.LCD_WR_Queue:00000000000000ac .L9
     /tmp/ccIfjRGV.s:213    .text.LCD_WR_Queue:000000000000003c .L17
     /tmp/ccIfjRGV.s:312    .text.LCD_WR_Queue:00000000000000c2 .L18
     /tmp/ccIfjRGV.s:241    .text.LCD_WR_Queue:0000000000000070 .L12
     /tmp/ccIfjRGV.s:364    .text.LCD_Wait_On_Queue:0000000000000030 .L19
     /tmp/ccIfjRGV.s:356    .text.LCD_Wait_On_Queue:0000000000000020 .L21
     /tmp/ccIfjRGV.s:447    .text.LCD_Write_Bus:000000000000005c .L25
     /tmp/ccIfjRGV.s:429    .text.LCD_Write_Bus:000000000000003a .L26
     /tmp/ccIfjRGV.s:515    .text.LCD_Writ_Bus:0000000000000022 .L30
     /tmp/ccIfjRGV.s:535    .text.LCD_Writ_Bus:0000000000000046 .L31
     /tmp/ccIfjRGV.s:657    .text.LCD_WR_DATA8:000000000000005e .L38
     /tmp/ccIfjRGV.s:639    .text.LCD_WR_DATA8:000000000000003c .L39
     /tmp/ccIfjRGV.s:786    .text.LCD_WR_DATA:000000000000006a .L43
     /tmp/ccIfjRGV.s:768    .text.LCD_WR_DATA:0000000000000044 .L44
     /tmp/ccIfjRGV.s:870    .text.LCD_WR_DATA:00000000000000c0 .L45
     /tmp/ccIfjRGV.s:852    .text.LCD_WR_DATA:000000000000009e .L46
     /tmp/ccIfjRGV.s:991    .text.LCD_WR_REG:000000000000005c .L51
     /tmp/ccIfjRGV.s:973    .text.LCD_WR_REG:000000000000003a .L52
     /tmp/ccIfjRGV.s:1138   .text.LCD_Address_Set:0000000000000076 .L56
     /tmp/ccIfjRGV.s:1120   .text.LCD_Address_Set:0000000000000050 .L57
     /tmp/ccIfjRGV.s:1221   .text.LCD_Address_Set:00000000000000f4 .L58
     /tmp/ccIfjRGV.s:1203   .text.LCD_Address_Set:00000000000000d0 .L59
     /tmp/ccIfjRGV.s:1301   .text.LCD_Address_Set:0000000000000160 .L60
     /tmp/ccIfjRGV.s:1283   .text.LCD_Address_Set:000000000000013c .L61
     /tmp/ccIfjRGV.s:1496   .text.LCD_ShowChar.part.3:0000000000000090 .L67
     /tmp/ccIfjRGV.s:1446   .text.LCD_ShowChar.part.3:0000000000000060 .L84
     /tmp/ccIfjRGV.s:1432   .text.LCD_ShowChar.part.3:0000000000000054 .L70
     /tmp/ccIfjRGV.s:1423   .text.LCD_ShowChar.part.3:000000000000004e .L71
     /tmp/ccIfjRGV.s:1529   .text.LCD_ShowChar.part.3:00000000000000ba .L73
     /tmp/ccIfjRGV.s:1561   .text.LCD_ShowChar.part.3:00000000000000e2 .L85
     /tmp/ccIfjRGV.s:1520   .text.LCD_ShowChar.part.3:00000000000000b2 .L72
     /tmp/ccIfjRGV.s:1508   .text.LCD_ShowChar.part.3:00000000000000a4 .L74
     /tmp/ccIfjRGV.s:1466   .text.LCD_ShowChar.part.3:0000000000000078 .L66
     /tmp/ccIfjRGV.s:1678   .text.Lcd_SetType:0000000000000012 .L89
     /tmp/ccIfjRGV.s:1696   .text.Lcd_SetType:0000000000000028 .L88
GAS LISTING /tmp/ccIfjRGV.s 			page 313


     /tmp/ccIfjRGV.s:1750   .text.Lcd_Init:0000000000000024 .L92
     /tmp/ccIfjRGV.s:1819   .text.Lcd_Init:00000000000000ba .L96
     /tmp/ccIfjRGV.s:1811   .text.Lcd_Init:00000000000000aa .L93
     /tmp/ccIfjRGV.s:1864   .text.Lcd_Init:0000000000000106 .L95
     /tmp/ccIfjRGV.s:1846   .text.Lcd_Init:00000000000000e4 .L94
     /tmp/ccIfjRGV.s:1877   .text.Lcd_Init:0000000000000118 .L99
     /tmp/ccIfjRGV.s:1934   .text.Lcd_Init:0000000000000174 .L98
     /tmp/ccIfjRGV.s:1916   .text.Lcd_Init:0000000000000152 .L97
     /tmp/ccIfjRGV.s:1945   .text.Lcd_Init:000000000000017e .L103
     /tmp/ccIfjRGV.s:1976   .text.Lcd_Init:00000000000001ac .L101
     /tmp/ccIfjRGV.s:7475   .text.Lcd_Init:0000000000001776 .L346
     /tmp/ccIfjRGV.s:1969   .text.Lcd_Init:00000000000001a4 .L348
     /tmp/ccIfjRGV.s:7500   .text.Lcd_Init:00000000000017a2 .L109
     /tmp/ccIfjRGV.s:2104   .text.Lcd_Init:0000000000000240 .L112
     /tmp/ccIfjRGV.s:2086   .text.Lcd_Init:000000000000021a .L113
     /tmp/ccIfjRGV.s:2179   .text.Lcd_Init:000000000000028c .L114
     /tmp/ccIfjRGV.s:2161   .text.Lcd_Init:0000000000000266 .L115
     /tmp/ccIfjRGV.s:2254   .text.Lcd_Init:00000000000002d8 .L116
     /tmp/ccIfjRGV.s:2236   .text.Lcd_Init:00000000000002b2 .L117
     /tmp/ccIfjRGV.s:2329   .text.Lcd_Init:0000000000000324 .L118
     /tmp/ccIfjRGV.s:2311   .text.Lcd_Init:00000000000002fe .L119
     /tmp/ccIfjRGV.s:2404   .text.Lcd_Init:0000000000000370 .L120
     /tmp/ccIfjRGV.s:2386   .text.Lcd_Init:000000000000034a .L121
     /tmp/ccIfjRGV.s:2479   .text.Lcd_Init:00000000000003bc .L122
     /tmp/ccIfjRGV.s:2461   .text.Lcd_Init:0000000000000396 .L123
     /tmp/ccIfjRGV.s:2554   .text.Lcd_Init:0000000000000408 .L124
     /tmp/ccIfjRGV.s:2536   .text.Lcd_Init:00000000000003e2 .L125
     /tmp/ccIfjRGV.s:2629   .text.Lcd_Init:0000000000000454 .L126
     /tmp/ccIfjRGV.s:2611   .text.Lcd_Init:000000000000042e .L127
     /tmp/ccIfjRGV.s:2704   .text.Lcd_Init:00000000000004a0 .L128
     /tmp/ccIfjRGV.s:2686   .text.Lcd_Init:000000000000047a .L129
     /tmp/ccIfjRGV.s:2779   .text.Lcd_Init:00000000000004ec .L130
     /tmp/ccIfjRGV.s:2761   .text.Lcd_Init:00000000000004c6 .L131
     /tmp/ccIfjRGV.s:2854   .text.Lcd_Init:0000000000000538 .L132
     /tmp/ccIfjRGV.s:2836   .text.Lcd_Init:0000000000000512 .L133
     /tmp/ccIfjRGV.s:2929   .text.Lcd_Init:0000000000000584 .L134
     /tmp/ccIfjRGV.s:2911   .text.Lcd_Init:000000000000055e .L135
     /tmp/ccIfjRGV.s:3004   .text.Lcd_Init:00000000000005d0 .L136
     /tmp/ccIfjRGV.s:2986   .text.Lcd_Init:00000000000005aa .L137
     /tmp/ccIfjRGV.s:3079   .text.Lcd_Init:000000000000061c .L138
     /tmp/ccIfjRGV.s:3061   .text.Lcd_Init:00000000000005f6 .L139
     /tmp/ccIfjRGV.s:3154   .text.Lcd_Init:0000000000000668 .L140
     /tmp/ccIfjRGV.s:3136   .text.Lcd_Init:0000000000000642 .L141
     /tmp/ccIfjRGV.s:3229   .text.Lcd_Init:00000000000006b4 .L142
     /tmp/ccIfjRGV.s:3211   .text.Lcd_Init:000000000000068e .L143
     /tmp/ccIfjRGV.s:3304   .text.Lcd_Init:0000000000000700 .L144
     /tmp/ccIfjRGV.s:3286   .text.Lcd_Init:00000000000006da .L145
     /tmp/ccIfjRGV.s:3379   .text.Lcd_Init:000000000000074c .L146
     /tmp/ccIfjRGV.s:3361   .text.Lcd_Init:0000000000000726 .L147
     /tmp/ccIfjRGV.s:3454   .text.Lcd_Init:0000000000000798 .L148
     /tmp/ccIfjRGV.s:3436   .text.Lcd_Init:0000000000000772 .L149
     /tmp/ccIfjRGV.s:3529   .text.Lcd_Init:00000000000007e4 .L150
     /tmp/ccIfjRGV.s:3511   .text.Lcd_Init:00000000000007be .L151
     /tmp/ccIfjRGV.s:3604   .text.Lcd_Init:0000000000000830 .L152
     /tmp/ccIfjRGV.s:3586   .text.Lcd_Init:000000000000080a .L153
     /tmp/ccIfjRGV.s:3679   .text.Lcd_Init:000000000000087c .L154
     /tmp/ccIfjRGV.s:3661   .text.Lcd_Init:0000000000000856 .L155
GAS LISTING /tmp/ccIfjRGV.s 			page 314


     /tmp/ccIfjRGV.s:3754   .text.Lcd_Init:00000000000008c8 .L156
     /tmp/ccIfjRGV.s:3736   .text.Lcd_Init:00000000000008a2 .L157
     /tmp/ccIfjRGV.s:3829   .text.Lcd_Init:0000000000000914 .L158
     /tmp/ccIfjRGV.s:3811   .text.Lcd_Init:00000000000008ee .L159
     /tmp/ccIfjRGV.s:3904   .text.Lcd_Init:0000000000000960 .L160
     /tmp/ccIfjRGV.s:3886   .text.Lcd_Init:000000000000093a .L161
     /tmp/ccIfjRGV.s:3979   .text.Lcd_Init:00000000000009ac .L162
     /tmp/ccIfjRGV.s:3961   .text.Lcd_Init:0000000000000986 .L163
     /tmp/ccIfjRGV.s:4054   .text.Lcd_Init:00000000000009f8 .L164
     /tmp/ccIfjRGV.s:4036   .text.Lcd_Init:00000000000009d2 .L165
     /tmp/ccIfjRGV.s:4129   .text.Lcd_Init:0000000000000a44 .L166
     /tmp/ccIfjRGV.s:4111   .text.Lcd_Init:0000000000000a1e .L167
     /tmp/ccIfjRGV.s:4204   .text.Lcd_Init:0000000000000a90 .L168
     /tmp/ccIfjRGV.s:4186   .text.Lcd_Init:0000000000000a6a .L169
     /tmp/ccIfjRGV.s:4279   .text.Lcd_Init:0000000000000adc .L170
     /tmp/ccIfjRGV.s:4261   .text.Lcd_Init:0000000000000ab6 .L171
     /tmp/ccIfjRGV.s:4354   .text.Lcd_Init:0000000000000b28 .L172
     /tmp/ccIfjRGV.s:4336   .text.Lcd_Init:0000000000000b02 .L173
     /tmp/ccIfjRGV.s:4429   .text.Lcd_Init:0000000000000b74 .L174
     /tmp/ccIfjRGV.s:4411   .text.Lcd_Init:0000000000000b4e .L175
     /tmp/ccIfjRGV.s:4504   .text.Lcd_Init:0000000000000bc0 .L176
     /tmp/ccIfjRGV.s:4486   .text.Lcd_Init:0000000000000b9a .L177
     /tmp/ccIfjRGV.s:4579   .text.Lcd_Init:0000000000000c0c .L178
     /tmp/ccIfjRGV.s:4561   .text.Lcd_Init:0000000000000be6 .L179
     /tmp/ccIfjRGV.s:4654   .text.Lcd_Init:0000000000000c58 .L180
     /tmp/ccIfjRGV.s:4636   .text.Lcd_Init:0000000000000c32 .L181
     /tmp/ccIfjRGV.s:4729   .text.Lcd_Init:0000000000000ca4 .L182
     /tmp/ccIfjRGV.s:4711   .text.Lcd_Init:0000000000000c7e .L183
     /tmp/ccIfjRGV.s:4804   .text.Lcd_Init:0000000000000cf0 .L184
     /tmp/ccIfjRGV.s:4786   .text.Lcd_Init:0000000000000cca .L185
     /tmp/ccIfjRGV.s:4879   .text.Lcd_Init:0000000000000d3c .L186
     /tmp/ccIfjRGV.s:4861   .text.Lcd_Init:0000000000000d16 .L187
     /tmp/ccIfjRGV.s:4954   .text.Lcd_Init:0000000000000d88 .L188
     /tmp/ccIfjRGV.s:4936   .text.Lcd_Init:0000000000000d62 .L189
     /tmp/ccIfjRGV.s:5029   .text.Lcd_Init:0000000000000dd4 .L190
     /tmp/ccIfjRGV.s:5011   .text.Lcd_Init:0000000000000dae .L191
     /tmp/ccIfjRGV.s:5104   .text.Lcd_Init:0000000000000e20 .L192
     /tmp/ccIfjRGV.s:5086   .text.Lcd_Init:0000000000000dfa .L193
     /tmp/ccIfjRGV.s:5179   .text.Lcd_Init:0000000000000e6c .L194
     /tmp/ccIfjRGV.s:5161   .text.Lcd_Init:0000000000000e46 .L195
     /tmp/ccIfjRGV.s:5254   .text.Lcd_Init:0000000000000eb8 .L196
     /tmp/ccIfjRGV.s:5236   .text.Lcd_Init:0000000000000e92 .L197
     /tmp/ccIfjRGV.s:5329   .text.Lcd_Init:0000000000000f04 .L198
     /tmp/ccIfjRGV.s:5311   .text.Lcd_Init:0000000000000ede .L199
     /tmp/ccIfjRGV.s:5404   .text.Lcd_Init:0000000000000f50 .L200
     /tmp/ccIfjRGV.s:5386   .text.Lcd_Init:0000000000000f2a .L201
     /tmp/ccIfjRGV.s:5479   .text.Lcd_Init:0000000000000f9c .L202
     /tmp/ccIfjRGV.s:5461   .text.Lcd_Init:0000000000000f76 .L203
     /tmp/ccIfjRGV.s:5554   .text.Lcd_Init:0000000000000fe8 .L204
     /tmp/ccIfjRGV.s:5536   .text.Lcd_Init:0000000000000fc2 .L205
     /tmp/ccIfjRGV.s:5629   .text.Lcd_Init:0000000000001034 .L206
     /tmp/ccIfjRGV.s:5611   .text.Lcd_Init:000000000000100e .L207
     /tmp/ccIfjRGV.s:5704   .text.Lcd_Init:0000000000001080 .L208
     /tmp/ccIfjRGV.s:5686   .text.Lcd_Init:000000000000105a .L209
     /tmp/ccIfjRGV.s:5779   .text.Lcd_Init:00000000000010cc .L210
     /tmp/ccIfjRGV.s:5761   .text.Lcd_Init:00000000000010a6 .L211
     /tmp/ccIfjRGV.s:5854   .text.Lcd_Init:0000000000001118 .L212
GAS LISTING /tmp/ccIfjRGV.s 			page 315


     /tmp/ccIfjRGV.s:5836   .text.Lcd_Init:00000000000010f2 .L213
     /tmp/ccIfjRGV.s:5929   .text.Lcd_Init:0000000000001164 .L214
     /tmp/ccIfjRGV.s:5911   .text.Lcd_Init:000000000000113e .L215
     /tmp/ccIfjRGV.s:6004   .text.Lcd_Init:00000000000011b0 .L216
     /tmp/ccIfjRGV.s:5986   .text.Lcd_Init:000000000000118a .L217
     /tmp/ccIfjRGV.s:6079   .text.Lcd_Init:00000000000011fc .L218
     /tmp/ccIfjRGV.s:6061   .text.Lcd_Init:00000000000011d6 .L219
     /tmp/ccIfjRGV.s:6154   .text.Lcd_Init:0000000000001248 .L220
     /tmp/ccIfjRGV.s:6136   .text.Lcd_Init:0000000000001222 .L221
     /tmp/ccIfjRGV.s:6229   .text.Lcd_Init:0000000000001294 .L222
     /tmp/ccIfjRGV.s:6211   .text.Lcd_Init:000000000000126e .L223
     /tmp/ccIfjRGV.s:6304   .text.Lcd_Init:00000000000012e0 .L224
     /tmp/ccIfjRGV.s:6286   .text.Lcd_Init:00000000000012ba .L225
     /tmp/ccIfjRGV.s:6379   .text.Lcd_Init:000000000000132c .L226
     /tmp/ccIfjRGV.s:6361   .text.Lcd_Init:0000000000001306 .L227
     /tmp/ccIfjRGV.s:6454   .text.Lcd_Init:0000000000001378 .L228
     /tmp/ccIfjRGV.s:6436   .text.Lcd_Init:0000000000001352 .L229
     /tmp/ccIfjRGV.s:6529   .text.Lcd_Init:00000000000013c4 .L230
     /tmp/ccIfjRGV.s:6511   .text.Lcd_Init:000000000000139e .L231
     /tmp/ccIfjRGV.s:6604   .text.Lcd_Init:0000000000001410 .L232
     /tmp/ccIfjRGV.s:6586   .text.Lcd_Init:00000000000013ea .L233
     /tmp/ccIfjRGV.s:6679   .text.Lcd_Init:000000000000145c .L234
     /tmp/ccIfjRGV.s:6661   .text.Lcd_Init:0000000000001436 .L235
     /tmp/ccIfjRGV.s:6754   .text.Lcd_Init:00000000000014a8 .L236
     /tmp/ccIfjRGV.s:6736   .text.Lcd_Init:0000000000001482 .L237
     /tmp/ccIfjRGV.s:6829   .text.Lcd_Init:00000000000014f4 .L238
     /tmp/ccIfjRGV.s:6811   .text.Lcd_Init:00000000000014ce .L239
     /tmp/ccIfjRGV.s:6904   .text.Lcd_Init:0000000000001540 .L240
     /tmp/ccIfjRGV.s:6886   .text.Lcd_Init:000000000000151a .L241
     /tmp/ccIfjRGV.s:6979   .text.Lcd_Init:000000000000158c .L242
     /tmp/ccIfjRGV.s:6961   .text.Lcd_Init:0000000000001566 .L243
     /tmp/ccIfjRGV.s:7054   .text.Lcd_Init:00000000000015d8 .L244
     /tmp/ccIfjRGV.s:7036   .text.Lcd_Init:00000000000015b2 .L245
     /tmp/ccIfjRGV.s:7129   .text.Lcd_Init:0000000000001624 .L246
     /tmp/ccIfjRGV.s:7111   .text.Lcd_Init:00000000000015fe .L247
     /tmp/ccIfjRGV.s:7204   .text.Lcd_Init:0000000000001670 .L248
     /tmp/ccIfjRGV.s:7186   .text.Lcd_Init:000000000000164a .L249
     /tmp/ccIfjRGV.s:7279   .text.Lcd_Init:00000000000016bc .L250
     /tmp/ccIfjRGV.s:7261   .text.Lcd_Init:0000000000001696 .L251
     /tmp/ccIfjRGV.s:7354   .text.Lcd_Init:0000000000001708 .L252
     /tmp/ccIfjRGV.s:7336   .text.Lcd_Init:00000000000016e2 .L253
     /tmp/ccIfjRGV.s:7429   .text.Lcd_Init:0000000000001754 .L254
     /tmp/ccIfjRGV.s:7411   .text.Lcd_Init:000000000000172e .L255
     /tmp/ccIfjRGV.s:7466   .text.Lcd_Init:000000000000176e .L105
     /tmp/ccIfjRGV.s:7514   .text.Lcd_Init:00000000000017ae .L347
     /tmp/ccIfjRGV.s:2029   .text.Lcd_Init:00000000000001f4 .L349
     /tmp/ccIfjRGV.s:7574   .text.LCD_Clear:0000000000000028 .L352
     /tmp/ccIfjRGV.s:7570   .text.LCD_Clear:0000000000000024 .L351
     /tmp/ccIfjRGV.s:7744   .text.LCD_ShowChinese:00000000000000a4 .L357
     /tmp/ccIfjRGV.s:7718   .text.LCD_ShowChinese:0000000000000090 .L356
     /tmp/ccIfjRGV.s:7700   .text.LCD_ShowChinese:0000000000000076 .L367
     /tmp/ccIfjRGV.s:7682   .text.LCD_ShowChinese:0000000000000064 .L361
     /tmp/ccIfjRGV.s:7679   .text.LCD_ShowChinese:0000000000000062 .L362
     /tmp/ccIfjRGV.s:7671   .text.LCD_ShowChinese:000000000000005a .L358
     /tmp/ccIfjRGV.s:7872   .text.LCD_Fill:0000000000000042 .L370
     /tmp/ccIfjRGV.s:7865   .text.LCD_Fill:000000000000003c .L374
     /tmp/ccIfjRGV.s:7854   .text.LCD_Fill:000000000000002c .L373
GAS LISTING /tmp/ccIfjRGV.s 			page 316


     /tmp/ccIfjRGV.s:7849   .text.LCD_Fill:0000000000000026 .L371
     /tmp/ccIfjRGV.s:8113   .text.LCD_DrawLine:000000000000009a .L396
     /tmp/ccIfjRGV.s:8135   .text.LCD_DrawLine:00000000000000ac .L397
     /tmp/ccIfjRGV.s:8001   .text.LCD_DrawLine:000000000000003c .L384
     /tmp/ccIfjRGV.s:8052   .text.LCD_DrawLine:0000000000000068 .L385
     /tmp/ccIfjRGV.s:8063   .text.LCD_DrawLine:0000000000000072 .L386
     /tmp/ccIfjRGV.s:8071   .text.LCD_DrawLine:000000000000007e .L398
     /tmp/ccIfjRGV.s:8010   .text.LCD_DrawLine:0000000000000042 .L387
     /tmp/ccIfjRGV.s:7986   .text.LCD_DrawLine:000000000000002e .L382
     /tmp/ccIfjRGV.s:7993   .text.LCD_DrawLine:0000000000000034 .L383
     /tmp/ccIfjRGV.s:8302   .text.Draw_Circle:000000000000002c .L403
     /tmp/ccIfjRGV.s:8522   .text.LCD_ShowChar:0000000000000010 .L406
     /tmp/ccIfjRGV.s:8525   .text.LCD_ShowChar:0000000000000012 .L408
     /tmp/ccIfjRGV.s:8703   .text.LCD_ShowString:000000000000008e .L419
     /tmp/ccIfjRGV.s:8656   .text.LCD_ShowString:000000000000006a .L411
     /tmp/ccIfjRGV.s:8679   .text.LCD_ShowString:0000000000000078 .L412
     /tmp/ccIfjRGV.s:8578   .text.LCD_ShowString:000000000000002e .L410
     /tmp/ccIfjRGV.s:8608   .text.LCD_ShowString:0000000000000040 .L413
     /tmp/ccIfjRGV.s:8804   .text.LCD_ShowStr:000000000000004e .L422
     /tmp/ccIfjRGV.s:8829   .text.LCD_ShowStr:0000000000000062 .L424
     /tmp/ccIfjRGV.s:8762   .text.LCD_ShowStr:000000000000002a .L423
     /tmp/ccIfjRGV.s:8780   .text.LCD_ShowStr:0000000000000038 .L426
     /tmp/ccIfjRGV.s:8874   .text.mypow:000000000000001e .L430
     /tmp/ccIfjRGV.s:8862   .text.mypow:0000000000000010 .L432
     /tmp/ccIfjRGV.s:9036   .text.LCD_ShowNum:00000000000000a0 .L435
     /tmp/ccIfjRGV.s:9071   .text.LCD_ShowNum:00000000000000be .L443
     /tmp/ccIfjRGV.s:8969   .text.LCD_ShowNum:0000000000000050 .L438
     /tmp/ccIfjRGV.s:9005   .text.LCD_ShowNum:0000000000000076 .L439
     /tmp/ccIfjRGV.s:9080   .text.LCD_ShowNum:00000000000000c2 .L448
     /tmp/ccIfjRGV.s:9025   .text.LCD_ShowNum:0000000000000092 .L440
     /tmp/ccIfjRGV.s:8957   .text.LCD_ShowNum:0000000000000048 .L441
     /tmp/ccIfjRGV.s:8988   .text.LCD_ShowNum:0000000000000066 .L437
     /tmp/ccIfjRGV.s:10333  .rodata.LCD_ShowNum1.cst4:0000000000000000 .LC1
     /tmp/ccIfjRGV.s:9281   .text.LCD_ShowNum1:00000000000000b4 .L449
     /tmp/ccIfjRGV.s:9361   .text.LCD_ShowNum1:00000000000000fe .L458
     /tmp/ccIfjRGV.s:9213   .text.LCD_ShowNum1:0000000000000068 .L452
     /tmp/ccIfjRGV.s:9317   .text.LCD_ShowNum1:00000000000000d0 .L463
     /tmp/ccIfjRGV.s:9270   .text.LCD_ShowNum1:00000000000000aa .L455
     /tmp/ccIfjRGV.s:9193   .text.LCD_ShowNum1:0000000000000052 .L450
     /tmp/ccIfjRGV.s:9342   .text.LCD_ShowNum1:00000000000000f0 .L454
     /tmp/ccIfjRGV.s:9241   .text.LCD_ShowNum1:0000000000000086 .L453
     /tmp/ccIfjRGV.s:9232   .text.LCD_ShowNum1:000000000000007e .L451
     /tmp/ccIfjRGV.s:9425   .text.LCD_ShowPicture:000000000000003c .L464
     /tmp/ccIfjRGV.s:9416   .text.LCD_ShowPicture:000000000000002a .L466
     /tmp/ccIfjRGV.s:19222  .debug_abbrev:0000000000000000 .Ldebug_abbrev0
     /tmp/ccIfjRGV.s:26363  .debug_str:000000000000015d .LASF252
     /tmp/ccIfjRGV.s:26579  .debug_str:0000000000000663 .LASF253
     /tmp/ccIfjRGV.s:26371  .debug_str:00000000000001f7 .LASF254
     /tmp/ccIfjRGV.s:25195  .debug_ranges:0000000000000000 .Ldebug_ranges0
     /tmp/ccIfjRGV.s:26291  .debug_line:0000000000000000 .Ldebug_line0
     /tmp/ccIfjRGV.s:26573  .debug_str:0000000000000642 .LASF0
     /tmp/ccIfjRGV.s:26581  .debug_str:0000000000000669 .LASF1
     /tmp/ccIfjRGV.s:26539  .debug_str:00000000000005a9 .LASF2
     /tmp/ccIfjRGV.s:26625  .debug_str:000000000000073c .LASF3
     /tmp/ccIfjRGV.s:26703  .debug_str:00000000000008d7 .LASF5
     /tmp/ccIfjRGV.s:26417  .debug_str:000000000000033b .LASF4
     /tmp/ccIfjRGV.s:26381  .debug_str:000000000000027f .LASF6
GAS LISTING /tmp/ccIfjRGV.s 			page 317


     /tmp/ccIfjRGV.s:26427  .debug_str:000000000000036d .LASF7
     /tmp/ccIfjRGV.s:26717  .debug_str:000000000000090f .LASF8
     /tmp/ccIfjRGV.s:26781  .debug_str:0000000000000a30 .LASF9
     /tmp/ccIfjRGV.s:26393  .debug_str:00000000000002be .LASF10
     /tmp/ccIfjRGV.s:26531  .debug_str:0000000000000581 .LASF11
     /tmp/ccIfjRGV.s:26487  .debug_str:000000000000047f .LASF12
     /tmp/ccIfjRGV.s:26483  .debug_str:000000000000046f .LASF13
     /tmp/ccIfjRGV.s:26653  .debug_str:00000000000007c0 .LASF14
     /tmp/ccIfjRGV.s:26777  .debug_str:0000000000000a24 .LASF15
     /tmp/ccIfjRGV.s:26639  .debug_str:0000000000000778 .LASF16
     /tmp/ccIfjRGV.s:26295  .debug_str:0000000000000012 .LASF17
     /tmp/ccIfjRGV.s:26379  .debug_str:0000000000000279 .LASF18
     /tmp/ccIfjRGV.s:26641  .debug_str:0000000000000780 .LASF19
     /tmp/ccIfjRGV.s:26617  .debug_str:000000000000071b .LASF20
     /tmp/ccIfjRGV.s:26301  .debug_str:000000000000002b .LASF21
     /tmp/ccIfjRGV.s:26691  .debug_str:000000000000089e .LASF22
     /tmp/ccIfjRGV.s:26761  .debug_str:00000000000009d4 .LASF23
     /tmp/ccIfjRGV.s:26509  .debug_str:0000000000000506 .LASF24
     /tmp/ccIfjRGV.s:26683  .debug_str:0000000000000872 .LASF25
     /tmp/ccIfjRGV.s:26517  .debug_str:000000000000053b .LASF30
     /tmp/ccIfjRGV.s:26707  .debug_str:00000000000008e4 .LASF26
     /tmp/ccIfjRGV.s:26519  .debug_str:0000000000000543 .LASF27
     /tmp/ccIfjRGV.s:26571  .debug_str:000000000000063c .LASF28
     /tmp/ccIfjRGV.s:26463  .debug_str:0000000000000412 .LASF29
     /tmp/ccIfjRGV.s:26327  .debug_str:00000000000000a4 .LASF31
     /tmp/ccIfjRGV.s:26333  .debug_str:00000000000000c0 .LASF32
     /tmp/ccIfjRGV.s:26803  .debug_str:0000000000000ab2 .LASF33
     /tmp/ccIfjRGV.s:26785  .debug_str:0000000000000a48 .LASF34
     /tmp/ccIfjRGV.s:26595  .debug_str:00000000000006b5 .LASF35
     /tmp/ccIfjRGV.s:26407  .debug_str:000000000000030a .LASF36
     /tmp/ccIfjRGV.s:26731  .debug_str:000000000000094a .LASF37
     /tmp/ccIfjRGV.s:26621  .debug_str:000000000000072c .LASF38
     /tmp/ccIfjRGV.s:26627  .debug_str:0000000000000748 .LASF39
     /tmp/ccIfjRGV.s:26799  .debug_str:0000000000000a9c .LASF40
     /tmp/ccIfjRGV.s:26387  .debug_str:0000000000000296 .LASF41
     /tmp/ccIfjRGV.s:26797  .debug_str:0000000000000a94 .LASF42
     /tmp/ccIfjRGV.s:26655  .debug_str:00000000000007d7 .LASF43
     /tmp/ccIfjRGV.s:26729  .debug_str:0000000000000941 .LASF44
     /tmp/ccIfjRGV.s:26753  .debug_str:00000000000009b4 .LASF45
     /tmp/ccIfjRGV.s:26611  .debug_str:00000000000006fb .LASF46
     /tmp/ccIfjRGV.s:26749  .debug_str:00000000000009a8 .LASF47
     /tmp/ccIfjRGV.s:26445  .debug_str:00000000000003d4 .LASF48
     /tmp/ccIfjRGV.s:26751  .debug_str:00000000000009ad .LASF49
     /tmp/ccIfjRGV.s:26665  .debug_str:0000000000000802 .LASF50
     /tmp/ccIfjRGV.s:26399  .debug_str:00000000000002dd .LASF51
     /tmp/ccIfjRGV.s:26493  .debug_str:00000000000004b0 .LASF52
     /tmp/ccIfjRGV.s:26609  .debug_str:00000000000006f4 .LASF53
     /tmp/ccIfjRGV.s:26383  .debug_str:0000000000000289 .LASF54
     /tmp/ccIfjRGV.s:26743  .debug_str:000000000000098f .LASF55
     /tmp/ccIfjRGV.s:26461  .debug_str:000000000000040a .LASF56
     /tmp/ccIfjRGV.s:26307  .debug_str:000000000000004f .LASF57
     /tmp/ccIfjRGV.s:26315  .debug_str:000000000000006c .LASF58
     /tmp/ccIfjRGV.s:26637  .debug_str:0000000000000772 .LASF59
     /tmp/ccIfjRGV.s:26447  .debug_str:00000000000003d9 .LASF60
     /tmp/ccIfjRGV.s:26599  .debug_str:00000000000006c4 .LASF61
     /tmp/ccIfjRGV.s:26331  .debug_str:00000000000000ba .LASF62
     /tmp/ccIfjRGV.s:26661  .debug_str:00000000000007f3 .LASF63
GAS LISTING /tmp/ccIfjRGV.s 			page 318


     /tmp/ccIfjRGV.s:26471  .debug_str:0000000000000439 .LASF64
     /tmp/ccIfjRGV.s:26709  .debug_str:00000000000008ea .LASF65
     /tmp/ccIfjRGV.s:26361  .debug_str:0000000000000157 .LASF66
     /tmp/ccIfjRGV.s:26605  .debug_str:00000000000006e0 .LASF67
     /tmp/ccIfjRGV.s:26497  .debug_str:00000000000004c3 .LASF68
     /tmp/ccIfjRGV.s:26435  .debug_str:00000000000003a3 .LASF69
     /tmp/ccIfjRGV.s:26513  .debug_str:0000000000000528 .LASF70
     /tmp/ccIfjRGV.s:26451  .debug_str:00000000000003e5 .LASF71
     /tmp/ccIfjRGV.s:26659  .debug_str:00000000000007eb .LASF72
     /tmp/ccIfjRGV.s:26601  .debug_str:00000000000006ca .LASF73
     /tmp/ccIfjRGV.s:26747  .debug_str:00000000000009a3 .LASF74
     /tmp/ccIfjRGV.s:26533  .debug_str:000000000000058c .LASF75
     /tmp/ccIfjRGV.s:26433  .debug_str:000000000000038a .LASF76
     /tmp/ccIfjRGV.s:26759  .debug_str:00000000000009cc .LASF77
     /tmp/ccIfjRGV.s:26495  .debug_str:00000000000004b8 .LASF78
     /tmp/ccIfjRGV.s:26523  .debug_str:0000000000000555 .LASF79
     /tmp/ccIfjRGV.s:26769  .debug_str:00000000000009f7 .LASF80
     /tmp/ccIfjRGV.s:26397  .debug_str:00000000000002d3 .LASF81
     /tmp/ccIfjRGV.s:26485  .debug_str:000000000000047a .LASF82
     /tmp/ccIfjRGV.s:26563  .debug_str:0000000000000621 .LASF83
     /tmp/ccIfjRGV.s:26319  .debug_str:0000000000000080 .LASF84
     /tmp/ccIfjRGV.s:26473  .debug_str:0000000000000441 .LASF85
     /tmp/ccIfjRGV.s:26597  .debug_str:00000000000006bf .LASF86
     /tmp/ccIfjRGV.s:26525  .debug_str:000000000000055f .LASF87
     /tmp/ccIfjRGV.s:26465  .debug_str:0000000000000417 .LASF88
     /tmp/ccIfjRGV.s:26555  .debug_str:00000000000005fc .LASF89
     /tmp/ccIfjRGV.s:26303  .debug_str:0000000000000033 .LASF90
     /tmp/ccIfjRGV.s:26443  .debug_str:00000000000003cf .LASF91
     /tmp/ccIfjRGV.s:26685  .debug_str:000000000000087b .LASF92
     /tmp/ccIfjRGV.s:26567  .debug_str:0000000000000631 .LASF93
     /tmp/ccIfjRGV.s:26553  .debug_str:00000000000005f5 .LASF94
     /tmp/ccIfjRGV.s:26565  .debug_str:000000000000062b .LASF95
     /tmp/ccIfjRGV.s:26657  .debug_str:00000000000007e3 .LASF96
     /tmp/ccIfjRGV.s:26635  .debug_str:000000000000076c .LASF97
     /tmp/ccIfjRGV.s:26369  .debug_str:00000000000001f1 .LASF98
     /tmp/ccIfjRGV.s:26779  .debug_str:0000000000000a2b .LASF99
     /tmp/ccIfjRGV.s:26415  .debug_str:000000000000032e .LASF100
     /tmp/ccIfjRGV.s:26671  .debug_str:000000000000081e .LASF101
     /tmp/ccIfjRGV.s:26317  .debug_str:0000000000000073 .LASF102
     /tmp/ccIfjRGV.s:26403  .debug_str:00000000000002ef .LASF103
     /tmp/ccIfjRGV.s:26561  .debug_str:0000000000000612 .LASF104
     /tmp/ccIfjRGV.s:26607  .debug_str:00000000000006e9 .LASF105
     /tmp/ccIfjRGV.s:26693  .debug_str:00000000000008a9 .LASF106
     /tmp/ccIfjRGV.s:26715  .debug_str:0000000000000902 .LASF107
     /tmp/ccIfjRGV.s:26643  .debug_str:0000000000000787 .LASF108
     /tmp/ccIfjRGV.s:26603  .debug_str:00000000000006d2 .LASF109
     /tmp/ccIfjRGV.s:26343  .debug_str:00000000000000f5 .LASF110
     /tmp/ccIfjRGV.s:26515  .debug_str:000000000000052f .LASF111
     /tmp/ccIfjRGV.s:26805  .debug_str:0000000000000abb .LASF112
     /tmp/ccIfjRGV.s:26391  .debug_str:00000000000002b0 .LASF113
     /tmp/ccIfjRGV.s:26677  .debug_str:0000000000000843 .LASF114
     /tmp/ccIfjRGV.s:26787  .debug_str:0000000000000a52 .LASF115
     /tmp/ccIfjRGV.s:26593  .debug_str:00000000000006a6 .LASF116
     /tmp/ccIfjRGV.s:26329  .debug_str:00000000000000a9 .LASF117
     /tmp/ccIfjRGV.s:26585  .debug_str:000000000000067e .LASF118
     /tmp/ccIfjRGV.s:26757  .debug_str:00000000000009c5 .LASF119
     /tmp/ccIfjRGV.s:26557  .debug_str:0000000000000604 .LASF120
GAS LISTING /tmp/ccIfjRGV.s 			page 319


     /tmp/ccIfjRGV.s:26325  .debug_str:000000000000009c .LASF121
     /tmp/ccIfjRGV.s:26299  .debug_str:0000000000000020 .LASF255
     /tmp/ccIfjRGV.s:26395  .debug_str:00000000000002c7 .LASF122
     /tmp/ccIfjRGV.s:26437  .debug_str:00000000000003aa .LASF123
     /tmp/ccIfjRGV.s:26727  .debug_str:0000000000000937 .LASF124
     /tmp/ccIfjRGV.s:26419  .debug_str:0000000000000347 .LASF125
     /tmp/ccIfjRGV.s:26763  .debug_str:00000000000009dc .LASF126
     /tmp/ccIfjRGV.s:26719  .debug_str:0000000000000919 .LASF127
     /tmp/ccIfjRGV.s:26501  .debug_str:00000000000004dd .LASF128
     /tmp/ccIfjRGV.s:26687  .debug_str:0000000000000882 .LASF129
     /tmp/ccIfjRGV.s:26695  .debug_str:00000000000008ae .LASF130
     /tmp/ccIfjRGV.s:26697  .debug_str:00000000000008b7 .LASF131
     /tmp/ccIfjRGV.s:26583  .debug_str:0000000000000676 .LASF132
     /tmp/ccIfjRGV.s:26755  .debug_str:00000000000009bc .LASF133
     /tmp/ccIfjRGV.s:26521  .debug_str:000000000000054b .LASF134
     /tmp/ccIfjRGV.s:26337  .debug_str:00000000000000d4 .LASF135
     /tmp/ccIfjRGV.s:26339  .debug_str:00000000000000df .LASF136
     /tmp/ccIfjRGV.s:26341  .debug_str:00000000000000ea .LASF137
     /tmp/ccIfjRGV.s:26673  .debug_str:000000000000082b .LASF138
     /tmp/ccIfjRGV.s:26345  .debug_str:00000000000000ff .LASF139
     /tmp/ccIfjRGV.s:26347  .debug_str:000000000000010a .LASF140
     /tmp/ccIfjRGV.s:26613  .debug_str:0000000000000703 .LASF141
     /tmp/ccIfjRGV.s:26411  .debug_str:000000000000031c .LASF142
     /tmp/ccIfjRGV.s:26413  .debug_str:0000000000000325 .LASF143
     /tmp/ccIfjRGV.s:26353  .debug_str:000000000000012d .LASF144
     /tmp/ccIfjRGV.s:26355  .debug_str:0000000000000138 .LASF145
     /tmp/ccIfjRGV.s:26321  .debug_str:0000000000000088 .LASF146
     /tmp/ccIfjRGV.s:26323  .debug_str:0000000000000092 .LASF147
     /tmp/ccIfjRGV.s:26765  .debug_str:00000000000009e5 .LASF148
     /tmp/ccIfjRGV.s:26767  .debug_str:00000000000009ee .LASF149
     /tmp/ccIfjRGV.s:26439  .debug_str:00000000000003bd .LASF150
     /tmp/ccIfjRGV.s:26441  .debug_str:00000000000003c6 .LASF151
     /tmp/ccIfjRGV.s:26733  .debug_str:0000000000000954 .LASF152
     /tmp/ccIfjRGV.s:26311  .debug_str:000000000000005f .LASF153
     /tmp/ccIfjRGV.s:26421  .debug_str:000000000000034f .LASF154
     /tmp/ccIfjRGV.s:26629  .debug_str:0000000000000752 .LASF155
     /tmp/ccIfjRGV.s:26507  .debug_str:00000000000004ff .LASF156
     /tmp/ccIfjRGV.s:26543  .debug_str:00000000000005c3 .LASF157
     /tmp/ccIfjRGV.s:26545  .debug_str:00000000000005cd .LASF158
     /tmp/ccIfjRGV.s:26547  .debug_str:00000000000005d7 .LASF159
     /tmp/ccIfjRGV.s:26549  .debug_str:00000000000005e1 .LASF160
     /tmp/ccIfjRGV.s:26551  .debug_str:00000000000005eb .LASF161
     /tmp/ccIfjRGV.s:26535  .debug_str:0000000000000597 .LASF162
     /tmp/ccIfjRGV.s:26537  .debug_str:00000000000005a0 .LASF163
     /tmp/ccIfjRGV.s:26335  .debug_str:00000000000000c9 .LASF164
     /tmp/ccIfjRGV.s:26409  .debug_str:0000000000000313 .LASF165
     /tmp/ccIfjRGV.s:26351  .debug_str:0000000000000122 .LASF166
     /tmp/ccIfjRGV.s:26469  .debug_str:000000000000042d .LASF167
     /tmp/ccIfjRGV.s:26745  .debug_str:0000000000000998 .LASF168
     /tmp/ccIfjRGV.s:26801  .debug_str:0000000000000aa7 .LASF169
     /tmp/ccIfjRGV.s:26359  .debug_str:0000000000000150 .LASF170
     /tmp/ccIfjRGV.s:26365  .debug_str:00000000000001d7 .LASF171
     /tmp/ccIfjRGV.s:26789  .debug_str:0000000000000a63 .LASF172
     /tmp/ccIfjRGV.s:26681  .debug_str:000000000000085d .LASF173
     /tmp/ccIfjRGV.s:26679  .debug_str:0000000000000852 .LASF174
     /tmp/ccIfjRGV.s:26453  .debug_str:00000000000003ec .LASF175
     /tmp/ccIfjRGV.s:26737  .debug_str:000000000000096a .LASF176
GAS LISTING /tmp/ccIfjRGV.s 			page 320


     /tmp/ccIfjRGV.s:26431  .debug_str:0000000000000384 .LASF177
     /tmp/ccIfjRGV.s:26375  .debug_str:0000000000000268 .LASF178
     /tmp/ccIfjRGV.s:26481  .debug_str:0000000000000466 .LASF179
     /tmp/ccIfjRGV.s:26503  .debug_str:00000000000004ed .LASF180
     /tmp/ccIfjRGV.s:26505  .debug_str:00000000000004f6 .LASF181
     /tmp/ccIfjRGV.s:26357  .debug_str:0000000000000143 .LASF182
     /tmp/ccIfjRGV.s:26475  .debug_str:0000000000000449 .LASF183
     /tmp/ccIfjRGV.s:26667  .debug_str:0000000000000808 .LASF184
     /tmp/ccIfjRGV.s:26741  .debug_str:000000000000097f .LASF187
     /tmp/ccIfjRGV.s:9377   .text.LCD_ShowPicture:0000000000000000 .LFB28
     /tmp/ccIfjRGV.s:9438   .text.LCD_ShowPicture:0000000000000046 .LFE28
     /tmp/ccIfjRGV.s:20598  .debug_loc:0000000000000000 .LLST348
     /tmp/ccIfjRGV.s:20616  .debug_loc:000000000000002c .LLST349
     /tmp/ccIfjRGV.s:20630  .debug_loc:000000000000004d .LLST350
     /tmp/ccIfjRGV.s:20644  .debug_loc:000000000000006e .LLST351
     /tmp/ccIfjRGV.s:20658  .debug_loc:000000000000008f .LLST352
     /tmp/ccIfjRGV.s:26455  .debug_str:00000000000003f2 .LASF185
     /tmp/ccIfjRGV.s:20672  .debug_loc:00000000000000b0 .LLST353
     /tmp/ccIfjRGV.s:20690  .debug_loc:00000000000000dc .LLST354
     /tmp/ccIfjRGV.s:26651  .debug_str:00000000000007bb .LASF186
     /tmp/ccIfjRGV.s:20719  .debug_loc:0000000000000113 .LLST355
     /tmp/ccIfjRGV.s:9411   .text.LCD_ShowPicture:0000000000000024 .LVL499
     /tmp/ccIfjRGV.s:9422   .text.LCD_ShowPicture:0000000000000038 .LVL502
     /tmp/ccIfjRGV.s:26699  .debug_str:00000000000008c0 .LASF188
     /tmp/ccIfjRGV.s:9115   .text.LCD_ShowNum1:0000000000000000 .LFB27
     /tmp/ccIfjRGV.s:9370   .text.LCD_ShowNum1:0000000000000102 .LFE27
     /tmp/ccIfjRGV.s:20751  .debug_loc:0000000000000146 .LLST324
     /tmp/ccIfjRGV.s:20774  .debug_loc:000000000000017e .LLST325
     /tmp/ccIfjRGV.s:20796  .debug_loc:00000000000001b5 .LLST326
     /tmp/ccIfjRGV.s:20818  .debug_loc:00000000000001ec .LLST327
     /tmp/ccIfjRGV.s:20834  .debug_loc:000000000000020f .LLST328
     /tmp/ccIfjRGV.s:26705  .debug_str:00000000000008de .LASF189
     /tmp/ccIfjRGV.s:20860  .debug_loc:0000000000000251 .LLST329
     /tmp/ccIfjRGV.s:20882  .debug_loc:0000000000000288 .LLST330
     /tmp/ccIfjRGV.s:26793  .debug_str:0000000000000a84 .LASF190
     /tmp/ccIfjRGV.s:20906  .debug_loc:00000000000002c8 .LLST331
     /tmp/ccIfjRGV.s:26713  .debug_str:00000000000008fd .LASF191
     /tmp/ccIfjRGV.s:20925  .debug_loc:00000000000002ee .LLST332
     /tmp/ccIfjRGV.s:9176   .text.LCD_ShowNum1:0000000000000044 .LBB1669
     /tmp/ccIfjRGV.s:20940  .debug_loc:0000000000000317 .LLST333
     /tmp/ccIfjRGV.s:20959  .debug_loc:000000000000034b .LLST334
     /tmp/ccIfjRGV.s:20972  .debug_loc:000000000000036b .LLST335
     /tmp/ccIfjRGV.s:9182   .text.LCD_ShowNum1:0000000000000048 .LBB1673
     /tmp/ccIfjRGV.s:20993  .debug_loc:00000000000003a1 .LLST336
     /tmp/ccIfjRGV.s:21000  .debug_loc:00000000000003b4 .LLST337
     /tmp/ccIfjRGV.s:21008  .debug_loc:00000000000003c8 .LLST338
     /tmp/ccIfjRGV.s:21017  .debug_loc:00000000000003dd .LLST339
     /tmp/ccIfjRGV.s:21024  .debug_loc:00000000000003f0 .LLST340
     /tmp/ccIfjRGV.s:21042  .debug_loc:0000000000000415 .LLST341
     /tmp/ccIfjRGV.s:9341   .text.LCD_ShowNum1:00000000000000f0 .LVL491
     /tmp/ccIfjRGV.s:9248   .text.LCD_ShowNum1:000000000000008c .LBB1677
     /tmp/ccIfjRGV.s:21071  .debug_loc:000000000000044c .LLST342
     /tmp/ccIfjRGV.s:21078  .debug_loc:000000000000045f .LLST343
     /tmp/ccIfjRGV.s:21086  .debug_loc:0000000000000473 .LLST344
     /tmp/ccIfjRGV.s:21099  .debug_loc:000000000000048c .LLST345
     /tmp/ccIfjRGV.s:21106  .debug_loc:000000000000049f .LLST346
     /tmp/ccIfjRGV.s:21124  .debug_loc:00000000000004c4 .LLST347
GAS LISTING /tmp/ccIfjRGV.s 			page 321


     /tmp/ccIfjRGV.s:9269   .text.LCD_ShowNum1:00000000000000aa .LVL481
     /tmp/ccIfjRGV.s:26405  .debug_str:00000000000002fe .LASF192
     /tmp/ccIfjRGV.s:8887   .text.LCD_ShowNum:0000000000000000 .LFB26
     /tmp/ccIfjRGV.s:9106   .text.LCD_ShowNum:00000000000000e0 .LFE26
     /tmp/ccIfjRGV.s:21153  .debug_loc:00000000000004fb .LLST306
     /tmp/ccIfjRGV.s:21176  .debug_loc:0000000000000535 .LLST307
     /tmp/ccIfjRGV.s:21190  .debug_loc:0000000000000556 .LLST308
     /tmp/ccIfjRGV.s:21212  .debug_loc:000000000000058d .LLST309
     /tmp/ccIfjRGV.s:21234  .debug_loc:00000000000005c4 .LLST310
     /tmp/ccIfjRGV.s:21248  .debug_loc:00000000000005e5 .LLST311
     /tmp/ccIfjRGV.s:21270  .debug_loc:000000000000061f .LLST312
     /tmp/ccIfjRGV.s:21292  .debug_loc:0000000000000656 .LLST313
     /tmp/ccIfjRGV.s:26771  .debug_str:00000000000009ff .LASF193
     /tmp/ccIfjRGV.s:21309  .debug_loc:0000000000000681 .LLST314
     /tmp/ccIfjRGV.s:8936   .text.LCD_ShowNum:0000000000000032 .LBB1657
     /tmp/ccIfjRGV.s:21325  .debug_loc:00000000000006ab .LLST315
     /tmp/ccIfjRGV.s:21344  .debug_loc:00000000000006df .LLST316
     /tmp/ccIfjRGV.s:21357  .debug_loc:00000000000006ff .LLST317
     /tmp/ccIfjRGV.s:8944   .text.LCD_ShowNum:0000000000000038 .LBB1661
     /tmp/ccIfjRGV.s:21378  .debug_loc:0000000000000735 .LLST318
     /tmp/ccIfjRGV.s:21386  .debug_loc:000000000000074a .LLST319
     /tmp/ccIfjRGV.s:21394  .debug_loc:000000000000075e .LLST320
     /tmp/ccIfjRGV.s:21409  .debug_loc:0000000000000780 .LLST321
     /tmp/ccIfjRGV.s:21416  .debug_loc:0000000000000793 .LLST322
     /tmp/ccIfjRGV.s:9024   .text.LCD_ShowNum:0000000000000092 .LVL459
     /tmp/ccIfjRGV.s:9084   .text.LCD_ShowNum:00000000000000c2 .LBB1667
     /tmp/ccIfjRGV.s:9104   .text.LCD_ShowNum:00000000000000e0 .LBE1667
     /tmp/ccIfjRGV.s:9085   .text.LCD_ShowNum:00000000000000c2 .LBB1668
     /tmp/ccIfjRGV.s:9103   .text.LCD_ShowNum:00000000000000e0 .LBE1668
     /tmp/ccIfjRGV.s:9101   .text.LCD_ShowNum:00000000000000de .LVL466
     /tmp/ccIfjRGV.s:26623  .debug_str:0000000000000736 .LASF256
     /tmp/ccIfjRGV.s:26385  .debug_str:000000000000028f .LASF197
     /tmp/ccIfjRGV.s:26389  .debug_str:00000000000002a4 .LASF194
     /tmp/ccIfjRGV.s:8723   .text.LCD_ShowStr:0000000000000000 .LFB24
     /tmp/ccIfjRGV.s:8839   .text.LCD_ShowStr:000000000000006c .LFE24
     /tmp/ccIfjRGV.s:21433  .debug_loc:00000000000007b0 .LLST297
     /tmp/ccIfjRGV.s:21456  .debug_loc:00000000000007e8 .LLST298
     /tmp/ccIfjRGV.s:21480  .debug_loc:0000000000000828 .LLST299
     /tmp/ccIfjRGV.s:21495  .debug_loc:0000000000000851 .LLST300
     /tmp/ccIfjRGV.s:21520  .debug_loc:0000000000000892 .LLST301
     /tmp/ccIfjRGV.s:26721  .debug_str:0000000000000922 .LASF195
     /tmp/ccIfjRGV.s:21542  .debug_loc:00000000000008c9 .LLST302
     /tmp/ccIfjRGV.s:8781   .text.LCD_ShowStr:0000000000000038 .LBB1653
     /tmp/ccIfjRGV.s:8794   .text.LCD_ShowStr:0000000000000048 .LVL437
     /tmp/ccIfjRGV.s:26577  .debug_str:0000000000000654 .LASF196
     /tmp/ccIfjRGV.s:8536   .text.LCD_ShowString:0000000000000000 .LFB23
     /tmp/ccIfjRGV.s:8716   .text.LCD_ShowString:0000000000000090 .LFE23
     /tmp/ccIfjRGV.s:21556  .debug_loc:00000000000008ea .LLST286
     /tmp/ccIfjRGV.s:21584  .debug_loc:000000000000092e .LLST287
     /tmp/ccIfjRGV.s:21617  .debug_loc:0000000000000985 .LLST288
     /tmp/ccIfjRGV.s:21645  .debug_loc:00000000000009d0 .LLST289
     /tmp/ccIfjRGV.s:21674  .debug_loc:0000000000000a1c .LLST290
     /tmp/ccIfjRGV.s:8595   .text.LCD_ShowString:000000000000003c .LBB1643
     /tmp/ccIfjRGV.s:21700  .debug_loc:0000000000000a5e .LLST291
     /tmp/ccIfjRGV.s:21715  .debug_loc:0000000000000a87 .LLST292
     /tmp/ccIfjRGV.s:21733  .debug_loc:0000000000000ab3 .LLST293
     /tmp/ccIfjRGV.s:21748  .debug_loc:0000000000000adc .LLST294
GAS LISTING /tmp/ccIfjRGV.s 			page 322


     /tmp/ccIfjRGV.s:21764  .debug_loc:0000000000000b06 .LLST295
     /tmp/ccIfjRGV.s:8622   .text.LCD_ShowString:0000000000000050 .LVL420
     /tmp/ccIfjRGV.s:8684   .text.LCD_ShowString:0000000000000082 .LVL428
     /tmp/ccIfjRGV.s:26425  .debug_str:0000000000000360 .LASF216
     /tmp/ccIfjRGV.s:26401  .debug_str:00000000000002e3 .LASF198
     /tmp/ccIfjRGV.s:8250   .text.Draw_Circle:0000000000000000 .LFB21
     /tmp/ccIfjRGV.s:8501   .text.Draw_Circle:0000000000000154 .LFE21
     /tmp/ccIfjRGV.s:21785  .debug_loc:0000000000000b3c .LLST249
     /tmp/ccIfjRGV.s:21803  .debug_loc:0000000000000b69 .LLST250
     /tmp/ccIfjRGV.s:21821  .debug_loc:0000000000000b95 .LLST251
     /tmp/ccIfjRGV.s:21839  .debug_loc:0000000000000bc1 .LLST252
     /tmp/ccIfjRGV.s:21853  .debug_loc:0000000000000be2 .LLST253
     /tmp/ccIfjRGV.s:21871  .debug_loc:0000000000000c0e .LLST254
     /tmp/ccIfjRGV.s:21883  .debug_loc:0000000000000c2d .LLST255
     /tmp/ccIfjRGV.s:8307   .text.Draw_Circle:0000000000000034 .LBB1627
     /tmp/ccIfjRGV.s:8321   .text.Draw_Circle:000000000000004e .LBE1627
     /tmp/ccIfjRGV.s:21894  .debug_loc:0000000000000c4b .LLST256
     /tmp/ccIfjRGV.s:21901  .debug_loc:0000000000000c5e .LLST257
     /tmp/ccIfjRGV.s:21908  .debug_loc:0000000000000c71 .LLST258
     /tmp/ccIfjRGV.s:8315   .text.Draw_Circle:0000000000000044 .LVL384
     /tmp/ccIfjRGV.s:8319   .text.Draw_Circle:000000000000004e .LVL385
     /tmp/ccIfjRGV.s:8325   .text.Draw_Circle:0000000000000052 .LBB1629
     /tmp/ccIfjRGV.s:8339   .text.Draw_Circle:000000000000006c .LBE1629
     /tmp/ccIfjRGV.s:21915  .debug_loc:0000000000000c84 .LLST259
     /tmp/ccIfjRGV.s:21922  .debug_loc:0000000000000c97 .LLST260
     /tmp/ccIfjRGV.s:21929  .debug_loc:0000000000000caa .LLST261
     /tmp/ccIfjRGV.s:8333   .text.Draw_Circle:0000000000000062 .LVL387
     /tmp/ccIfjRGV.s:8337   .text.Draw_Circle:000000000000006c .LVL388
     /tmp/ccIfjRGV.s:8344   .text.Draw_Circle:0000000000000074 .LBB1631
     /tmp/ccIfjRGV.s:8358   .text.Draw_Circle:000000000000008e .LBE1631
     /tmp/ccIfjRGV.s:21936  .debug_loc:0000000000000cbd .LLST262
     /tmp/ccIfjRGV.s:21943  .debug_loc:0000000000000cd0 .LLST263
     /tmp/ccIfjRGV.s:21950  .debug_loc:0000000000000ce3 .LLST264
     /tmp/ccIfjRGV.s:8352   .text.Draw_Circle:0000000000000084 .LVL390
     /tmp/ccIfjRGV.s:8356   .text.Draw_Circle:000000000000008e .LVL391
     /tmp/ccIfjRGV.s:8362   .text.Draw_Circle:0000000000000092 .LBB1633
     /tmp/ccIfjRGV.s:8377   .text.Draw_Circle:00000000000000b0 .LBE1633
     /tmp/ccIfjRGV.s:21957  .debug_loc:0000000000000cf6 .LLST265
     /tmp/ccIfjRGV.s:21964  .debug_loc:0000000000000d09 .LLST266
     /tmp/ccIfjRGV.s:21971  .debug_loc:0000000000000d1c .LLST267
     /tmp/ccIfjRGV.s:8370   .text.Draw_Circle:00000000000000a2 .LVL393
     /tmp/ccIfjRGV.s:8375   .text.Draw_Circle:00000000000000b0 .LVL394
     /tmp/ccIfjRGV.s:8381   .text.Draw_Circle:00000000000000b2 .LBB1635
     /tmp/ccIfjRGV.s:8395   .text.Draw_Circle:00000000000000cc .LBE1635
     /tmp/ccIfjRGV.s:21978  .debug_loc:0000000000000d2f .LLST268
     /tmp/ccIfjRGV.s:21985  .debug_loc:0000000000000d42 .LLST269
     /tmp/ccIfjRGV.s:21992  .debug_loc:0000000000000d55 .LLST270
     /tmp/ccIfjRGV.s:8389   .text.Draw_Circle:00000000000000c2 .LVL396
     /tmp/ccIfjRGV.s:8393   .text.Draw_Circle:00000000000000cc .LVL397
     /tmp/ccIfjRGV.s:8399   .text.Draw_Circle:00000000000000ce .LBB1637
     /tmp/ccIfjRGV.s:8413   .text.Draw_Circle:00000000000000e8 .LBE1637
     /tmp/ccIfjRGV.s:21999  .debug_loc:0000000000000d68 .LLST271
     /tmp/ccIfjRGV.s:22006  .debug_loc:0000000000000d7b .LLST272
     /tmp/ccIfjRGV.s:22013  .debug_loc:0000000000000d8e .LLST273
     /tmp/ccIfjRGV.s:8407   .text.Draw_Circle:00000000000000de .LVL399
     /tmp/ccIfjRGV.s:8411   .text.Draw_Circle:00000000000000e8 .LVL400
     /tmp/ccIfjRGV.s:8415   .text.Draw_Circle:00000000000000e8 .LBB1639
GAS LISTING /tmp/ccIfjRGV.s 			page 323


     /tmp/ccIfjRGV.s:8429   .text.Draw_Circle:0000000000000102 .LBE1639
     /tmp/ccIfjRGV.s:22020  .debug_loc:0000000000000da1 .LLST274
     /tmp/ccIfjRGV.s:22027  .debug_loc:0000000000000db4 .LLST275
     /tmp/ccIfjRGV.s:22034  .debug_loc:0000000000000dc7 .LLST276
     /tmp/ccIfjRGV.s:8423   .text.Draw_Circle:00000000000000f8 .LVL401
     /tmp/ccIfjRGV.s:8427   .text.Draw_Circle:0000000000000102 .LVL402
     /tmp/ccIfjRGV.s:8431   .text.Draw_Circle:0000000000000102 .LBB1641
     /tmp/ccIfjRGV.s:8445   .text.Draw_Circle:000000000000011c .LBE1641
     /tmp/ccIfjRGV.s:22041  .debug_loc:0000000000000dda .LLST277
     /tmp/ccIfjRGV.s:22048  .debug_loc:0000000000000ded .LLST278
     /tmp/ccIfjRGV.s:22055  .debug_loc:0000000000000e00 .LLST279
     /tmp/ccIfjRGV.s:8439   .text.Draw_Circle:0000000000000112 .LVL403
     /tmp/ccIfjRGV.s:8443   .text.Draw_Circle:000000000000011c .LVL404
     /tmp/ccIfjRGV.s:26499  .debug_str:00000000000004cb .LASF199
     /tmp/ccIfjRGV.s:8158   .text.LCD_DrawRectangle:0000000000000000 .LFB20
     /tmp/ccIfjRGV.s:8243   .text.LCD_DrawRectangle:0000000000000066 .LFE20
     /tmp/ccIfjRGV.s:22062  .debug_loc:0000000000000e13 .LLST243
     /tmp/ccIfjRGV.s:22080  .debug_loc:0000000000000e3f .LLST244
     /tmp/ccIfjRGV.s:22098  .debug_loc:0000000000000e6b .LLST245
     /tmp/ccIfjRGV.s:22120  .debug_loc:0000000000000ea2 .LLST246
     /tmp/ccIfjRGV.s:22142  .debug_loc:0000000000000ed9 .LLST247
     /tmp/ccIfjRGV.s:22164  .debug_loc:0000000000000f10 .LLST248
     /tmp/ccIfjRGV.s:8191   .text.LCD_DrawRectangle:0000000000000022 .LVL371
     /tmp/ccIfjRGV.s:8199   .text.LCD_DrawRectangle:0000000000000034 .LVL372
     /tmp/ccIfjRGV.s:8207   .text.LCD_DrawRectangle:0000000000000046 .LVL373
     /tmp/ccIfjRGV.s:8241   .text.LCD_DrawRectangle:0000000000000066 .LVL379
     /tmp/ccIfjRGV.s:26711  .debug_str:00000000000008f0 .LASF200
     /tmp/ccIfjRGV.s:7928   .text.LCD_DrawLine:0000000000000000 .LFB19
     /tmp/ccIfjRGV.s:8151   .text.LCD_DrawLine:00000000000000ba .LFE19
     /tmp/ccIfjRGV.s:22186  .debug_loc:0000000000000f47 .LLST224
     /tmp/ccIfjRGV.s:22209  .debug_loc:0000000000000f7f .LLST225
     /tmp/ccIfjRGV.s:22227  .debug_loc:0000000000000fab .LLST226
     /tmp/ccIfjRGV.s:22245  .debug_loc:0000000000000fd7 .LLST227
     /tmp/ccIfjRGV.s:22263  .debug_loc:0000000000001003 .LLST228
     /tmp/ccIfjRGV.s:22281  .debug_loc:000000000000102f .LLST229
     /tmp/ccIfjRGV.s:22303  .debug_loc:0000000000001066 .LLST230
     /tmp/ccIfjRGV.s:26449  .debug_str:00000000000003e0 .LASF201
     /tmp/ccIfjRGV.s:22319  .debug_loc:0000000000001090 .LLST231
     /tmp/ccIfjRGV.s:26633  .debug_str:0000000000000767 .LASF202
     /tmp/ccIfjRGV.s:22340  .debug_loc:00000000000010c6 .LLST232
     /tmp/ccIfjRGV.s:26723  .debug_str:0000000000000927 .LASF203
     /tmp/ccIfjRGV.s:22357  .debug_loc:00000000000010f1 .LLST233
     /tmp/ccIfjRGV.s:26725  .debug_str:000000000000092f .LASF204
     /tmp/ccIfjRGV.s:22376  .debug_loc:0000000000001125 .LLST234
     /tmp/ccIfjRGV.s:26773  .debug_str:0000000000000a06 .LASF205
     /tmp/ccIfjRGV.s:22387  .debug_loc:0000000000001143 .LLST235
     /tmp/ccIfjRGV.s:26589  .debug_str:000000000000069c .LASF206
     /tmp/ccIfjRGV.s:22394  .debug_loc:0000000000001156 .LLST236
     /tmp/ccIfjRGV.s:26591  .debug_str:00000000000006a1 .LASF207
     /tmp/ccIfjRGV.s:22411  .debug_loc:0000000000001181 .LLST237
     /tmp/ccIfjRGV.s:26783  .debug_str:0000000000000a43 .LASF208
     /tmp/ccIfjRGV.s:22424  .debug_loc:00000000000011a1 .LLST238
     /tmp/ccIfjRGV.s:26645  .debug_str:0000000000000795 .LASF209
     /tmp/ccIfjRGV.s:22439  .debug_loc:00000000000011ca .LLST239
     /tmp/ccIfjRGV.s:8012   .text.LCD_DrawLine:0000000000000042 .LBB1623
     /tmp/ccIfjRGV.s:22454  .debug_loc:00000000000011f3 .LLST240
     /tmp/ccIfjRGV.s:22461  .debug_loc:0000000000001206 .LLST241
GAS LISTING /tmp/ccIfjRGV.s 			page 324


     /tmp/ccIfjRGV.s:22468  .debug_loc:0000000000001219 .LLST242
     /tmp/ccIfjRGV.s:8020   .text.LCD_DrawLine:0000000000000052 .LVL344
     /tmp/ccIfjRGV.s:8032   .text.LCD_DrawLine:000000000000005e .LVL346
     /tmp/ccIfjRGV.s:26619  .debug_str:0000000000000723 .LASF210
     /tmp/ccIfjRGV.s:7813   .text.LCD_Fill:0000000000000000 .LFB18
     /tmp/ccIfjRGV.s:7898   .text.LCD_Fill:0000000000000054 .LFE18
     /tmp/ccIfjRGV.s:22475  .debug_loc:000000000000122c .LLST213
     /tmp/ccIfjRGV.s:26313  .debug_str:0000000000000067 .LASF211
     /tmp/ccIfjRGV.s:22493  .debug_loc:0000000000001258 .LLST214
     /tmp/ccIfjRGV.s:26569  .debug_str:0000000000000637 .LASF212
     /tmp/ccIfjRGV.s:22511  .debug_loc:0000000000001284 .LLST215
     /tmp/ccIfjRGV.s:26297  .debug_str:000000000000001b .LASF213
     /tmp/ccIfjRGV.s:22529  .debug_loc:00000000000012b0 .LLST216
     /tmp/ccIfjRGV.s:26559  .debug_str:000000000000060d .LASF214
     /tmp/ccIfjRGV.s:22547  .debug_loc:00000000000012dc .LLST217
     /tmp/ccIfjRGV.s:22565  .debug_loc:0000000000001308 .LLST218
     /tmp/ccIfjRGV.s:22583  .debug_loc:0000000000001334 .LLST219
     /tmp/ccIfjRGV.s:22590  .debug_loc:0000000000001347 .LLST220
     /tmp/ccIfjRGV.s:7845   .text.LCD_Fill:0000000000000022 .LVL317
     /tmp/ccIfjRGV.s:7862   .text.LCD_Fill:0000000000000038 .LVL321
     /tmp/ccIfjRGV.s:26293  .debug_str:0000000000000000 .LASF215
     /tmp/ccIfjRGV.s:7905   .text.LCD_DrawPoint_big:0000000000000000 .LFB17
     /tmp/ccIfjRGV.s:7921   .text.LCD_DrawPoint_big:0000000000000016 .LFE17
     /tmp/ccIfjRGV.s:22611  .debug_loc:000000000000137d .LLST221
     /tmp/ccIfjRGV.s:22631  .debug_loc:00000000000013ab .LLST222
     /tmp/ccIfjRGV.s:22651  .debug_loc:00000000000013d9 .LLST223
     /tmp/ccIfjRGV.s:7919   .text.LCD_DrawPoint_big:0000000000000016 .LVL333
     /tmp/ccIfjRGV.s:26615  .debug_str:000000000000070d .LASF217
     /tmp/ccIfjRGV.s:26649  .debug_str:00000000000007ab .LASF218
     /tmp/ccIfjRGV.s:7611   .text.LCD_ShowChinese:0000000000000000 .LFB15
     /tmp/ccIfjRGV.s:7760   .text.LCD_ShowChinese:00000000000000b8 .LFE15
     /tmp/ccIfjRGV.s:22669  .debug_loc:0000000000001405 .LLST199
     /tmp/ccIfjRGV.s:22692  .debug_loc:000000000000143d .LLST200
     /tmp/ccIfjRGV.s:22717  .debug_loc:0000000000001477 .LLST201
     /tmp/ccIfjRGV.s:26477  .debug_str:0000000000000452 .LASF219
     /tmp/ccIfjRGV.s:22742  .debug_loc:00000000000014b1 .LLST202
     /tmp/ccIfjRGV.s:22756  .debug_loc:00000000000014d2 .LLST203
     /tmp/ccIfjRGV.s:22770  .debug_loc:00000000000014f3 .LLST204
     /tmp/ccIfjRGV.s:22800  .debug_loc:0000000000001540 .LLST205
     /tmp/ccIfjRGV.s:22807  .debug_loc:0000000000001553 .LLST206
     /tmp/ccIfjRGV.s:22828  .debug_loc:0000000000001589 .LLST207
     /tmp/ccIfjRGV.s:26457  .debug_str:00000000000003f8 .LASF220
     /tmp/ccIfjRGV.s:22851  .debug_loc:00000000000015c7 .LLST208
     /tmp/ccIfjRGV.s:7661   .text.LCD_ShowChinese:000000000000004c .LVL295
     /tmp/ccIfjRGV.s:7704   .text.LCD_ShowChinese:0000000000000080 .LVL302
     /tmp/ccIfjRGV.s:7749   .text.LCD_ShowChinese:00000000000000ac .LVL309
     /tmp/ccIfjRGV.s:26309  .debug_str:0000000000000055 .LASF221
     /tmp/ccIfjRGV.s:7537   .text.LCD_Clear:0000000000000000 .LFB14
     /tmp/ccIfjRGV.s:7604   .text.LCD_Clear:0000000000000048 .LFE14
     /tmp/ccIfjRGV.s:22860  .debug_loc:00000000000015dc .LLST195
     /tmp/ccIfjRGV.s:26663  .debug_str:00000000000007fc .LASF222
     /tmp/ccIfjRGV.s:22878  .debug_loc:0000000000001608 .LLST196
     /tmp/ccIfjRGV.s:22896  .debug_loc:0000000000001634 .LLST197
     /tmp/ccIfjRGV.s:22926  .debug_loc:000000000000166c .LLST198
     /tmp/ccIfjRGV.s:7568   .text.LCD_Clear:0000000000000024 .LVL283
     /tmp/ccIfjRGV.s:7580   .text.LCD_Clear:0000000000000034 .LVL286
     /tmp/ccIfjRGV.s:26429  .debug_str:000000000000037b .LASF223
GAS LISTING /tmp/ccIfjRGV.s 			page 325


     /tmp/ccIfjRGV.s:1709   .text.Lcd_Init:0000000000000000 .LFB13
     /tmp/ccIfjRGV.s:7530   .text.Lcd_Init:00000000000017cc .LFE13
     /tmp/ccIfjRGV.s:22952  .debug_loc:00000000000016a0 .LLST47
     /tmp/ccIfjRGV.s:1737   .text.Lcd_Init:000000000000001a .LBB506
     /tmp/ccIfjRGV.s:1752   .text.Lcd_Init:0000000000000024 .LBE506
     /tmp/ccIfjRGV.s:22975  .debug_loc:00000000000016d8 .LLST48
     /tmp/ccIfjRGV.s:1790   .text.Lcd_Init:000000000000008a .LBB508
     /tmp/ccIfjRGV.s:1814   .text.Lcd_Init:00000000000000b2 .LVL123
     /tmp/ccIfjRGV.s:1828   .text.Lcd_Init:00000000000000c6 .LBB512
     /tmp/ccIfjRGV.s:1880   .text.Lcd_Init:0000000000000118 .LBE512
     /tmp/ccIfjRGV.s:1829   .text.Lcd_Init:00000000000000c6 .LBB513
     /tmp/ccIfjRGV.s:1879   .text.Lcd_Init:0000000000000118 .LBE513
     /tmp/ccIfjRGV.s:22983  .debug_loc:00000000000016ec .LLST49
     /tmp/ccIfjRGV.s:1849   .text.Lcd_Init:00000000000000ec .LVL125
     /tmp/ccIfjRGV.s:1881   .text.Lcd_Init:0000000000000118 .LBB515
     /tmp/ccIfjRGV.s:1891   .text.Lcd_Init:0000000000000128 .LBE515
     /tmp/ccIfjRGV.s:1885   .text.Lcd_Init:0000000000000120 .LVL127
     /tmp/ccIfjRGV.s:1898   .text.Lcd_Init:0000000000000134 .LBB517
     /tmp/ccIfjRGV.s:1948   .text.Lcd_Init:000000000000017e .LBE517
     /tmp/ccIfjRGV.s:1899   .text.Lcd_Init:0000000000000134 .LBB518
     /tmp/ccIfjRGV.s:1947   .text.Lcd_Init:000000000000017e .LBE518
     /tmp/ccIfjRGV.s:22991  .debug_loc:0000000000001700 .LLST50
     /tmp/ccIfjRGV.s:1919   .text.Lcd_Init:000000000000015a .LVL129
     /tmp/ccIfjRGV.s:1949   .text.Lcd_Init:000000000000017e .LBB520
     /tmp/ccIfjRGV.s:1959   .text.Lcd_Init:000000000000018e .LBE520
     /tmp/ccIfjRGV.s:1953   .text.Lcd_Init:0000000000000186 .LVL131
     /tmp/ccIfjRGV.s:1970   .text.Lcd_Init:00000000000001a4 .LBB522
     /tmp/ccIfjRGV.s:1971   .text.Lcd_Init:00000000000001a4 .LBB523
     /tmp/ccIfjRGV.s:1975   .text.Lcd_Init:00000000000001ac .LVL133
     /tmp/ccIfjRGV.s:2001   .text.Lcd_Init:00000000000001d4 .LBB527
     /tmp/ccIfjRGV.s:2002   .text.Lcd_Init:00000000000001d4 .LBB528
     /tmp/ccIfjRGV.s:7509   .text.Lcd_Init:00000000000017aa .LVL280
     /tmp/ccIfjRGV.s:2034   .text.Lcd_Init:00000000000001f4 .LBB540
     /tmp/ccIfjRGV.s:22999  .debug_loc:0000000000001714 .LLST51
     /tmp/ccIfjRGV.s:2035   .text.Lcd_Init:00000000000001f4 .LBB541
     /tmp/ccIfjRGV.s:23007  .debug_loc:0000000000001728 .LLST52
     /tmp/ccIfjRGV.s:2089   .text.Lcd_Init:0000000000000222 .LVL135
     /tmp/ccIfjRGV.s:2109   .text.Lcd_Init:0000000000000240 .LBB555
     /tmp/ccIfjRGV.s:23016  .debug_loc:000000000000173e .LLST53
     /tmp/ccIfjRGV.s:2110   .text.Lcd_Init:0000000000000240 .LBB556
     /tmp/ccIfjRGV.s:23025  .debug_loc:0000000000001753 .LLST54
     /tmp/ccIfjRGV.s:2164   .text.Lcd_Init:000000000000026e .LVL137
     /tmp/ccIfjRGV.s:2184   .text.Lcd_Init:000000000000028c .LBB570
     /tmp/ccIfjRGV.s:23034  .debug_loc:0000000000001769 .LLST55
     /tmp/ccIfjRGV.s:2185   .text.Lcd_Init:000000000000028c .LBB571
     /tmp/ccIfjRGV.s:23043  .debug_loc:000000000000177e .LLST56
     /tmp/ccIfjRGV.s:2239   .text.Lcd_Init:00000000000002ba .LVL139
     /tmp/ccIfjRGV.s:2259   .text.Lcd_Init:00000000000002d8 .LBB585
     /tmp/ccIfjRGV.s:23052  .debug_loc:0000000000001794 .LLST57
     /tmp/ccIfjRGV.s:2260   .text.Lcd_Init:00000000000002d8 .LBB586
     /tmp/ccIfjRGV.s:23061  .debug_loc:00000000000017a9 .LLST58
     /tmp/ccIfjRGV.s:2314   .text.Lcd_Init:0000000000000306 .LVL141
     /tmp/ccIfjRGV.s:2334   .text.Lcd_Init:0000000000000324 .LBB600
     /tmp/ccIfjRGV.s:23070  .debug_loc:00000000000017be .LLST59
     /tmp/ccIfjRGV.s:2335   .text.Lcd_Init:0000000000000324 .LBB601
     /tmp/ccIfjRGV.s:23078  .debug_loc:00000000000017d2 .LLST60
     /tmp/ccIfjRGV.s:2389   .text.Lcd_Init:0000000000000352 .LVL143
GAS LISTING /tmp/ccIfjRGV.s 			page 326


     /tmp/ccIfjRGV.s:2409   .text.Lcd_Init:0000000000000370 .LBB615
     /tmp/ccIfjRGV.s:23087  .debug_loc:00000000000017e8 .LLST61
     /tmp/ccIfjRGV.s:2410   .text.Lcd_Init:0000000000000370 .LBB616
     /tmp/ccIfjRGV.s:23096  .debug_loc:00000000000017fd .LLST62
     /tmp/ccIfjRGV.s:2464   .text.Lcd_Init:000000000000039e .LVL145
     /tmp/ccIfjRGV.s:2484   .text.Lcd_Init:00000000000003bc .LBB630
     /tmp/ccIfjRGV.s:23105  .debug_loc:0000000000001813 .LLST63
     /tmp/ccIfjRGV.s:2485   .text.Lcd_Init:00000000000003bc .LBB631
     /tmp/ccIfjRGV.s:23114  .debug_loc:0000000000001828 .LLST64
     /tmp/ccIfjRGV.s:2539   .text.Lcd_Init:00000000000003ea .LVL147
     /tmp/ccIfjRGV.s:2559   .text.Lcd_Init:0000000000000408 .LBB645
     /tmp/ccIfjRGV.s:23123  .debug_loc:000000000000183e .LLST65
     /tmp/ccIfjRGV.s:2560   .text.Lcd_Init:0000000000000408 .LBB646
     /tmp/ccIfjRGV.s:23132  .debug_loc:0000000000001853 .LLST66
     /tmp/ccIfjRGV.s:2614   .text.Lcd_Init:0000000000000436 .LVL149
     /tmp/ccIfjRGV.s:2634   .text.Lcd_Init:0000000000000454 .LBB660
     /tmp/ccIfjRGV.s:23141  .debug_loc:0000000000001868 .LLST67
     /tmp/ccIfjRGV.s:2635   .text.Lcd_Init:0000000000000454 .LBB661
     /tmp/ccIfjRGV.s:23149  .debug_loc:000000000000187c .LLST68
     /tmp/ccIfjRGV.s:2689   .text.Lcd_Init:0000000000000482 .LVL151
     /tmp/ccIfjRGV.s:2709   .text.Lcd_Init:00000000000004a0 .LBB675
     /tmp/ccIfjRGV.s:23158  .debug_loc:0000000000001892 .LLST69
     /tmp/ccIfjRGV.s:2710   .text.Lcd_Init:00000000000004a0 .LBB676
     /tmp/ccIfjRGV.s:23167  .debug_loc:00000000000018a7 .LLST70
     /tmp/ccIfjRGV.s:2764   .text.Lcd_Init:00000000000004ce .LVL153
     /tmp/ccIfjRGV.s:2784   .text.Lcd_Init:00000000000004ec .LBB690
     /tmp/ccIfjRGV.s:23176  .debug_loc:00000000000018bd .LLST71
     /tmp/ccIfjRGV.s:2785   .text.Lcd_Init:00000000000004ec .LBB691
     /tmp/ccIfjRGV.s:23185  .debug_loc:00000000000018d2 .LLST72
     /tmp/ccIfjRGV.s:2839   .text.Lcd_Init:000000000000051a .LVL155
     /tmp/ccIfjRGV.s:2859   .text.Lcd_Init:0000000000000538 .LBB705
     /tmp/ccIfjRGV.s:23194  .debug_loc:00000000000018e8 .LLST73
     /tmp/ccIfjRGV.s:2860   .text.Lcd_Init:0000000000000538 .LBB706
     /tmp/ccIfjRGV.s:23202  .debug_loc:00000000000018fc .LLST74
     /tmp/ccIfjRGV.s:2914   .text.Lcd_Init:0000000000000566 .LVL157
     /tmp/ccIfjRGV.s:2934   .text.Lcd_Init:0000000000000584 .LBB720
     /tmp/ccIfjRGV.s:23211  .debug_loc:0000000000001912 .LLST75
     /tmp/ccIfjRGV.s:2935   .text.Lcd_Init:0000000000000584 .LBB721
     /tmp/ccIfjRGV.s:23220  .debug_loc:0000000000001927 .LLST76
     /tmp/ccIfjRGV.s:2989   .text.Lcd_Init:00000000000005b2 .LVL159
     /tmp/ccIfjRGV.s:3009   .text.Lcd_Init:00000000000005d0 .LBB735
     /tmp/ccIfjRGV.s:23229  .debug_loc:000000000000193d .LLST77
     /tmp/ccIfjRGV.s:3010   .text.Lcd_Init:00000000000005d0 .LBB736
     /tmp/ccIfjRGV.s:23238  .debug_loc:0000000000001952 .LLST78
     /tmp/ccIfjRGV.s:3064   .text.Lcd_Init:00000000000005fe .LVL161
     /tmp/ccIfjRGV.s:3084   .text.Lcd_Init:000000000000061c .LBB750
     /tmp/ccIfjRGV.s:23247  .debug_loc:0000000000001968 .LLST79
     /tmp/ccIfjRGV.s:3085   .text.Lcd_Init:000000000000061c .LBB751
     /tmp/ccIfjRGV.s:23256  .debug_loc:000000000000197d .LLST80
     /tmp/ccIfjRGV.s:3139   .text.Lcd_Init:000000000000064a .LVL163
     /tmp/ccIfjRGV.s:3159   .text.Lcd_Init:0000000000000668 .LBB765
     /tmp/ccIfjRGV.s:23265  .debug_loc:0000000000001992 .LLST81
     /tmp/ccIfjRGV.s:3160   .text.Lcd_Init:0000000000000668 .LBB766
     /tmp/ccIfjRGV.s:23273  .debug_loc:00000000000019a6 .LLST82
     /tmp/ccIfjRGV.s:3214   .text.Lcd_Init:0000000000000696 .LVL165
     /tmp/ccIfjRGV.s:3234   .text.Lcd_Init:00000000000006b4 .LBB780
     /tmp/ccIfjRGV.s:23282  .debug_loc:00000000000019bc .LLST83
GAS LISTING /tmp/ccIfjRGV.s 			page 327


     /tmp/ccIfjRGV.s:3235   .text.Lcd_Init:00000000000006b4 .LBB781
     /tmp/ccIfjRGV.s:23291  .debug_loc:00000000000019d1 .LLST84
     /tmp/ccIfjRGV.s:3289   .text.Lcd_Init:00000000000006e2 .LVL167
     /tmp/ccIfjRGV.s:3309   .text.Lcd_Init:0000000000000700 .LBB795
     /tmp/ccIfjRGV.s:23300  .debug_loc:00000000000019e6 .LLST85
     /tmp/ccIfjRGV.s:3310   .text.Lcd_Init:0000000000000700 .LBB796
     /tmp/ccIfjRGV.s:23309  .debug_loc:00000000000019fb .LLST86
     /tmp/ccIfjRGV.s:3364   .text.Lcd_Init:000000000000072e .LVL169
     /tmp/ccIfjRGV.s:3384   .text.Lcd_Init:000000000000074c .LBB810
     /tmp/ccIfjRGV.s:23318  .debug_loc:0000000000001a11 .LLST87
     /tmp/ccIfjRGV.s:3385   .text.Lcd_Init:000000000000074c .LBB811
     /tmp/ccIfjRGV.s:23326  .debug_loc:0000000000001a25 .LLST88
     /tmp/ccIfjRGV.s:3439   .text.Lcd_Init:000000000000077a .LVL171
     /tmp/ccIfjRGV.s:3459   .text.Lcd_Init:0000000000000798 .LBB825
     /tmp/ccIfjRGV.s:23335  .debug_loc:0000000000001a3b .LLST89
     /tmp/ccIfjRGV.s:3460   .text.Lcd_Init:0000000000000798 .LBB826
     /tmp/ccIfjRGV.s:23343  .debug_loc:0000000000001a4f .LLST90
     /tmp/ccIfjRGV.s:3514   .text.Lcd_Init:00000000000007c6 .LVL173
     /tmp/ccIfjRGV.s:3534   .text.Lcd_Init:00000000000007e4 .LBB840
     /tmp/ccIfjRGV.s:23352  .debug_loc:0000000000001a65 .LLST91
     /tmp/ccIfjRGV.s:3535   .text.Lcd_Init:00000000000007e4 .LBB841
     /tmp/ccIfjRGV.s:23361  .debug_loc:0000000000001a7a .LLST92
     /tmp/ccIfjRGV.s:3589   .text.Lcd_Init:0000000000000812 .LVL175
     /tmp/ccIfjRGV.s:3609   .text.Lcd_Init:0000000000000830 .LBB855
     /tmp/ccIfjRGV.s:23370  .debug_loc:0000000000001a8f .LLST93
     /tmp/ccIfjRGV.s:3610   .text.Lcd_Init:0000000000000830 .LBB856
     /tmp/ccIfjRGV.s:23379  .debug_loc:0000000000001aa4 .LLST94
     /tmp/ccIfjRGV.s:3664   .text.Lcd_Init:000000000000085e .LVL177
     /tmp/ccIfjRGV.s:3684   .text.Lcd_Init:000000000000087c .LBB870
     /tmp/ccIfjRGV.s:23388  .debug_loc:0000000000001aba .LLST95
     /tmp/ccIfjRGV.s:3685   .text.Lcd_Init:000000000000087c .LBB871
     /tmp/ccIfjRGV.s:23397  .debug_loc:0000000000001acf .LLST96
     /tmp/ccIfjRGV.s:3739   .text.Lcd_Init:00000000000008aa .LVL179
     /tmp/ccIfjRGV.s:3759   .text.Lcd_Init:00000000000008c8 .LBB885
     /tmp/ccIfjRGV.s:23406  .debug_loc:0000000000001ae4 .LLST97
     /tmp/ccIfjRGV.s:3760   .text.Lcd_Init:00000000000008c8 .LBB886
     /tmp/ccIfjRGV.s:23414  .debug_loc:0000000000001af8 .LLST98
     /tmp/ccIfjRGV.s:3814   .text.Lcd_Init:00000000000008f6 .LVL181
     /tmp/ccIfjRGV.s:3834   .text.Lcd_Init:0000000000000914 .LBB900
     /tmp/ccIfjRGV.s:23423  .debug_loc:0000000000001b0e .LLST99
     /tmp/ccIfjRGV.s:3835   .text.Lcd_Init:0000000000000914 .LBB901
     /tmp/ccIfjRGV.s:23431  .debug_loc:0000000000001b22 .LLST100
     /tmp/ccIfjRGV.s:3889   .text.Lcd_Init:0000000000000942 .LVL183
     /tmp/ccIfjRGV.s:3909   .text.Lcd_Init:0000000000000960 .LBB915
     /tmp/ccIfjRGV.s:23440  .debug_loc:0000000000001b38 .LLST101
     /tmp/ccIfjRGV.s:3910   .text.Lcd_Init:0000000000000960 .LBB916
     /tmp/ccIfjRGV.s:23449  .debug_loc:0000000000001b4d .LLST102
     /tmp/ccIfjRGV.s:3964   .text.Lcd_Init:000000000000098e .LVL185
     /tmp/ccIfjRGV.s:3984   .text.Lcd_Init:00000000000009ac .LBB930
     /tmp/ccIfjRGV.s:23458  .debug_loc:0000000000001b62 .LLST103
     /tmp/ccIfjRGV.s:3985   .text.Lcd_Init:00000000000009ac .LBB931
     /tmp/ccIfjRGV.s:23467  .debug_loc:0000000000001b77 .LLST104
     /tmp/ccIfjRGV.s:4039   .text.Lcd_Init:00000000000009da .LVL187
     /tmp/ccIfjRGV.s:4059   .text.Lcd_Init:00000000000009f8 .LBB945
     /tmp/ccIfjRGV.s:23476  .debug_loc:0000000000001b8d .LLST105
     /tmp/ccIfjRGV.s:4060   .text.Lcd_Init:00000000000009f8 .LBB946
     /tmp/ccIfjRGV.s:23485  .debug_loc:0000000000001ba2 .LLST106
GAS LISTING /tmp/ccIfjRGV.s 			page 328


     /tmp/ccIfjRGV.s:4114   .text.Lcd_Init:0000000000000a26 .LVL189
     /tmp/ccIfjRGV.s:4134   .text.Lcd_Init:0000000000000a44 .LBB960
     /tmp/ccIfjRGV.s:23494  .debug_loc:0000000000001bb8 .LLST107
     /tmp/ccIfjRGV.s:4135   .text.Lcd_Init:0000000000000a44 .LBB961
     /tmp/ccIfjRGV.s:23503  .debug_loc:0000000000001bcd .LLST108
     /tmp/ccIfjRGV.s:4189   .text.Lcd_Init:0000000000000a72 .LVL191
     /tmp/ccIfjRGV.s:4209   .text.Lcd_Init:0000000000000a90 .LBB975
     /tmp/ccIfjRGV.s:23512  .debug_loc:0000000000001be2 .LLST109
     /tmp/ccIfjRGV.s:4210   .text.Lcd_Init:0000000000000a90 .LBB976
     /tmp/ccIfjRGV.s:23521  .debug_loc:0000000000001bf7 .LLST110
     /tmp/ccIfjRGV.s:4264   .text.Lcd_Init:0000000000000abe .LVL193
     /tmp/ccIfjRGV.s:4284   .text.Lcd_Init:0000000000000adc .LBB990
     /tmp/ccIfjRGV.s:23530  .debug_loc:0000000000001c0d .LLST111
     /tmp/ccIfjRGV.s:4285   .text.Lcd_Init:0000000000000adc .LBB991
     /tmp/ccIfjRGV.s:23539  .debug_loc:0000000000001c22 .LLST112
     /tmp/ccIfjRGV.s:4339   .text.Lcd_Init:0000000000000b0a .LVL195
     /tmp/ccIfjRGV.s:4359   .text.Lcd_Init:0000000000000b28 .LBB1005
     /tmp/ccIfjRGV.s:23548  .debug_loc:0000000000001c38 .LLST113
     /tmp/ccIfjRGV.s:4360   .text.Lcd_Init:0000000000000b28 .LBB1006
     /tmp/ccIfjRGV.s:23557  .debug_loc:0000000000001c4d .LLST114
     /tmp/ccIfjRGV.s:4414   .text.Lcd_Init:0000000000000b56 .LVL197
     /tmp/ccIfjRGV.s:4434   .text.Lcd_Init:0000000000000b74 .LBB1020
     /tmp/ccIfjRGV.s:23566  .debug_loc:0000000000001c62 .LLST115
     /tmp/ccIfjRGV.s:4435   .text.Lcd_Init:0000000000000b74 .LBB1021
     /tmp/ccIfjRGV.s:23574  .debug_loc:0000000000001c76 .LLST116
     /tmp/ccIfjRGV.s:4489   .text.Lcd_Init:0000000000000ba2 .LVL199
     /tmp/ccIfjRGV.s:4509   .text.Lcd_Init:0000000000000bc0 .LBB1035
     /tmp/ccIfjRGV.s:23583  .debug_loc:0000000000001c8c .LLST117
     /tmp/ccIfjRGV.s:4510   .text.Lcd_Init:0000000000000bc0 .LBB1036
     /tmp/ccIfjRGV.s:23592  .debug_loc:0000000000001ca1 .LLST118
     /tmp/ccIfjRGV.s:4564   .text.Lcd_Init:0000000000000bee .LVL201
     /tmp/ccIfjRGV.s:4584   .text.Lcd_Init:0000000000000c0c .LBB1050
     /tmp/ccIfjRGV.s:23601  .debug_loc:0000000000001cb6 .LLST119
     /tmp/ccIfjRGV.s:4585   .text.Lcd_Init:0000000000000c0c .LBB1051
     /tmp/ccIfjRGV.s:23609  .debug_loc:0000000000001cca .LLST120
     /tmp/ccIfjRGV.s:4639   .text.Lcd_Init:0000000000000c3a .LVL203
     /tmp/ccIfjRGV.s:4659   .text.Lcd_Init:0000000000000c58 .LBB1065
     /tmp/ccIfjRGV.s:23618  .debug_loc:0000000000001ce0 .LLST121
     /tmp/ccIfjRGV.s:4660   .text.Lcd_Init:0000000000000c58 .LBB1066
     /tmp/ccIfjRGV.s:23626  .debug_loc:0000000000001cf4 .LLST122
     /tmp/ccIfjRGV.s:4714   .text.Lcd_Init:0000000000000c86 .LVL205
     /tmp/ccIfjRGV.s:4734   .text.Lcd_Init:0000000000000ca4 .LBB1080
     /tmp/ccIfjRGV.s:23635  .debug_loc:0000000000001d0a .LLST123
     /tmp/ccIfjRGV.s:4735   .text.Lcd_Init:0000000000000ca4 .LBB1081
     /tmp/ccIfjRGV.s:23643  .debug_loc:0000000000001d1e .LLST124
     /tmp/ccIfjRGV.s:4789   .text.Lcd_Init:0000000000000cd2 .LVL207
     /tmp/ccIfjRGV.s:4809   .text.Lcd_Init:0000000000000cf0 .LBB1095
     /tmp/ccIfjRGV.s:23652  .debug_loc:0000000000001d34 .LLST125
     /tmp/ccIfjRGV.s:4810   .text.Lcd_Init:0000000000000cf0 .LBB1096
     /tmp/ccIfjRGV.s:23660  .debug_loc:0000000000001d48 .LLST126
     /tmp/ccIfjRGV.s:4864   .text.Lcd_Init:0000000000000d1e .LVL209
     /tmp/ccIfjRGV.s:4884   .text.Lcd_Init:0000000000000d3c .LBB1110
     /tmp/ccIfjRGV.s:23669  .debug_loc:0000000000001d5e .LLST127
     /tmp/ccIfjRGV.s:4885   .text.Lcd_Init:0000000000000d3c .LBB1111
     /tmp/ccIfjRGV.s:23677  .debug_loc:0000000000001d72 .LLST128
     /tmp/ccIfjRGV.s:4939   .text.Lcd_Init:0000000000000d6a .LVL211
     /tmp/ccIfjRGV.s:4959   .text.Lcd_Init:0000000000000d88 .LBB1125
GAS LISTING /tmp/ccIfjRGV.s 			page 329


     /tmp/ccIfjRGV.s:23686  .debug_loc:0000000000001d88 .LLST129
     /tmp/ccIfjRGV.s:4960   .text.Lcd_Init:0000000000000d88 .LBB1126
     /tmp/ccIfjRGV.s:23694  .debug_loc:0000000000001d9c .LLST130
     /tmp/ccIfjRGV.s:5014   .text.Lcd_Init:0000000000000db6 .LVL213
     /tmp/ccIfjRGV.s:5034   .text.Lcd_Init:0000000000000dd4 .LBB1140
     /tmp/ccIfjRGV.s:23703  .debug_loc:0000000000001db2 .LLST131
     /tmp/ccIfjRGV.s:5035   .text.Lcd_Init:0000000000000dd4 .LBB1141
     /tmp/ccIfjRGV.s:23711  .debug_loc:0000000000001dc6 .LLST132
     /tmp/ccIfjRGV.s:5089   .text.Lcd_Init:0000000000000e02 .LVL215
     /tmp/ccIfjRGV.s:5109   .text.Lcd_Init:0000000000000e20 .LBB1155
     /tmp/ccIfjRGV.s:23720  .debug_loc:0000000000001ddc .LLST133
     /tmp/ccIfjRGV.s:5110   .text.Lcd_Init:0000000000000e20 .LBB1156
     /tmp/ccIfjRGV.s:23728  .debug_loc:0000000000001df0 .LLST134
     /tmp/ccIfjRGV.s:5164   .text.Lcd_Init:0000000000000e4e .LVL217
     /tmp/ccIfjRGV.s:5184   .text.Lcd_Init:0000000000000e6c .LBB1170
     /tmp/ccIfjRGV.s:23737  .debug_loc:0000000000001e06 .LLST135
     /tmp/ccIfjRGV.s:5185   .text.Lcd_Init:0000000000000e6c .LBB1171
     /tmp/ccIfjRGV.s:23745  .debug_loc:0000000000001e1a .LLST136
     /tmp/ccIfjRGV.s:5239   .text.Lcd_Init:0000000000000e9a .LVL219
     /tmp/ccIfjRGV.s:5259   .text.Lcd_Init:0000000000000eb8 .LBB1185
     /tmp/ccIfjRGV.s:23754  .debug_loc:0000000000001e30 .LLST137
     /tmp/ccIfjRGV.s:5260   .text.Lcd_Init:0000000000000eb8 .LBB1186
     /tmp/ccIfjRGV.s:23762  .debug_loc:0000000000001e44 .LLST138
     /tmp/ccIfjRGV.s:5314   .text.Lcd_Init:0000000000000ee6 .LVL221
     /tmp/ccIfjRGV.s:5334   .text.Lcd_Init:0000000000000f04 .LBB1200
     /tmp/ccIfjRGV.s:23771  .debug_loc:0000000000001e5a .LLST139
     /tmp/ccIfjRGV.s:5335   .text.Lcd_Init:0000000000000f04 .LBB1201
     /tmp/ccIfjRGV.s:23780  .debug_loc:0000000000001e6f .LLST140
     /tmp/ccIfjRGV.s:5389   .text.Lcd_Init:0000000000000f32 .LVL223
     /tmp/ccIfjRGV.s:5409   .text.Lcd_Init:0000000000000f50 .LBB1215
     /tmp/ccIfjRGV.s:23789  .debug_loc:0000000000001e85 .LLST141
     /tmp/ccIfjRGV.s:5410   .text.Lcd_Init:0000000000000f50 .LBB1216
     /tmp/ccIfjRGV.s:23798  .debug_loc:0000000000001e9a .LLST142
     /tmp/ccIfjRGV.s:5464   .text.Lcd_Init:0000000000000f7e .LVL225
     /tmp/ccIfjRGV.s:5484   .text.Lcd_Init:0000000000000f9c .LBB1230
     /tmp/ccIfjRGV.s:23807  .debug_loc:0000000000001eb0 .LLST143
     /tmp/ccIfjRGV.s:5485   .text.Lcd_Init:0000000000000f9c .LBB1231
     /tmp/ccIfjRGV.s:23815  .debug_loc:0000000000001ec4 .LLST144
     /tmp/ccIfjRGV.s:5539   .text.Lcd_Init:0000000000000fca .LVL227
     /tmp/ccIfjRGV.s:5559   .text.Lcd_Init:0000000000000fe8 .LBB1245
     /tmp/ccIfjRGV.s:23824  .debug_loc:0000000000001eda .LLST145
     /tmp/ccIfjRGV.s:5560   .text.Lcd_Init:0000000000000fe8 .LBB1246
     /tmp/ccIfjRGV.s:23832  .debug_loc:0000000000001eee .LLST146
     /tmp/ccIfjRGV.s:5614   .text.Lcd_Init:0000000000001016 .LVL229
     /tmp/ccIfjRGV.s:5634   .text.Lcd_Init:0000000000001034 .LBB1260
     /tmp/ccIfjRGV.s:23841  .debug_loc:0000000000001f04 .LLST147
     /tmp/ccIfjRGV.s:5635   .text.Lcd_Init:0000000000001034 .LBB1261
     /tmp/ccIfjRGV.s:23849  .debug_loc:0000000000001f18 .LLST148
     /tmp/ccIfjRGV.s:5689   .text.Lcd_Init:0000000000001062 .LVL231
     /tmp/ccIfjRGV.s:5709   .text.Lcd_Init:0000000000001080 .LBB1275
     /tmp/ccIfjRGV.s:23858  .debug_loc:0000000000001f2e .LLST149
     /tmp/ccIfjRGV.s:5710   .text.Lcd_Init:0000000000001080 .LBB1276
     /tmp/ccIfjRGV.s:23866  .debug_loc:0000000000001f42 .LLST150
     /tmp/ccIfjRGV.s:5764   .text.Lcd_Init:00000000000010ae .LVL233
     /tmp/ccIfjRGV.s:5784   .text.Lcd_Init:00000000000010cc .LBB1290
     /tmp/ccIfjRGV.s:23875  .debug_loc:0000000000001f58 .LLST151
     /tmp/ccIfjRGV.s:5785   .text.Lcd_Init:00000000000010cc .LBB1291
GAS LISTING /tmp/ccIfjRGV.s 			page 330


     /tmp/ccIfjRGV.s:23884  .debug_loc:0000000000001f6d .LLST152
     /tmp/ccIfjRGV.s:5839   .text.Lcd_Init:00000000000010fa .LVL235
     /tmp/ccIfjRGV.s:5859   .text.Lcd_Init:0000000000001118 .LBB1305
     /tmp/ccIfjRGV.s:23893  .debug_loc:0000000000001f82 .LLST153
     /tmp/ccIfjRGV.s:5860   .text.Lcd_Init:0000000000001118 .LBB1306
     /tmp/ccIfjRGV.s:23901  .debug_loc:0000000000001f96 .LLST154
     /tmp/ccIfjRGV.s:5914   .text.Lcd_Init:0000000000001146 .LVL237
     /tmp/ccIfjRGV.s:5934   .text.Lcd_Init:0000000000001164 .LBB1320
     /tmp/ccIfjRGV.s:23910  .debug_loc:0000000000001fac .LLST155
     /tmp/ccIfjRGV.s:5935   .text.Lcd_Init:0000000000001164 .LBB1321
     /tmp/ccIfjRGV.s:23918  .debug_loc:0000000000001fc0 .LLST156
     /tmp/ccIfjRGV.s:5989   .text.Lcd_Init:0000000000001192 .LVL239
     /tmp/ccIfjRGV.s:6009   .text.Lcd_Init:00000000000011b0 .LBB1335
     /tmp/ccIfjRGV.s:23927  .debug_loc:0000000000001fd6 .LLST157
     /tmp/ccIfjRGV.s:6010   .text.Lcd_Init:00000000000011b0 .LBB1336
     /tmp/ccIfjRGV.s:23935  .debug_loc:0000000000001fea .LLST158
     /tmp/ccIfjRGV.s:6064   .text.Lcd_Init:00000000000011de .LVL241
     /tmp/ccIfjRGV.s:6084   .text.Lcd_Init:00000000000011fc .LBB1350
     /tmp/ccIfjRGV.s:23944  .debug_loc:0000000000002000 .LLST159
     /tmp/ccIfjRGV.s:6085   .text.Lcd_Init:00000000000011fc .LBB1351
     /tmp/ccIfjRGV.s:23952  .debug_loc:0000000000002014 .LLST160
     /tmp/ccIfjRGV.s:6139   .text.Lcd_Init:000000000000122a .LVL243
     /tmp/ccIfjRGV.s:6159   .text.Lcd_Init:0000000000001248 .LBB1365
     /tmp/ccIfjRGV.s:23961  .debug_loc:000000000000202a .LLST161
     /tmp/ccIfjRGV.s:6160   .text.Lcd_Init:0000000000001248 .LBB1366
     /tmp/ccIfjRGV.s:23969  .debug_loc:000000000000203e .LLST162
     /tmp/ccIfjRGV.s:6214   .text.Lcd_Init:0000000000001276 .LVL245
     /tmp/ccIfjRGV.s:6234   .text.Lcd_Init:0000000000001294 .LBB1380
     /tmp/ccIfjRGV.s:23978  .debug_loc:0000000000002054 .LLST163
     /tmp/ccIfjRGV.s:6235   .text.Lcd_Init:0000000000001294 .LBB1381
     /tmp/ccIfjRGV.s:23986  .debug_loc:0000000000002068 .LLST164
     /tmp/ccIfjRGV.s:6289   .text.Lcd_Init:00000000000012c2 .LVL247
     /tmp/ccIfjRGV.s:6309   .text.Lcd_Init:00000000000012e0 .LBB1395
     /tmp/ccIfjRGV.s:23995  .debug_loc:000000000000207e .LLST165
     /tmp/ccIfjRGV.s:6310   .text.Lcd_Init:00000000000012e0 .LBB1396
     /tmp/ccIfjRGV.s:24003  .debug_loc:0000000000002092 .LLST166
     /tmp/ccIfjRGV.s:6364   .text.Lcd_Init:000000000000130e .LVL249
     /tmp/ccIfjRGV.s:6384   .text.Lcd_Init:000000000000132c .LBB1410
     /tmp/ccIfjRGV.s:24012  .debug_loc:00000000000020a8 .LLST167
     /tmp/ccIfjRGV.s:6385   .text.Lcd_Init:000000000000132c .LBB1411
     /tmp/ccIfjRGV.s:24020  .debug_loc:00000000000020bc .LLST168
     /tmp/ccIfjRGV.s:6439   .text.Lcd_Init:000000000000135a .LVL251
     /tmp/ccIfjRGV.s:6459   .text.Lcd_Init:0000000000001378 .LBB1425
     /tmp/ccIfjRGV.s:24029  .debug_loc:00000000000020d2 .LLST169
     /tmp/ccIfjRGV.s:6460   .text.Lcd_Init:0000000000001378 .LBB1426
     /tmp/ccIfjRGV.s:24037  .debug_loc:00000000000020e6 .LLST170
     /tmp/ccIfjRGV.s:6514   .text.Lcd_Init:00000000000013a6 .LVL253
     /tmp/ccIfjRGV.s:6534   .text.Lcd_Init:00000000000013c4 .LBB1440
     /tmp/ccIfjRGV.s:24046  .debug_loc:00000000000020fc .LLST171
     /tmp/ccIfjRGV.s:6535   .text.Lcd_Init:00000000000013c4 .LBB1441
     /tmp/ccIfjRGV.s:24054  .debug_loc:0000000000002110 .LLST172
     /tmp/ccIfjRGV.s:6589   .text.Lcd_Init:00000000000013f2 .LVL255
     /tmp/ccIfjRGV.s:6609   .text.Lcd_Init:0000000000001410 .LBB1455
     /tmp/ccIfjRGV.s:24063  .debug_loc:0000000000002126 .LLST173
     /tmp/ccIfjRGV.s:6610   .text.Lcd_Init:0000000000001410 .LBB1456
     /tmp/ccIfjRGV.s:24072  .debug_loc:000000000000213b .LLST174
     /tmp/ccIfjRGV.s:6664   .text.Lcd_Init:000000000000143e .LVL257
GAS LISTING /tmp/ccIfjRGV.s 			page 331


     /tmp/ccIfjRGV.s:6684   .text.Lcd_Init:000000000000145c .LBB1470
     /tmp/ccIfjRGV.s:24081  .debug_loc:0000000000002151 .LLST175
     /tmp/ccIfjRGV.s:6685   .text.Lcd_Init:000000000000145c .LBB1471
     /tmp/ccIfjRGV.s:24090  .debug_loc:0000000000002166 .LLST176
     /tmp/ccIfjRGV.s:6739   .text.Lcd_Init:000000000000148a .LVL259
     /tmp/ccIfjRGV.s:6759   .text.Lcd_Init:00000000000014a8 .LBB1485
     /tmp/ccIfjRGV.s:24099  .debug_loc:000000000000217c .LLST177
     /tmp/ccIfjRGV.s:6760   .text.Lcd_Init:00000000000014a8 .LBB1486
     /tmp/ccIfjRGV.s:24107  .debug_loc:0000000000002190 .LLST178
     /tmp/ccIfjRGV.s:6814   .text.Lcd_Init:00000000000014d6 .LVL261
     /tmp/ccIfjRGV.s:6834   .text.Lcd_Init:00000000000014f4 .LBB1500
     /tmp/ccIfjRGV.s:24116  .debug_loc:00000000000021a6 .LLST179
     /tmp/ccIfjRGV.s:6835   .text.Lcd_Init:00000000000014f4 .LBB1501
     /tmp/ccIfjRGV.s:24124  .debug_loc:00000000000021ba .LLST180
     /tmp/ccIfjRGV.s:6889   .text.Lcd_Init:0000000000001522 .LVL263
     /tmp/ccIfjRGV.s:6909   .text.Lcd_Init:0000000000001540 .LBB1515
     /tmp/ccIfjRGV.s:24133  .debug_loc:00000000000021d0 .LLST181
     /tmp/ccIfjRGV.s:6910   .text.Lcd_Init:0000000000001540 .LBB1516
     /tmp/ccIfjRGV.s:24141  .debug_loc:00000000000021e4 .LLST182
     /tmp/ccIfjRGV.s:6964   .text.Lcd_Init:000000000000156e .LVL265
     /tmp/ccIfjRGV.s:6984   .text.Lcd_Init:000000000000158c .LBB1530
     /tmp/ccIfjRGV.s:24150  .debug_loc:00000000000021fa .LLST183
     /tmp/ccIfjRGV.s:6985   .text.Lcd_Init:000000000000158c .LBB1531
     /tmp/ccIfjRGV.s:24158  .debug_loc:000000000000220e .LLST184
     /tmp/ccIfjRGV.s:7039   .text.Lcd_Init:00000000000015ba .LVL267
     /tmp/ccIfjRGV.s:7059   .text.Lcd_Init:00000000000015d8 .LBB1545
     /tmp/ccIfjRGV.s:24167  .debug_loc:0000000000002224 .LLST185
     /tmp/ccIfjRGV.s:7060   .text.Lcd_Init:00000000000015d8 .LBB1546
     /tmp/ccIfjRGV.s:7114   .text.Lcd_Init:0000000000001606 .LVL269
     /tmp/ccIfjRGV.s:7134   .text.Lcd_Init:0000000000001624 .LBB1560
     /tmp/ccIfjRGV.s:24176  .debug_loc:0000000000002239 .LLST187
     /tmp/ccIfjRGV.s:7135   .text.Lcd_Init:0000000000001624 .LBB1561
     /tmp/ccIfjRGV.s:24184  .debug_loc:000000000000224d .LLST188
     /tmp/ccIfjRGV.s:7189   .text.Lcd_Init:0000000000001652 .LVL271
     /tmp/ccIfjRGV.s:7209   .text.Lcd_Init:0000000000001670 .LBB1575
     /tmp/ccIfjRGV.s:24193  .debug_loc:0000000000002263 .LLST189
     /tmp/ccIfjRGV.s:7210   .text.Lcd_Init:0000000000001670 .LBB1576
     /tmp/ccIfjRGV.s:7264   .text.Lcd_Init:000000000000169e .LVL273
     /tmp/ccIfjRGV.s:7284   .text.Lcd_Init:00000000000016bc .LBB1590
     /tmp/ccIfjRGV.s:24202  .debug_loc:0000000000002278 .LLST191
     /tmp/ccIfjRGV.s:7285   .text.Lcd_Init:00000000000016bc .LBB1591
     /tmp/ccIfjRGV.s:24211  .debug_loc:000000000000228d .LLST192
     /tmp/ccIfjRGV.s:7339   .text.Lcd_Init:00000000000016ea .LVL275
     /tmp/ccIfjRGV.s:7359   .text.Lcd_Init:0000000000001708 .LBB1605
     /tmp/ccIfjRGV.s:24220  .debug_loc:00000000000022a3 .LLST193
     /tmp/ccIfjRGV.s:7360   .text.Lcd_Init:0000000000001708 .LBB1606
     /tmp/ccIfjRGV.s:7414   .text.Lcd_Init:0000000000001736 .LVL277
     /tmp/ccIfjRGV.s:7469   .text.Lcd_Init:000000000000176e .LBB1619
     /tmp/ccIfjRGV.s:7503   .text.Lcd_Init:00000000000017a2 .LBE1619
     /tmp/ccIfjRGV.s:7470   .text.Lcd_Init:000000000000176e .LBB1620
     /tmp/ccIfjRGV.s:7502   .text.Lcd_Init:00000000000017a2 .LBE1620
     /tmp/ccIfjRGV.s:7474   .text.Lcd_Init:0000000000001776 .LVL279
     /tmp/ccIfjRGV.s:1756   .text.Lcd_Init:0000000000000030 .LVL115
     /tmp/ccIfjRGV.s:1760   .text.Lcd_Init:000000000000003c .LVL116
     /tmp/ccIfjRGV.s:1764   .text.Lcd_Init:0000000000000048 .LVL117
     /tmp/ccIfjRGV.s:1768   .text.Lcd_Init:0000000000000054 .LVL118
     /tmp/ccIfjRGV.s:1776   .text.Lcd_Init:000000000000006a .LVL119
GAS LISTING /tmp/ccIfjRGV.s 			page 332


     /tmp/ccIfjRGV.s:1783   .text.Lcd_Init:000000000000007c .LVL120
     /tmp/ccIfjRGV.s:1786   .text.Lcd_Init:0000000000000084 .LVL121
     /tmp/ccIfjRGV.s:1799   .text.Lcd_Init:000000000000009a .LVL122
     /tmp/ccIfjRGV.s:1825   .text.Lcd_Init:00000000000000c6 .LVL124
     /tmp/ccIfjRGV.s:1895   .text.Lcd_Init:0000000000000134 .LVL128
     /tmp/ccIfjRGV.s:1963   .text.Lcd_Init:000000000000019a .LVL132
     /tmp/ccIfjRGV.s:26467  .debug_str:0000000000000421 .LASF224
     /tmp/ccIfjRGV.s:26367  .debug_str:00000000000001ec .LASF225
     /tmp/ccIfjRGV.s:26739  .debug_str:0000000000000974 .LASF226
     /tmp/ccIfjRGV.s:1575   .text.spi_config:0000000000000000 .LFB11
     /tmp/ccIfjRGV.s:1653   .text.spi_config:000000000000006c .LFE11
     /tmp/ccIfjRGV.s:24229  .debug_loc:00000000000022b8 .LLST45
     /tmp/ccIfjRGV.s:26669  .debug_str:000000000000080e .LASF227
     /tmp/ccIfjRGV.s:1594   .text.spi_config:0000000000000014 .LVL105
     /tmp/ccIfjRGV.s:1598   .text.spi_config:000000000000001e .LVL106
     /tmp/ccIfjRGV.s:1633   .text.spi_config:000000000000004a .LVL107
     /tmp/ccIfjRGV.s:1638   .text.spi_config:0000000000000058 .LVL108
     /tmp/ccIfjRGV.s:1642   .text.spi_config:0000000000000064 .LVL109
     /tmp/ccIfjRGV.s:26489  .debug_str:0000000000000491 .LASF228
     /tmp/ccIfjRGV.s:26527  .debug_str:0000000000000568 .LASF229
     /tmp/ccIfjRGV.s:26575  .debug_str:0000000000000648 .LASF230
     /tmp/ccIfjRGV.s:698    .text.LCD_WR_DATA:0000000000000000 .LFB8
     /tmp/ccIfjRGV.s:905    .text.LCD_WR_DATA:00000000000000da .LFE8
     /tmp/ccIfjRGV.s:24247  .debug_loc:00000000000022e4 .LLST13
     /tmp/ccIfjRGV.s:24265  .debug_loc:0000000000002310 .LLST14
     /tmp/ccIfjRGV.s:709    .text.LCD_WR_DATA:0000000000000004 .LBB406
     /tmp/ccIfjRGV.s:24283  .debug_loc:000000000000233c .LLST15
     /tmp/ccIfjRGV.s:771    .text.LCD_WR_DATA:000000000000004c .LVL45
     /tmp/ccIfjRGV.s:790    .text.LCD_WR_DATA:000000000000006a .LBB417
     /tmp/ccIfjRGV.s:24290  .debug_loc:000000000000234f .LLST16
     /tmp/ccIfjRGV.s:855    .text.LCD_WR_DATA:00000000000000a6 .LVL49
     /tmp/ccIfjRGV.s:26631  .debug_str:000000000000075a .LASF231
     /tmp/ccIfjRGV.s:26735  .debug_str:000000000000095d .LASF232
     /tmp/ccIfjRGV.s:482    .text.LCD_Writ_Bus:0000000000000000 .LFB6
     /tmp/ccIfjRGV.s:571    .text.LCD_Writ_Bus:0000000000000078 .LFE6
     /tmp/ccIfjRGV.s:24297  .debug_loc:0000000000002362 .LLST8
     /tmp/ccIfjRGV.s:24315  .debug_loc:000000000000238e .LLST9
     /tmp/ccIfjRGV.s:513    .text.LCD_Writ_Bus:0000000000000022 .LVL31
     /tmp/ccIfjRGV.s:521    .text.LCD_Writ_Bus:000000000000002e .LVL32
     /tmp/ccIfjRGV.s:531    .text.LCD_Writ_Bus:0000000000000042 .LVL33
     /tmp/ccIfjRGV.s:541    .text.LCD_Writ_Bus:0000000000000052 .LVL34
     /tmp/ccIfjRGV.s:547    .text.LCD_Writ_Bus:0000000000000060 .LVL35
     /tmp/ccIfjRGV.s:569    .text.LCD_Writ_Bus:0000000000000078 .LVL36
     /tmp/ccIfjRGV.s:26479  .debug_str:0000000000000458 .LASF233
     /tmp/ccIfjRGV.s:26349  .debug_str:0000000000000115 .LASF234
     /tmp/ccIfjRGV.s:26373  .debug_str:0000000000000256 .LASF235
     /tmp/ccIfjRGV.s:26529  .debug_str:0000000000000573 .LASF236
     /tmp/ccIfjRGV.s:19     .text.lcd_delay_1ms:0000000000000000 .LFB2
     /tmp/ccIfjRGV.s:161    .text.lcd_delay_1ms:00000000000000ce .LFE2
     /tmp/ccIfjRGV.s:24329  .debug_loc:00000000000023af .LLST0
     /tmp/ccIfjRGV.s:26377  .debug_str:0000000000000273 .LASF237
     /tmp/ccIfjRGV.s:24347  .debug_loc:00000000000023db .LLST1
     /tmp/ccIfjRGV.s:26459  .debug_str:00000000000003fe .LASF238
     /tmp/ccIfjRGV.s:24365  .debug_loc:0000000000002407 .LLST2
     /tmp/ccIfjRGV.s:26541  .debug_str:00000000000005b7 .LASF239
     /tmp/ccIfjRGV.s:24377  .debug_loc:000000000000241f .LLST3
     /tmp/ccIfjRGV.s:56     .text.lcd_delay_1ms:0000000000000022 .LVL1
GAS LISTING /tmp/ccIfjRGV.s 			page 333


     /tmp/ccIfjRGV.s:65     .text.lcd_delay_1ms:000000000000002e .LVL3
     /tmp/ccIfjRGV.s:84     .text.lcd_delay_1ms:0000000000000052 .LVL6
     /tmp/ccIfjRGV.s:168    .text.LCD_WR_Queue:0000000000000000 .LFB4
     /tmp/ccIfjRGV.s:324    .text.LCD_WR_Queue:00000000000000cc .LFE4
     /tmp/ccIfjRGV.s:24389  .debug_loc:0000000000002437 .LLST4
     /tmp/ccIfjRGV.s:216    .text.LCD_WR_Queue:000000000000003c .LBB390
     /tmp/ccIfjRGV.s:222    .text.LCD_WR_Queue:000000000000004a .LVL19
     /tmp/ccIfjRGV.s:240    .text.LCD_WR_Queue:0000000000000070 .LVL20
     /tmp/ccIfjRGV.s:258    .text.LCD_WR_Queue:0000000000000090 .LVL21
     /tmp/ccIfjRGV.s:319    .text.LCD_WR_Queue:00000000000000ca .LVL23
     /tmp/ccIfjRGV.s:198    .text.LCD_WR_Queue:0000000000000030 .LVL18
     /tmp/ccIfjRGV.s:311    .text.LCD_WR_Queue:00000000000000c2 .LVL22
     /tmp/ccIfjRGV.s:331    .text.LCD_Wait_On_Queue:0000000000000000 .LFB3
     /tmp/ccIfjRGV.s:377    .text.LCD_Wait_On_Queue:000000000000003a .LFE3
     /tmp/ccIfjRGV.s:24432  .debug_loc:000000000000249f .LLST5
     /tmp/ccIfjRGV.s:359    .text.LCD_Wait_On_Queue:0000000000000028 .LVL24
     /tmp/ccIfjRGV.s:384    .text.LCD_Write_Bus:0000000000000000 .LFB5
     /tmp/ccIfjRGV.s:475    .text.LCD_Write_Bus:000000000000007a .LFE5
     /tmp/ccIfjRGV.s:24450  .debug_loc:00000000000024cb .LLST6
     /tmp/ccIfjRGV.s:24468  .debug_loc:00000000000024f7 .LLST7
     /tmp/ccIfjRGV.s:432    .text.LCD_Write_Bus:0000000000000042 .LVL27
     /tmp/ccIfjRGV.s:578    .text.LCD_WR_DATA8:0000000000000000 .LFB7
     /tmp/ccIfjRGV.s:691    .text.LCD_WR_DATA8:000000000000007c .LFE7
     /tmp/ccIfjRGV.s:24484  .debug_loc:0000000000002521 .LLST10
     /tmp/ccIfjRGV.s:24502  .debug_loc:000000000000254d .LLST11
     /tmp/ccIfjRGV.s:589    .text.LCD_WR_DATA8:0000000000000004 .LBB396
     /tmp/ccIfjRGV.s:24516  .debug_loc:000000000000256e .LLST12
     /tmp/ccIfjRGV.s:642    .text.LCD_WR_DATA8:0000000000000044 .LVL40
     /tmp/ccIfjRGV.s:912    .text.LCD_WR_REG:0000000000000000 .LFB9
     /tmp/ccIfjRGV.s:1025   .text.LCD_WR_REG:000000000000007a .LFE9
     /tmp/ccIfjRGV.s:24523  .debug_loc:0000000000002581 .LLST17
     /tmp/ccIfjRGV.s:24541  .debug_loc:00000000000025ad .LLST18
     /tmp/ccIfjRGV.s:923    .text.LCD_WR_REG:0000000000000004 .LBB432
     /tmp/ccIfjRGV.s:24555  .debug_loc:00000000000025ce .LLST19
     /tmp/ccIfjRGV.s:976    .text.LCD_WR_REG:0000000000000042 .LVL54
     /tmp/ccIfjRGV.s:1032   .text.LCD_Address_Set:0000000000000000 .LFB10
     /tmp/ccIfjRGV.s:1353   .text.LCD_Address_Set:0000000000000182 .LFE10
     /tmp/ccIfjRGV.s:24566  .debug_loc:00000000000025ec .LLST20
     /tmp/ccIfjRGV.s:24584  .debug_loc:0000000000002618 .LLST21
     /tmp/ccIfjRGV.s:24602  .debug_loc:0000000000002644 .LLST22
     /tmp/ccIfjRGV.s:24620  .debug_loc:0000000000002670 .LLST23
     /tmp/ccIfjRGV.s:24638  .debug_loc:000000000000269c .LLST24
     /tmp/ccIfjRGV.s:1041   .text.LCD_Address_Set:0000000000000004 .LBB462
     /tmp/ccIfjRGV.s:24656  .debug_loc:00000000000026c8 .LLST25
     /tmp/ccIfjRGV.s:1042   .text.LCD_Address_Set:0000000000000004 .LBB463
     /tmp/ccIfjRGV.s:1123   .text.LCD_Address_Set:0000000000000058 .LVL59
     /tmp/ccIfjRGV.s:1185   .text.LCD_Address_Set:00000000000000b0 .LBB483
     /tmp/ccIfjRGV.s:24665  .debug_loc:00000000000026dd .LLST27
     /tmp/ccIfjRGV.s:1186   .text.LCD_Address_Set:00000000000000b0 .LBB484
     /tmp/ccIfjRGV.s:1206   .text.LCD_Address_Set:00000000000000d8 .LVL63
     /tmp/ccIfjRGV.s:1265   .text.LCD_Address_Set:000000000000011c .LBB492
     /tmp/ccIfjRGV.s:24674  .debug_loc:00000000000026f2 .LLST29
     /tmp/ccIfjRGV.s:24681  .debug_loc:0000000000002705 .LLST30
     /tmp/ccIfjRGV.s:24688  .debug_loc:0000000000002718 .LLST31
     /tmp/ccIfjRGV.s:24695  .debug_loc:000000000000272b .LLST32
     /tmp/ccIfjRGV.s:1266   .text.LCD_Address_Set:000000000000011c .LBB493
     /tmp/ccIfjRGV.s:1267   .text.LCD_Address_Set:000000000000011c .LBB494
GAS LISTING /tmp/ccIfjRGV.s 			page 334


     /tmp/ccIfjRGV.s:1286   .text.LCD_Address_Set:0000000000000144 .LVL67
     /tmp/ccIfjRGV.s:1175   .text.LCD_Address_Set:00000000000000a2 .LVL61
     /tmp/ccIfjRGV.s:1182   .text.LCD_Address_Set:00000000000000b0 .LVL62
     /tmp/ccIfjRGV.s:1254   .text.LCD_Address_Set:000000000000010e .LVL65
     /tmp/ccIfjRGV.s:1261   .text.LCD_Address_Set:000000000000011c .LVL66
     /tmp/ccIfjRGV.s:1359   .text.LCD_ShowChar.part.3:0000000000000000 .LFB32
     /tmp/ccIfjRGV.s:1568   .text.LCD_ShowChar.part.3:00000000000000ea .LFE32
     /tmp/ccIfjRGV.s:24702  .debug_loc:000000000000273e .LLST33
     /tmp/ccIfjRGV.s:24725  .debug_loc:0000000000002776 .LLST34
     /tmp/ccIfjRGV.s:24744  .debug_loc:00000000000027aa .LLST35
     /tmp/ccIfjRGV.s:24769  .debug_loc:00000000000027eb .LLST36
     /tmp/ccIfjRGV.s:24783  .debug_loc:000000000000280c .LLST37
     /tmp/ccIfjRGV.s:24797  .debug_loc:000000000000282d .LLST38
     /tmp/ccIfjRGV.s:24827  .debug_loc:000000000000287a .LLST39
     /tmp/ccIfjRGV.s:24838  .debug_loc:0000000000002898 .LLST40
     /tmp/ccIfjRGV.s:24861  .debug_loc:00000000000028c2 .LLST41
     /tmp/ccIfjRGV.s:1537   .text.LCD_ShowChar.part.3:00000000000000c0 .LBB500
     /tmp/ccIfjRGV.s:1553   .text.LCD_ShowChar.part.3:00000000000000dc .LBE500
     /tmp/ccIfjRGV.s:24900  .debug_loc:0000000000002911 .LLST42
     /tmp/ccIfjRGV.s:24907  .debug_loc:0000000000002924 .LLST43
     /tmp/ccIfjRGV.s:24914  .debug_loc:0000000000002937 .LLST44
     /tmp/ccIfjRGV.s:1545   .text.LCD_ShowChar.part.3:00000000000000d0 .LVL99
     /tmp/ccIfjRGV.s:1551   .text.LCD_ShowChar.part.3:00000000000000dc .LVL101
     /tmp/ccIfjRGV.s:1411   .text.LCD_ShowChar.part.3:0000000000000038 .LVL77
     /tmp/ccIfjRGV.s:1451   .text.LCD_ShowChar.part.3:000000000000006e .LVL84
     /tmp/ccIfjRGV.s:1660   .text.Lcd_SetType:0000000000000000 .LFB12
     /tmp/ccIfjRGV.s:1702   .text.Lcd_SetType:000000000000002a .LFE12
     /tmp/ccIfjRGV.s:1684   .text.Lcd_SetType:0000000000000018 .LBB504
     /tmp/ccIfjRGV.s:1698   .text.Lcd_SetType:0000000000000028 .LBE504
     /tmp/ccIfjRGV.s:24927  .debug_loc:0000000000002957 .LLST46
     /tmp/ccIfjRGV.s:7767   .text.LCD_DrawPoint:0000000000000000 .LFB16
     /tmp/ccIfjRGV.s:7806   .text.LCD_DrawPoint:0000000000000024 .LFE16
     /tmp/ccIfjRGV.s:24935  .debug_loc:000000000000296b .LLST209
     /tmp/ccIfjRGV.s:24953  .debug_loc:0000000000002997 .LLST210
     /tmp/ccIfjRGV.s:24967  .debug_loc:00000000000029b8 .LLST211
     /tmp/ccIfjRGV.s:24981  .debug_loc:00000000000029d9 .LLST212
     /tmp/ccIfjRGV.s:7790   .text.LCD_DrawPoint:0000000000000014 .LVL313
     /tmp/ccIfjRGV.s:7804   .text.LCD_DrawPoint:0000000000000024 .LVL315
     /tmp/ccIfjRGV.s:8508   .text.LCD_ShowChar:0000000000000000 .LFB22
     /tmp/ccIfjRGV.s:8529   .text.LCD_ShowChar:000000000000001a .LFE22
     /tmp/ccIfjRGV.s:25003  .debug_loc:0000000000002a10 .LLST280
     /tmp/ccIfjRGV.s:25017  .debug_loc:0000000000002a31 .LLST281
     /tmp/ccIfjRGV.s:25031  .debug_loc:0000000000002a52 .LLST282
     /tmp/ccIfjRGV.s:25045  .debug_loc:0000000000002a73 .LLST283
     /tmp/ccIfjRGV.s:25059  .debug_loc:0000000000002a94 .LLST284
     /tmp/ccIfjRGV.s:25073  .debug_loc:0000000000002ab5 .LLST285
     /tmp/ccIfjRGV.s:8527   .text.LCD_ShowChar:000000000000001a .LVL413
     /tmp/ccIfjRGV.s:8846   .text.mypow:0000000000000000 .LFB25
     /tmp/ccIfjRGV.s:8880   .text.mypow:0000000000000022 .LFE25
     /tmp/ccIfjRGV.s:25087  .debug_loc:0000000000002ad6 .LLST303
     /tmp/ccIfjRGV.s:25101  .debug_loc:0000000000002af7 .LLST304
     /tmp/ccIfjRGV.s:25116  .debug_loc:0000000000002b20 .LLST305
     /tmp/ccIfjRGV.s:26791  .debug_str:0000000000000a6c .LASF240
     /tmp/ccIfjRGV.s:26701  .debug_str:00000000000008cd .LASF241
     /tmp/ccIfjRGV.s:26491  .debug_str:00000000000004a1 .LASF242
     /tmp/ccIfjRGV.s:26675  .debug_str:0000000000000836 .LASF243
     /tmp/ccIfjRGV.s:26775  .debug_str:0000000000000a0f .LASF244
GAS LISTING /tmp/ccIfjRGV.s 			page 335


     /tmp/ccIfjRGV.s:26423  .debug_str:0000000000000357 .LASF245
     /tmp/ccIfjRGV.s:26305  .debug_str:0000000000000038 .LASF246
     /tmp/ccIfjRGV.s:26795  .debug_str:0000000000000a89 .LASF247
     /tmp/ccIfjRGV.s:26647  .debug_str:000000000000079a .LASF248
     /tmp/ccIfjRGV.s:26689  .debug_str:0000000000000888 .LASF249
     /tmp/ccIfjRGV.s:26587  .debug_str:0000000000000687 .LASF250
     /tmp/ccIfjRGV.s:26511  .debug_str:0000000000000518 .LASF251
     /tmp/ccIfjRGV.s:9385   .text.LCD_ShowPicture:0000000000000002 .LCFI60
     /tmp/ccIfjRGV.s:9434   .text.LCD_ShowPicture:0000000000000044 .LCFI61
     /tmp/ccIfjRGV.s:9380   .text.LCD_ShowPicture:0000000000000000 .LVL497
     /tmp/ccIfjRGV.s:9415   .text.LCD_ShowPicture:000000000000002a .LVL500
     /tmp/ccIfjRGV.s:9420   .text.LCD_ShowPicture:0000000000000030 .LVL501
     /tmp/ccIfjRGV.s:9408   .text.LCD_ShowPicture:000000000000001c .LVL498
     /tmp/ccIfjRGV.s:9124   .text.LCD_ShowNum1:0000000000000002 .LCFI57
     /tmp/ccIfjRGV.s:9313   .text.LCD_ShowNum1:00000000000000ce .LCFI58
     /tmp/ccIfjRGV.s:9318   .text.LCD_ShowNum1:00000000000000d0 .LCFI59
     /tmp/ccIfjRGV.s:9118   .text.LCD_ShowNum1:0000000000000000 .LVL467
     /tmp/ccIfjRGV.s:9141   .text.LCD_ShowNum1:0000000000000014 .LVL469
     /tmp/ccIfjRGV.s:9302   .text.LCD_ShowNum1:00000000000000c4 .LVL487
     /tmp/ccIfjRGV.s:9316   .text.LCD_ShowNum1:00000000000000d0 .LVL489
     /tmp/ccIfjRGV.s:9134   .text.LCD_ShowNum1:000000000000000e .LVL468
     /tmp/ccIfjRGV.s:9307   .text.LCD_ShowNum1:00000000000000c8 .LVL488
     /tmp/ccIfjRGV.s:9168   .text.LCD_ShowNum1:0000000000000034 .LVL470
     /tmp/ccIfjRGV.s:9171   .text.LCD_ShowNum1:000000000000003c .LVL471
     /tmp/ccIfjRGV.s:9299   .text.LCD_ShowNum1:00000000000000c2 .LVL486
     /tmp/ccIfjRGV.s:9351   .text.LCD_ShowNum1:00000000000000f4 .LVL493
     /tmp/ccIfjRGV.s:9358   .text.LCD_ShowNum1:00000000000000fc .LVL495
     /tmp/ccIfjRGV.s:9294   .text.LCD_ShowNum1:00000000000000be .LVL485
     /tmp/ccIfjRGV.s:9192   .text.LCD_ShowNum1:0000000000000052 .LVL472
     /tmp/ccIfjRGV.s:9275   .text.LCD_ShowNum1:00000000000000ac .LVL482
     /tmp/ccIfjRGV.s:9277   .text.LCD_ShowNum1:00000000000000b0 .LVL483
     /tmp/ccIfjRGV.s:9280   .text.LCD_ShowNum1:00000000000000b4 .LVL484
     /tmp/ccIfjRGV.s:9348   .text.LCD_ShowNum1:00000000000000f2 .LVL492
     /tmp/ccIfjRGV.s:9354   .text.LCD_ShowNum1:00000000000000f8 .LVL494
     /tmp/ccIfjRGV.s:9231   .text.LCD_ShowNum1:000000000000007e .LVL479
     /tmp/ccIfjRGV.s:9360   .text.LCD_ShowNum1:00000000000000fe .LVL496
     /tmp/ccIfjRGV.s:9199   .text.LCD_ShowNum1:000000000000005c .LVL473
     /tmp/ccIfjRGV.s:9207   .text.LCD_ShowNum1:0000000000000064 .LVL474
     /tmp/ccIfjRGV.s:9219   .text.LCD_ShowNum1:000000000000006e .LVL476
     /tmp/ccIfjRGV.s:9227   .text.LCD_ShowNum1:0000000000000076 .LVL478
     /tmp/ccIfjRGV.s:9212   .text.LCD_ShowNum1:0000000000000068 .LVL475
     /tmp/ccIfjRGV.s:9222   .text.LCD_ShowNum1:0000000000000070 .LVL477
     /tmp/ccIfjRGV.s:9325   .text.LCD_ShowNum1:00000000000000d6 .LVL490
     /tmp/ccIfjRGV.s:9247   .text.LCD_ShowNum1:000000000000008c .LVL480
     /tmp/ccIfjRGV.s:8896   .text.LCD_ShowNum:0000000000000002 .LCFI54
     /tmp/ccIfjRGV.s:9066   .text.LCD_ShowNum:00000000000000bc .LCFI55
     /tmp/ccIfjRGV.s:9072   .text.LCD_ShowNum:00000000000000be .LCFI56
     /tmp/ccIfjRGV.s:8890   .text.LCD_ShowNum:0000000000000000 .LVL449
     /tmp/ccIfjRGV.s:8956   .text.LCD_ShowNum:0000000000000048 .LVL450
     /tmp/ccIfjRGV.s:9035   .text.LCD_ShowNum:00000000000000a0 .LVL461
     /tmp/ccIfjRGV.s:9070   .text.LCD_ShowNum:00000000000000be .LVL463
     /tmp/ccIfjRGV.s:9068   .text.LCD_ShowNum:00000000000000bc .LVL462
     /tmp/ccIfjRGV.s:9029   .text.LCD_ShowNum:000000000000009a .LVL460
     /tmp/ccIfjRGV.s:8994   .text.LCD_ShowNum:000000000000006a .LVL456
     /tmp/ccIfjRGV.s:9020   .text.LCD_ShowNum:0000000000000086 .LVL458
     /tmp/ccIfjRGV.s:9079   .text.LCD_ShowNum:00000000000000c2 .LVL464
     /tmp/ccIfjRGV.s:9097   .text.LCD_ShowNum:00000000000000d2 .LVL465
GAS LISTING /tmp/ccIfjRGV.s 			page 336


     /tmp/ccIfjRGV.s:8968   .text.LCD_ShowNum:0000000000000050 .LVL451
     /tmp/ccIfjRGV.s:8975   .text.LCD_ShowNum:0000000000000056 .LVL452
     /tmp/ccIfjRGV.s:8983   .text.LCD_ShowNum:000000000000005e .LVL454
     /tmp/ccIfjRGV.s:8987   .text.LCD_ShowNum:0000000000000066 .LVL455
     /tmp/ccIfjRGV.s:8978   .text.LCD_ShowNum:0000000000000058 .LVL453
     /tmp/ccIfjRGV.s:9004   .text.LCD_ShowNum:0000000000000076 .LVL457
     /tmp/ccIfjRGV.s:8730   .text.LCD_ShowStr:0000000000000002 .LCFI51
     /tmp/ccIfjRGV.s:8825   .text.LCD_ShowStr:0000000000000060 .LCFI52
     /tmp/ccIfjRGV.s:8830   .text.LCD_ShowStr:0000000000000062 .LCFI53
     /tmp/ccIfjRGV.s:8726   .text.LCD_ShowStr:0000000000000000 .LVL431
     /tmp/ccIfjRGV.s:8761   .text.LCD_ShowStr:000000000000002a .LVL433
     /tmp/ccIfjRGV.s:8771   .text.LCD_ShowStr:0000000000000030 .LVL434
     /tmp/ccIfjRGV.s:8779   .text.LCD_ShowStr:0000000000000038 .LVL435
     /tmp/ccIfjRGV.s:8828   .text.LCD_ShowStr:0000000000000062 .LVL440
     /tmp/ccIfjRGV.s:8836   .text.LCD_ShowStr:000000000000006a .LVL441
     /tmp/ccIfjRGV.s:8803   .text.LCD_ShowStr:000000000000004e .LVL438
     /tmp/ccIfjRGV.s:8752   .text.LCD_ShowStr:0000000000000018 .LVL432
     /tmp/ccIfjRGV.s:8790   .text.LCD_ShowStr:0000000000000040 .LVL436
     /tmp/ccIfjRGV.s:8811   .text.LCD_ShowStr:0000000000000052 .LVL439
     /tmp/ccIfjRGV.s:8546   .text.LCD_ShowString:0000000000000008 .LCFI47
     /tmp/ccIfjRGV.s:8652   .text.LCD_ShowString:0000000000000068 .LCFI48
     /tmp/ccIfjRGV.s:8657   .text.LCD_ShowString:000000000000006a .LCFI49
     /tmp/ccIfjRGV.s:8704   .text.LCD_ShowString:000000000000008e .LCFI50
     /tmp/ccIfjRGV.s:8539   .text.LCD_ShowString:0000000000000000 .LVL414
     /tmp/ccIfjRGV.s:8577   .text.LCD_ShowString:000000000000002e .LVL415
     /tmp/ccIfjRGV.s:8587   .text.LCD_ShowString:0000000000000034 .LVL416
     /tmp/ccIfjRGV.s:8607   .text.LCD_ShowString:0000000000000040 .LVL418
     /tmp/ccIfjRGV.s:8655   .text.LCD_ShowString:000000000000006a .LVL424
     /tmp/ccIfjRGV.s:8676   .text.LCD_ShowString:0000000000000076 .LVL426
     /tmp/ccIfjRGV.s:8678   .text.LCD_ShowString:0000000000000078 .LVL427
     /tmp/ccIfjRGV.s:8702   .text.LCD_ShowString:000000000000008e .LVL430
     /tmp/ccIfjRGV.s:8639   .text.LCD_ShowString:000000000000005c .LVL422
     /tmp/ccIfjRGV.s:8618   .text.LCD_ShowString:0000000000000048 .LVL419
     /tmp/ccIfjRGV.s:8636   .text.LCD_ShowString:000000000000005a .LVL421
     /tmp/ccIfjRGV.s:8644   .text.LCD_ShowString:0000000000000060 .LVL423
     /tmp/ccIfjRGV.s:8594   .text.LCD_ShowString:000000000000003c .LVL417
     /tmp/ccIfjRGV.s:8665   .text.LCD_ShowString:0000000000000074 .LVL425
     /tmp/ccIfjRGV.s:8688   .text.LCD_ShowString:0000000000000088 .LVL429
     /tmp/ccIfjRGV.s:8261   .text.Draw_Circle:0000000000000006 .LCFI45
     /tmp/ccIfjRGV.s:8497   .text.Draw_Circle:0000000000000152 .LCFI46
     /tmp/ccIfjRGV.s:8253   .text.Draw_Circle:0000000000000000 .LVL380
     /tmp/ccIfjRGV.s:8301   .text.Draw_Circle:000000000000002c .LVL382
     /tmp/ccIfjRGV.s:8485   .text.Draw_Circle:0000000000000146 .LVL411
     /tmp/ccIfjRGV.s:8482   .text.Draw_Circle:0000000000000144 .LVL410
     /tmp/ccIfjRGV.s:8479   .text.Draw_Circle:0000000000000142 .LVL409
     /tmp/ccIfjRGV.s:8476   .text.Draw_Circle:0000000000000140 .LVL408
     /tmp/ccIfjRGV.s:8291   .text.Draw_Circle:0000000000000022 .LVL381
     /tmp/ccIfjRGV.s:8473   .text.Draw_Circle:000000000000013e .LVL407
     /tmp/ccIfjRGV.s:8306   .text.Draw_Circle:0000000000000034 .LVL383
     /tmp/ccIfjRGV.s:8324   .text.Draw_Circle:0000000000000052 .LVL386
     /tmp/ccIfjRGV.s:8343   .text.Draw_Circle:0000000000000074 .LVL389
     /tmp/ccIfjRGV.s:8361   .text.Draw_Circle:0000000000000092 .LVL392
     /tmp/ccIfjRGV.s:8380   .text.Draw_Circle:00000000000000b2 .LVL395
     /tmp/ccIfjRGV.s:8398   .text.Draw_Circle:00000000000000ce .LVL398
     /tmp/ccIfjRGV.s:8165   .text.LCD_DrawRectangle:0000000000000002 .LCFI43
     /tmp/ccIfjRGV.s:8237   .text.LCD_DrawRectangle:000000000000005e .LCFI44
     /tmp/ccIfjRGV.s:8161   .text.LCD_DrawRectangle:0000000000000000 .LVL369
GAS LISTING /tmp/ccIfjRGV.s 			page 337


     /tmp/ccIfjRGV.s:8218   .text.LCD_DrawRectangle:000000000000004e .LVL375
     /tmp/ccIfjRGV.s:8232   .text.LCD_DrawRectangle:000000000000005a .LVL377
     /tmp/ccIfjRGV.s:8235   .text.LCD_DrawRectangle:000000000000005c .LVL378
     /tmp/ccIfjRGV.s:8172   .text.LCD_DrawRectangle:0000000000000008 .LVL370
     /tmp/ccIfjRGV.s:8213   .text.LCD_DrawRectangle:000000000000004a .LVL374
     /tmp/ccIfjRGV.s:8225   .text.LCD_DrawRectangle:0000000000000054 .LVL376
     /tmp/ccIfjRGV.s:7938   .text.LCD_DrawLine:0000000000000002 .LCFI40
     /tmp/ccIfjRGV.s:8109   .text.LCD_DrawLine:0000000000000098 .LCFI41
     /tmp/ccIfjRGV.s:8114   .text.LCD_DrawLine:000000000000009a .LCFI42
     /tmp/ccIfjRGV.s:7931   .text.LCD_DrawLine:0000000000000000 .LVL334
     /tmp/ccIfjRGV.s:8009   .text.LCD_DrawLine:0000000000000042 .LVL343
     /tmp/ccIfjRGV.s:8112   .text.LCD_DrawLine:000000000000009a .LVL363
     /tmp/ccIfjRGV.s:8101   .text.LCD_DrawLine:0000000000000092 .LVL360
     /tmp/ccIfjRGV.s:8000   .text.LCD_DrawLine:000000000000003c .LVL342
     /tmp/ccIfjRGV.s:8066   .text.LCD_DrawLine:0000000000000076 .LVL352
     /tmp/ccIfjRGV.s:8027   .text.LCD_DrawLine:0000000000000056 .LVL345
     /tmp/ccIfjRGV.s:8081   .text.LCD_DrawLine:0000000000000084 .LVL354
     /tmp/ccIfjRGV.s:8084   .text.LCD_DrawLine:0000000000000086 .LVL355
     /tmp/ccIfjRGV.s:7966   .text.LCD_DrawLine:000000000000001e .LVL335
     /tmp/ccIfjRGV.s:7998   .text.LCD_DrawLine:000000000000003a .LVL341
     /tmp/ccIfjRGV.s:8095   .text.LCD_DrawLine:000000000000008e .LVL358
     /tmp/ccIfjRGV.s:7972   .text.LCD_DrawLine:0000000000000024 .LVL336
     /tmp/ccIfjRGV.s:8098   .text.LCD_DrawLine:0000000000000090 .LVL359
     /tmp/ccIfjRGV.s:8078   .text.LCD_DrawLine:0000000000000082 .LVL353
     /tmp/ccIfjRGV.s:7987   .text.LCD_DrawLine:000000000000002e .LVL339
     /tmp/ccIfjRGV.s:8104   .text.LCD_DrawLine:0000000000000094 .LVL361
     /tmp/ccIfjRGV.s:8122   .text.LCD_DrawLine:00000000000000a0 .LVL364
     /tmp/ccIfjRGV.s:8129   .text.LCD_DrawLine:00000000000000a6 .LVL366
     /tmp/ccIfjRGV.s:7994   .text.LCD_DrawLine:0000000000000034 .LVL340
     /tmp/ccIfjRGV.s:8107   .text.LCD_DrawLine:0000000000000096 .LVL362
     /tmp/ccIfjRGV.s:8142   .text.LCD_DrawLine:00000000000000b2 .LVL367
     /tmp/ccIfjRGV.s:7976   .text.LCD_DrawLine:0000000000000026 .LVL337
     /tmp/ccIfjRGV.s:8087   .text.LCD_DrawLine:0000000000000088 .LVL356
     /tmp/ccIfjRGV.s:7980   .text.LCD_DrawLine:0000000000000028 .LVL338
     /tmp/ccIfjRGV.s:8090   .text.LCD_DrawLine:000000000000008a .LVL357
     /tmp/ccIfjRGV.s:7821   .text.LCD_Fill:0000000000000002 .LCFI38
     /tmp/ccIfjRGV.s:7894   .text.LCD_Fill:0000000000000052 .LCFI39
     /tmp/ccIfjRGV.s:7816   .text.LCD_Fill:0000000000000000 .LVL316
     /tmp/ccIfjRGV.s:7889   .text.LCD_Fill:000000000000004e .LVL327
     /tmp/ccIfjRGV.s:7848   .text.LCD_Fill:0000000000000026 .LVL318
     /tmp/ccIfjRGV.s:7880   .text.LCD_Fill:0000000000000048 .LVL324
     /tmp/ccIfjRGV.s:7892   .text.LCD_Fill:0000000000000050 .LVL328
     /tmp/ccIfjRGV.s:7883   .text.LCD_Fill:000000000000004a .LVL325
     /tmp/ccIfjRGV.s:7886   .text.LCD_Fill:000000000000004c .LVL326
     /tmp/ccIfjRGV.s:7853   .text.LCD_Fill:000000000000002c .LVL319
     /tmp/ccIfjRGV.s:7858   .text.LCD_Fill:000000000000002e .LVL320
     /tmp/ccIfjRGV.s:7871   .text.LCD_Fill:0000000000000042 .LVL323
     /tmp/ccIfjRGV.s:7908   .text.LCD_DrawPoint_big:0000000000000000 .LVL329
     /tmp/ccIfjRGV.s:7917   .text.LCD_DrawPoint_big:000000000000000e .LVL332
     /tmp/ccIfjRGV.s:7915   .text.LCD_DrawPoint_big:000000000000000c .LVL331
     /tmp/ccIfjRGV.s:7913   .text.LCD_DrawPoint_big:000000000000000a .LVL330
     /tmp/ccIfjRGV.s:7621   .text.LCD_ShowChinese:0000000000000002 .LCFI33
     /tmp/ccIfjRGV.s:7740   .text.LCD_ShowChinese:00000000000000a2 .LCFI34
     /tmp/ccIfjRGV.s:7745   .text.LCD_ShowChinese:00000000000000a4 .LCFI35
     /tmp/ccIfjRGV.s:7614   .text.LCD_ShowChinese:0000000000000000 .LVL291
     /tmp/ccIfjRGV.s:7743   .text.LCD_ShowChinese:00000000000000a4 .LVL308
     /tmp/ccIfjRGV.s:7656   .text.LCD_ShowChinese:0000000000000040 .LVL294
GAS LISTING /tmp/ccIfjRGV.s 			page 338


     /tmp/ccIfjRGV.s:7628   .text.LCD_ShowChinese:000000000000000e .LVL292
     /tmp/ccIfjRGV.s:7637   .text.LCD_ShowChinese:000000000000001e .LVL293
     /tmp/ccIfjRGV.s:7696   .text.LCD_ShowChinese:0000000000000072 .LVL299
     /tmp/ccIfjRGV.s:7699   .text.LCD_ShowChinese:0000000000000076 .LVL300
     /tmp/ccIfjRGV.s:7730   .text.LCD_ShowChinese:0000000000000098 .LVL307
     /tmp/ccIfjRGV.s:7683   .text.LCD_ShowChinese:0000000000000064 .LVL298
     /tmp/ccIfjRGV.s:7702   .text.LCD_ShowChinese:0000000000000078 .LVL301
     /tmp/ccIfjRGV.s:7668   .text.LCD_ShowChinese:0000000000000056 .LVL296
     /tmp/ccIfjRGV.s:7678   .text.LCD_ShowChinese:0000000000000062 .LVL297
     /tmp/ccIfjRGV.s:7710   .text.LCD_ShowChinese:0000000000000086 .LVL303
     /tmp/ccIfjRGV.s:7714   .text.LCD_ShowChinese:000000000000008c .LVL304
     /tmp/ccIfjRGV.s:7717   .text.LCD_ShowChinese:0000000000000090 .LVL305
     /tmp/ccIfjRGV.s:7756   .text.LCD_ShowChinese:00000000000000b6 .LVL310
     /tmp/ccIfjRGV.s:7727   .text.LCD_ShowChinese:0000000000000096 .LVL306
     /tmp/ccIfjRGV.s:7545   .text.LCD_Clear:0000000000000002 .LCFI31
     /tmp/ccIfjRGV.s:7600   .text.LCD_Clear:0000000000000046 .LCFI32
     /tmp/ccIfjRGV.s:7540   .text.LCD_Clear:0000000000000000 .LVL281
     /tmp/ccIfjRGV.s:7557   .text.LCD_Clear:0000000000000012 .LVL282
     /tmp/ccIfjRGV.s:7595   .text.LCD_Clear:0000000000000042 .LVL289
     /tmp/ccIfjRGV.s:7583   .text.LCD_Clear:0000000000000036 .LVL287
     /tmp/ccIfjRGV.s:7585   .text.LCD_Clear:0000000000000038 .LVL288
     /tmp/ccIfjRGV.s:7598   .text.LCD_Clear:0000000000000044 .LVL290
     /tmp/ccIfjRGV.s:7573   .text.LCD_Clear:0000000000000028 .LVL284
     /tmp/ccIfjRGV.s:7577   .text.LCD_Clear:000000000000002a .LVL285
     /tmp/ccIfjRGV.s:1715   .text.Lcd_Init:0000000000000002 .LCFI28
     /tmp/ccIfjRGV.s:7463   .text.Lcd_Init:000000000000176c .LCFI29
     /tmp/ccIfjRGV.s:7467   .text.Lcd_Init:000000000000176e .LCFI30
     /tmp/ccIfjRGV.s:1736   .text.Lcd_Init:000000000000001a .LVL113
     /tmp/ccIfjRGV.s:1749   .text.Lcd_Init:0000000000000024 .LVL114
     /tmp/ccIfjRGV.s:1876   .text.Lcd_Init:0000000000000118 .LVL126
     /tmp/ccIfjRGV.s:1944   .text.Lcd_Init:000000000000017e .LVL130
     /tmp/ccIfjRGV.s:2076   .text.Lcd_Init:0000000000000214 .LVL134
     /tmp/ccIfjRGV.s:2147   .text.Lcd_Init:0000000000000260 .LVL136
     /tmp/ccIfjRGV.s:2222   .text.Lcd_Init:00000000000002ac .LVL138
     /tmp/ccIfjRGV.s:2297   .text.Lcd_Init:00000000000002f8 .LVL140
     /tmp/ccIfjRGV.s:2372   .text.Lcd_Init:0000000000000344 .LVL142
     /tmp/ccIfjRGV.s:2447   .text.Lcd_Init:0000000000000390 .LVL144
     /tmp/ccIfjRGV.s:2522   .text.Lcd_Init:00000000000003dc .LVL146
     /tmp/ccIfjRGV.s:2597   .text.Lcd_Init:0000000000000428 .LVL148
     /tmp/ccIfjRGV.s:2672   .text.Lcd_Init:0000000000000474 .LVL150
     /tmp/ccIfjRGV.s:2747   .text.Lcd_Init:00000000000004c0 .LVL152
     /tmp/ccIfjRGV.s:2822   .text.Lcd_Init:000000000000050c .LVL154
     /tmp/ccIfjRGV.s:2897   .text.Lcd_Init:0000000000000558 .LVL156
     /tmp/ccIfjRGV.s:2972   .text.Lcd_Init:00000000000005a4 .LVL158
     /tmp/ccIfjRGV.s:3047   .text.Lcd_Init:00000000000005f0 .LVL160
     /tmp/ccIfjRGV.s:3122   .text.Lcd_Init:000000000000063c .LVL162
     /tmp/ccIfjRGV.s:3197   .text.Lcd_Init:0000000000000688 .LVL164
     /tmp/ccIfjRGV.s:3272   .text.Lcd_Init:00000000000006d4 .LVL166
     /tmp/ccIfjRGV.s:3347   .text.Lcd_Init:0000000000000720 .LVL168
     /tmp/ccIfjRGV.s:3422   .text.Lcd_Init:000000000000076c .LVL170
     /tmp/ccIfjRGV.s:3497   .text.Lcd_Init:00000000000007b8 .LVL172
     /tmp/ccIfjRGV.s:3572   .text.Lcd_Init:0000000000000804 .LVL174
     /tmp/ccIfjRGV.s:3647   .text.Lcd_Init:0000000000000850 .LVL176
     /tmp/ccIfjRGV.s:3722   .text.Lcd_Init:000000000000089c .LVL178
     /tmp/ccIfjRGV.s:3797   .text.Lcd_Init:00000000000008e8 .LVL180
     /tmp/ccIfjRGV.s:3872   .text.Lcd_Init:0000000000000934 .LVL182
     /tmp/ccIfjRGV.s:3947   .text.Lcd_Init:0000000000000980 .LVL184
GAS LISTING /tmp/ccIfjRGV.s 			page 339


     /tmp/ccIfjRGV.s:4022   .text.Lcd_Init:00000000000009cc .LVL186
     /tmp/ccIfjRGV.s:4097   .text.Lcd_Init:0000000000000a18 .LVL188
     /tmp/ccIfjRGV.s:4172   .text.Lcd_Init:0000000000000a64 .LVL190
     /tmp/ccIfjRGV.s:4247   .text.Lcd_Init:0000000000000ab0 .LVL192
     /tmp/ccIfjRGV.s:4322   .text.Lcd_Init:0000000000000afc .LVL194
     /tmp/ccIfjRGV.s:4397   .text.Lcd_Init:0000000000000b48 .LVL196
     /tmp/ccIfjRGV.s:4472   .text.Lcd_Init:0000000000000b94 .LVL198
     /tmp/ccIfjRGV.s:4547   .text.Lcd_Init:0000000000000be0 .LVL200
     /tmp/ccIfjRGV.s:4622   .text.Lcd_Init:0000000000000c2c .LVL202
     /tmp/ccIfjRGV.s:4697   .text.Lcd_Init:0000000000000c78 .LVL204
     /tmp/ccIfjRGV.s:4772   .text.Lcd_Init:0000000000000cc4 .LVL206
     /tmp/ccIfjRGV.s:4847   .text.Lcd_Init:0000000000000d10 .LVL208
     /tmp/ccIfjRGV.s:4922   .text.Lcd_Init:0000000000000d5c .LVL210
     /tmp/ccIfjRGV.s:4997   .text.Lcd_Init:0000000000000da8 .LVL212
     /tmp/ccIfjRGV.s:5072   .text.Lcd_Init:0000000000000df4 .LVL214
     /tmp/ccIfjRGV.s:5147   .text.Lcd_Init:0000000000000e40 .LVL216
     /tmp/ccIfjRGV.s:5222   .text.Lcd_Init:0000000000000e8c .LVL218
     /tmp/ccIfjRGV.s:5297   .text.Lcd_Init:0000000000000ed8 .LVL220
     /tmp/ccIfjRGV.s:5372   .text.Lcd_Init:0000000000000f24 .LVL222
     /tmp/ccIfjRGV.s:5447   .text.Lcd_Init:0000000000000f70 .LVL224
     /tmp/ccIfjRGV.s:5522   .text.Lcd_Init:0000000000000fbc .LVL226
     /tmp/ccIfjRGV.s:5597   .text.Lcd_Init:0000000000001008 .LVL228
     /tmp/ccIfjRGV.s:5672   .text.Lcd_Init:0000000000001054 .LVL230
     /tmp/ccIfjRGV.s:5747   .text.Lcd_Init:00000000000010a0 .LVL232
     /tmp/ccIfjRGV.s:5822   .text.Lcd_Init:00000000000010ec .LVL234
     /tmp/ccIfjRGV.s:5897   .text.Lcd_Init:0000000000001138 .LVL236
     /tmp/ccIfjRGV.s:5972   .text.Lcd_Init:0000000000001184 .LVL238
     /tmp/ccIfjRGV.s:6047   .text.Lcd_Init:00000000000011d0 .LVL240
     /tmp/ccIfjRGV.s:6122   .text.Lcd_Init:000000000000121c .LVL242
     /tmp/ccIfjRGV.s:6197   .text.Lcd_Init:0000000000001268 .LVL244
     /tmp/ccIfjRGV.s:6272   .text.Lcd_Init:00000000000012b4 .LVL246
     /tmp/ccIfjRGV.s:6347   .text.Lcd_Init:0000000000001300 .LVL248
     /tmp/ccIfjRGV.s:6422   .text.Lcd_Init:000000000000134c .LVL250
     /tmp/ccIfjRGV.s:6497   .text.Lcd_Init:0000000000001398 .LVL252
     /tmp/ccIfjRGV.s:6572   .text.Lcd_Init:00000000000013e4 .LVL254
     /tmp/ccIfjRGV.s:6647   .text.Lcd_Init:0000000000001430 .LVL256
     /tmp/ccIfjRGV.s:6722   .text.Lcd_Init:000000000000147c .LVL258
     /tmp/ccIfjRGV.s:6797   .text.Lcd_Init:00000000000014c8 .LVL260
     /tmp/ccIfjRGV.s:6872   .text.Lcd_Init:0000000000001514 .LVL262
     /tmp/ccIfjRGV.s:6947   .text.Lcd_Init:0000000000001560 .LVL264
     /tmp/ccIfjRGV.s:7022   .text.Lcd_Init:00000000000015ac .LVL266
     /tmp/ccIfjRGV.s:7097   .text.Lcd_Init:00000000000015f8 .LVL268
     /tmp/ccIfjRGV.s:7172   .text.Lcd_Init:0000000000001644 .LVL270
     /tmp/ccIfjRGV.s:7247   .text.Lcd_Init:0000000000001690 .LVL272
     /tmp/ccIfjRGV.s:7322   .text.Lcd_Init:00000000000016dc .LVL274
     /tmp/ccIfjRGV.s:7397   .text.Lcd_Init:0000000000001728 .LVL276
     /tmp/ccIfjRGV.s:7451   .text.Lcd_Init:0000000000001764 .LVL278
     /tmp/ccIfjRGV.s:1582   .text.spi_config:0000000000000002 .LCFI26
     /tmp/ccIfjRGV.s:1649   .text.spi_config:000000000000006a .LCFI27
     /tmp/ccIfjRGV.s:705    .text.LCD_WR_DATA:0000000000000002 .LCFI17
     /tmp/ccIfjRGV.s:901    .text.LCD_WR_DATA:00000000000000d8 .LCFI18
     /tmp/ccIfjRGV.s:701    .text.LCD_WR_DATA:0000000000000000 .LVL42
     /tmp/ccIfjRGV.s:767    .text.LCD_WR_DATA:0000000000000044 .LVL44
     /tmp/ccIfjRGV.s:827    .text.LCD_WR_DATA:000000000000008e .LVL46
     /tmp/ccIfjRGV.s:761    .text.LCD_WR_DATA:0000000000000040 .LVL43
     /tmp/ccIfjRGV.s:835    .text.LCD_WR_DATA:0000000000000094 .LVL47
     /tmp/ccIfjRGV.s:847    .text.LCD_WR_DATA:000000000000009a .LVL48
GAS LISTING /tmp/ccIfjRGV.s 			page 340


     /tmp/ccIfjRGV.s:888    .text.LCD_WR_DATA:00000000000000ce .LVL50
     /tmp/ccIfjRGV.s:489    .text.LCD_Writ_Bus:0000000000000002 .LCFI13
     /tmp/ccIfjRGV.s:565    .text.LCD_Writ_Bus:0000000000000070 .LCFI14
     /tmp/ccIfjRGV.s:485    .text.LCD_Writ_Bus:0000000000000000 .LVL29
     /tmp/ccIfjRGV.s:503    .text.LCD_Writ_Bus:0000000000000012 .LVL30
     /tmp/ccIfjRGV.s:28     .text.lcd_delay_1ms:0000000000000002 .LCFI0
     /tmp/ccIfjRGV.s:157    .text.lcd_delay_1ms:00000000000000cc .LCFI1
     /tmp/ccIfjRGV.s:23     .text.lcd_delay_1ms:0000000000000000 .LVL0
     /tmp/ccIfjRGV.s:151    .text.lcd_delay_1ms:00000000000000c6 .LVL17
     /tmp/ccIfjRGV.s:68     .text.lcd_delay_1ms:0000000000000032 .LVL4
     /tmp/ccIfjRGV.s:136    .text.lcd_delay_1ms:00000000000000b8 .LVL16
     /tmp/ccIfjRGV.s:59     .text.lcd_delay_1ms:0000000000000026 .LVL2
     /tmp/ccIfjRGV.s:76     .text.lcd_delay_1ms:0000000000000042 .LVL5
     /tmp/ccIfjRGV.s:174    .text.LCD_WR_Queue:0000000000000002 .LCFI2
     /tmp/ccIfjRGV.s:210    .text.LCD_WR_Queue:000000000000003a .LCFI3
     /tmp/ccIfjRGV.s:214    .text.LCD_WR_Queue:000000000000003c .LCFI4
     /tmp/ccIfjRGV.s:285    .text.LCD_WR_Queue:00000000000000aa .LCFI5
     /tmp/ccIfjRGV.s:289    .text.LCD_WR_Queue:00000000000000ac .LCFI6
     /tmp/ccIfjRGV.s:307    .text.LCD_WR_Queue:00000000000000ba .LCFI7
     /tmp/ccIfjRGV.s:313    .text.LCD_WR_Queue:00000000000000c2 .LCFI8
     /tmp/ccIfjRGV.s:337    .text.LCD_Wait_On_Queue:0000000000000002 .LCFI9
     /tmp/ccIfjRGV.s:373    .text.LCD_Wait_On_Queue:0000000000000038 .LCFI10
     /tmp/ccIfjRGV.s:391    .text.LCD_Write_Bus:0000000000000002 .LCFI11
     /tmp/ccIfjRGV.s:471    .text.LCD_Write_Bus:0000000000000078 .LCFI12
     /tmp/ccIfjRGV.s:387    .text.LCD_Write_Bus:0000000000000000 .LVL25
     /tmp/ccIfjRGV.s:428    .text.LCD_Write_Bus:000000000000003a .LVL26
     /tmp/ccIfjRGV.s:469    .text.LCD_Write_Bus:0000000000000076 .LVL28
     /tmp/ccIfjRGV.s:585    .text.LCD_WR_DATA8:0000000000000002 .LCFI15
     /tmp/ccIfjRGV.s:687    .text.LCD_WR_DATA8:000000000000007a .LCFI16
     /tmp/ccIfjRGV.s:581    .text.LCD_WR_DATA8:0000000000000000 .LVL37
     /tmp/ccIfjRGV.s:638    .text.LCD_WR_DATA8:000000000000003c .LVL39
     /tmp/ccIfjRGV.s:632    .text.LCD_WR_DATA8:0000000000000038 .LVL38
     /tmp/ccIfjRGV.s:678    .text.LCD_WR_DATA8:0000000000000074 .LVL41
     /tmp/ccIfjRGV.s:919    .text.LCD_WR_REG:0000000000000002 .LCFI19
     /tmp/ccIfjRGV.s:1021   .text.LCD_WR_REG:0000000000000078 .LCFI20
     /tmp/ccIfjRGV.s:915    .text.LCD_WR_REG:0000000000000000 .LVL51
     /tmp/ccIfjRGV.s:972    .text.LCD_WR_REG:000000000000003a .LVL53
     /tmp/ccIfjRGV.s:966    .text.LCD_WR_REG:0000000000000036 .LVL52
     /tmp/ccIfjRGV.s:1012   .text.LCD_WR_REG:0000000000000072 .LVL55
     /tmp/ccIfjRGV.s:1037   .text.LCD_Address_Set:0000000000000002 .LCFI21
     /tmp/ccIfjRGV.s:1349   .text.LCD_Address_Set:0000000000000180 .LCFI22
     /tmp/ccIfjRGV.s:1035   .text.LCD_Address_Set:0000000000000000 .LVL56
     /tmp/ccIfjRGV.s:1119   .text.LCD_Address_Set:0000000000000050 .LVL58
     /tmp/ccIfjRGV.s:1347   .text.LCD_Address_Set:000000000000017e .LVL72
     /tmp/ccIfjRGV.s:1337   .text.LCD_Address_Set:0000000000000176 .LVL70
     /tmp/ccIfjRGV.s:1344   .text.LCD_Address_Set:000000000000017c .LVL71
     /tmp/ccIfjRGV.s:1334   .text.LCD_Address_Set:0000000000000174 .LVL69
     /tmp/ccIfjRGV.s:1103   .text.LCD_Address_Set:000000000000004a .LVL57
     /tmp/ccIfjRGV.s:1169   .text.LCD_Address_Set:000000000000009a .LVL60
     /tmp/ccIfjRGV.s:1248   .text.LCD_Address_Set:0000000000000106 .LVL64
     /tmp/ccIfjRGV.s:1324   .text.LCD_Address_Set:0000000000000170 .LVL68
     /tmp/ccIfjRGV.s:1364   .text.LCD_ShowChar.part.3:0000000000000002 .LCFI23
     /tmp/ccIfjRGV.s:1492   .text.LCD_ShowChar.part.3:000000000000008e .LCFI24
     /tmp/ccIfjRGV.s:1497   .text.LCD_ShowChar.part.3:0000000000000090 .LCFI25
     /tmp/ccIfjRGV.s:1362   .text.LCD_ShowChar.part.3:0000000000000000 .LVL73
     /tmp/ccIfjRGV.s:1427   .text.LCD_ShowChar.part.3:0000000000000052 .LVL79
     /tmp/ccIfjRGV.s:1460   .text.LCD_ShowChar.part.3:0000000000000072 .LVL86
GAS LISTING /tmp/ccIfjRGV.s 			page 341


     /tmp/ccIfjRGV.s:1465   .text.LCD_ShowChar.part.3:0000000000000078 .LVL87
     /tmp/ccIfjRGV.s:1495   .text.LCD_ShowChar.part.3:0000000000000090 .LVL90
     /tmp/ccIfjRGV.s:1422   .text.LCD_ShowChar.part.3:000000000000004e .LVL78
     /tmp/ccIfjRGV.s:1503   .text.LCD_ShowChar.part.3:0000000000000098 .LVL91
     /tmp/ccIfjRGV.s:1507   .text.LCD_ShowChar.part.3:00000000000000a4 .LVL92
     /tmp/ccIfjRGV.s:1375   .text.LCD_ShowChar.part.3:000000000000000e .LVL74
     /tmp/ccIfjRGV.s:1403   .text.LCD_ShowChar.part.3:000000000000002a .LVL76
     /tmp/ccIfjRGV.s:1382   .text.LCD_ShowChar.part.3:0000000000000018 .LVL75
     /tmp/ccIfjRGV.s:1442   .text.LCD_ShowChar.part.3:000000000000005c .LVL81
     /tmp/ccIfjRGV.s:1445   .text.LCD_ShowChar.part.3:0000000000000060 .LVL82
     /tmp/ccIfjRGV.s:1478   .text.LCD_ShowChar.part.3:0000000000000080 .LVL89
     /tmp/ccIfjRGV.s:1475   .text.LCD_ShowChar.part.3:000000000000007e .LVL88
     /tmp/ccIfjRGV.s:1514   .text.LCD_ShowChar.part.3:00000000000000ae .LVL93
     /tmp/ccIfjRGV.s:1560   .text.LCD_ShowChar.part.3:00000000000000e2 .LVL103
     /tmp/ccIfjRGV.s:1563   .text.LCD_ShowChar.part.3:00000000000000e4 .LVL104
     /tmp/ccIfjRGV.s:1431   .text.LCD_ShowChar.part.3:0000000000000054 .LVL80
     /tmp/ccIfjRGV.s:1448   .text.LCD_ShowChar.part.3:0000000000000062 .LVL83
     /tmp/ccIfjRGV.s:1519   .text.LCD_ShowChar.part.3:00000000000000b2 .LVL94
     /tmp/ccIfjRGV.s:1523   .text.LCD_ShowChar.part.3:00000000000000b4 .LVL95
     /tmp/ccIfjRGV.s:1530   .text.LCD_ShowChar.part.3:00000000000000ba .LVL97
     /tmp/ccIfjRGV.s:1549   .text.LCD_ShowChar.part.3:00000000000000d4 .LVL100
     /tmp/ccIfjRGV.s:1536   .text.LCD_ShowChar.part.3:00000000000000c0 .LVL98
     /tmp/ccIfjRGV.s:1683   .text.Lcd_SetType:0000000000000018 .LVL111
     /tmp/ccIfjRGV.s:1695   .text.Lcd_SetType:0000000000000028 .LVL112
     /tmp/ccIfjRGV.s:7774   .text.LCD_DrawPoint:0000000000000002 .LCFI36
     /tmp/ccIfjRGV.s:7800   .text.LCD_DrawPoint:000000000000001c .LCFI37
     /tmp/ccIfjRGV.s:7770   .text.LCD_DrawPoint:0000000000000000 .LVL311
     /tmp/ccIfjRGV.s:7784   .text.LCD_DrawPoint:000000000000000a .LVL312
     /tmp/ccIfjRGV.s:7796   .text.LCD_DrawPoint:0000000000000018 .LVL314
     /tmp/ccIfjRGV.s:8511   .text.LCD_ShowChar:0000000000000000 .LVL412
     /tmp/ccIfjRGV.s:8849   .text.mypow:0000000000000000 .LVL442
     /tmp/ccIfjRGV.s:8877   .text.mypow:0000000000000020 .LVL448
     /tmp/ccIfjRGV.s:8855   .text.mypow:0000000000000008 .LVL443
     /tmp/ccIfjRGV.s:8866   .text.mypow:0000000000000012 .LVL445
     /tmp/ccIfjRGV.s:8870   .text.mypow:000000000000001a .LVL446
     /tmp/ccIfjRGV.s:8861   .text.mypow:0000000000000010 .LVL444
     /tmp/ccIfjRGV.s:8873   .text.mypow:000000000000001e .LVL447
     /tmp/ccIfjRGV.s:11937  .debug_info:0000000000000000 .Ldebug_info0
     /tmp/ccIfjRGV.s:263    .text.LCD_WR_Queue:0000000000000092 .LBE390
     /tmp/ccIfjRGV.s:270    .text.LCD_WR_Queue:0000000000000096 .LBB394
     /tmp/ccIfjRGV.s:280    .text.LCD_WR_Queue:00000000000000a6 .LBE394
     /tmp/ccIfjRGV.s:315    .text.LCD_WR_Queue:00000000000000c2 .LBB395
     /tmp/ccIfjRGV.s:322    .text.LCD_WR_Queue:00000000000000cc .LBE395
     /tmp/ccIfjRGV.s:596    .text.LCD_WR_DATA8:000000000000000e .LBE396
     /tmp/ccIfjRGV.s:600    .text.LCD_WR_DATA8:0000000000000010 .LBB402
     /tmp/ccIfjRGV.s:618    .text.LCD_WR_DATA8:000000000000002e .LBE402
     /tmp/ccIfjRGV.s:624    .text.LCD_WR_DATA8:0000000000000032 .LBB403
     /tmp/ccIfjRGV.s:629    .text.LCD_WR_DATA8:0000000000000034 .LBE403
     /tmp/ccIfjRGV.s:633    .text.LCD_WR_DATA8:0000000000000038 .LBB404
     /tmp/ccIfjRGV.s:664    .text.LCD_WR_DATA8:0000000000000064 .LBE404
     /tmp/ccIfjRGV.s:670    .text.LCD_WR_DATA8:0000000000000068 .LBB405
     /tmp/ccIfjRGV.s:680    .text.LCD_WR_DATA8:0000000000000074 .LBE405
     /tmp/ccIfjRGV.s:716    .text.LCD_WR_DATA:000000000000000e .LBE406
     /tmp/ccIfjRGV.s:720    .text.LCD_WR_DATA:0000000000000010 .LBB414
     /tmp/ccIfjRGV.s:738    .text.LCD_WR_DATA:000000000000002a .LBE414
     /tmp/ccIfjRGV.s:751    .text.LCD_WR_DATA:0000000000000036 .LBB415
     /tmp/ccIfjRGV.s:756    .text.LCD_WR_DATA:000000000000003a .LBE415
GAS LISTING /tmp/ccIfjRGV.s 			page 342


     /tmp/ccIfjRGV.s:762    .text.LCD_WR_DATA:0000000000000040 .LBB416
     /tmp/ccIfjRGV.s:789    .text.LCD_WR_DATA:000000000000006a .LBE416
     /tmp/ccIfjRGV.s:799    .text.LCD_WR_DATA:0000000000000076 .LBB424
     /tmp/ccIfjRGV.s:806    .text.LCD_WR_DATA:0000000000000080 .LBE424
     /tmp/ccIfjRGV.s:813    .text.LCD_WR_DATA:0000000000000084 .LBB426
     /tmp/ccIfjRGV.s:818    .text.LCD_WR_DATA:0000000000000086 .LBE426
     /tmp/ccIfjRGV.s:828    .text.LCD_WR_DATA:000000000000008e .LBB428
     /tmp/ccIfjRGV.s:837    .text.LCD_WR_DATA:0000000000000094 .LBE428
     /tmp/ccIfjRGV.s:798    .text.LCD_WR_DATA:0000000000000076 .LBE417
     /tmp/ccIfjRGV.s:807    .text.LCD_WR_DATA:0000000000000080 .LBB425
     /tmp/ccIfjRGV.s:812    .text.LCD_WR_DATA:0000000000000084 .LBE425
     /tmp/ccIfjRGV.s:819    .text.LCD_WR_DATA:0000000000000086 .LBB427
     /tmp/ccIfjRGV.s:824    .text.LCD_WR_DATA:000000000000008a .LBE427
     /tmp/ccIfjRGV.s:839    .text.LCD_WR_DATA:0000000000000094 .LBB429
     /tmp/ccIfjRGV.s:844    .text.LCD_WR_DATA:0000000000000096 .LBE429
     /tmp/ccIfjRGV.s:848    .text.LCD_WR_DATA:000000000000009a .LBB430
     /tmp/ccIfjRGV.s:875    .text.LCD_WR_DATA:00000000000000c2 .LBE430
     /tmp/ccIfjRGV.s:881    .text.LCD_WR_DATA:00000000000000c6 .LBB431
     /tmp/ccIfjRGV.s:890    .text.LCD_WR_DATA:00000000000000ce .LBE431
     /tmp/ccIfjRGV.s:930    .text.LCD_WR_REG:000000000000000e .LBE432
     /tmp/ccIfjRGV.s:934    .text.LCD_WR_REG:0000000000000010 .LBB438
     /tmp/ccIfjRGV.s:952    .text.LCD_WR_REG:000000000000002e .LBE438
     /tmp/ccIfjRGV.s:958    .text.LCD_WR_REG:0000000000000032 .LBB439
     /tmp/ccIfjRGV.s:963    .text.LCD_WR_REG:0000000000000034 .LBE439
     /tmp/ccIfjRGV.s:967    .text.LCD_WR_REG:0000000000000036 .LBB440
     /tmp/ccIfjRGV.s:998    .text.LCD_WR_REG:0000000000000062 .LBE440
     /tmp/ccIfjRGV.s:1004   .text.LCD_WR_REG:0000000000000066 .LBB441
     /tmp/ccIfjRGV.s:1014   .text.LCD_WR_REG:0000000000000072 .LBE441
     /tmp/ccIfjRGV.s:1050   .text.LCD_Address_Set:0000000000000010 .LBE462
     /tmp/ccIfjRGV.s:1054   .text.LCD_Address_Set:0000000000000012 .LBB477
     /tmp/ccIfjRGV.s:1074   .text.LCD_Address_Set:0000000000000032 .LBE477
     /tmp/ccIfjRGV.s:1090   .text.LCD_Address_Set:0000000000000040 .LBB478
     /tmp/ccIfjRGV.s:1097   .text.LCD_Address_Set:0000000000000044 .LBE478
     /tmp/ccIfjRGV.s:1105   .text.LCD_Address_Set:000000000000004a .LBB479
     /tmp/ccIfjRGV.s:1111   .text.LCD_Address_Set:000000000000004a .LBE479
     /tmp/ccIfjRGV.s:1114   .text.LCD_Address_Set:000000000000004c .LBB480
     /tmp/ccIfjRGV.s:1142   .text.LCD_Address_Set:0000000000000076 .LBE480
     /tmp/ccIfjRGV.s:1147   .text.LCD_Address_Set:0000000000000082 .LBB481
     /tmp/ccIfjRGV.s:1158   .text.LCD_Address_Set:0000000000000092 .LBE481
     /tmp/ccIfjRGV.s:1161   .text.LCD_Address_Set:0000000000000094 .LBB482
     /tmp/ccIfjRGV.s:1172   .text.LCD_Address_Set:000000000000009a .LBE482
     /tmp/ccIfjRGV.s:1225   .text.LCD_Address_Set:00000000000000f4 .LBE483
     /tmp/ccIfjRGV.s:1228   .text.LCD_Address_Set:00000000000000f8 .LBB490
     /tmp/ccIfjRGV.s:1237   .text.LCD_Address_Set:0000000000000100 .LBE490
     /tmp/ccIfjRGV.s:1240   .text.LCD_Address_Set:0000000000000102 .LBB491
     /tmp/ccIfjRGV.s:1251   .text.LCD_Address_Set:0000000000000106 .LBE491
     /tmp/ccIfjRGV.s:1308   .text.LCD_Address_Set:0000000000000162 .LBE492
     /tmp/ccIfjRGV.s:1314   .text.LCD_Address_Set:0000000000000166 .LBB499
     /tmp/ccIfjRGV.s:1328   .text.LCD_Address_Set:0000000000000170 .LBE499
     /tmp/ccIfjRGV.s:1796   .text.Lcd_Init:0000000000000092 .LBE508
     /tmp/ccIfjRGV.s:1801   .text.Lcd_Init:000000000000009a .LBB511
     /tmp/ccIfjRGV.s:1821   .text.Lcd_Init:00000000000000ba .LBE511
     /tmp/ccIfjRGV.s:2000   .text.Lcd_Init:00000000000001d4 .LBE522
     /tmp/ccIfjRGV.s:2014   .text.Lcd_Init:00000000000001e8 .LBB538
     /tmp/ccIfjRGV.s:2021   .text.Lcd_Init:00000000000001ea .LBE538
     /tmp/ccIfjRGV.s:2013   .text.Lcd_Init:00000000000001e8 .LBE527
     /tmp/ccIfjRGV.s:2022   .text.Lcd_Init:00000000000001ea .LBB539
GAS LISTING /tmp/ccIfjRGV.s 			page 343


     /tmp/ccIfjRGV.s:2033   .text.Lcd_Init:00000000000001f4 .LBE539
     /tmp/ccIfjRGV.s:2046   .text.Lcd_Init:0000000000000204 .LBB551
     /tmp/ccIfjRGV.s:2054   .text.Lcd_Init:0000000000000208 .LBE551
     /tmp/ccIfjRGV.s:2063   .text.Lcd_Init:000000000000020c .LBB553
     /tmp/ccIfjRGV.s:2074   .text.Lcd_Init:0000000000000214 .LBE553
     /tmp/ccIfjRGV.s:7504   .text.Lcd_Init:00000000000017a2 .LBB1622
     /tmp/ccIfjRGV.s:7528   .text.Lcd_Init:00000000000017cc .LBE1622
     /tmp/ccIfjRGV.s:2045   .text.Lcd_Init:0000000000000204 .LBE540
     /tmp/ccIfjRGV.s:2055   .text.Lcd_Init:0000000000000208 .LBB552
     /tmp/ccIfjRGV.s:2062   .text.Lcd_Init:000000000000020c .LBE552
     /tmp/ccIfjRGV.s:2078   .text.Lcd_Init:0000000000000214 .LBB554
     /tmp/ccIfjRGV.s:2108   .text.Lcd_Init:0000000000000240 .LBE554
     /tmp/ccIfjRGV.s:2121   .text.Lcd_Init:0000000000000250 .LBB566
     /tmp/ccIfjRGV.s:2129   .text.Lcd_Init:0000000000000254 .LBE566
     /tmp/ccIfjRGV.s:2138   .text.Lcd_Init:0000000000000258 .LBB568
     /tmp/ccIfjRGV.s:2150   .text.Lcd_Init:0000000000000260 .LBE568
     /tmp/ccIfjRGV.s:2120   .text.Lcd_Init:0000000000000250 .LBE555
     /tmp/ccIfjRGV.s:2130   .text.Lcd_Init:0000000000000254 .LBB567
     /tmp/ccIfjRGV.s:2137   .text.Lcd_Init:0000000000000258 .LBE567
     /tmp/ccIfjRGV.s:2153   .text.Lcd_Init:0000000000000260 .LBB569
     /tmp/ccIfjRGV.s:2183   .text.Lcd_Init:000000000000028c .LBE569
     /tmp/ccIfjRGV.s:2196   .text.Lcd_Init:000000000000029c .LBB581
     /tmp/ccIfjRGV.s:2204   .text.Lcd_Init:00000000000002a0 .LBE581
     /tmp/ccIfjRGV.s:2213   .text.Lcd_Init:00000000000002a4 .LBB583
     /tmp/ccIfjRGV.s:2225   .text.Lcd_Init:00000000000002ac .LBE583
     /tmp/ccIfjRGV.s:2195   .text.Lcd_Init:000000000000029c .LBE570
     /tmp/ccIfjRGV.s:2205   .text.Lcd_Init:00000000000002a0 .LBB582
     /tmp/ccIfjRGV.s:2212   .text.Lcd_Init:00000000000002a4 .LBE582
     /tmp/ccIfjRGV.s:2228   .text.Lcd_Init:00000000000002ac .LBB584
     /tmp/ccIfjRGV.s:2258   .text.Lcd_Init:00000000000002d8 .LBE584
     /tmp/ccIfjRGV.s:2271   .text.Lcd_Init:00000000000002e8 .LBB596
     /tmp/ccIfjRGV.s:2279   .text.Lcd_Init:00000000000002ec .LBE596
     /tmp/ccIfjRGV.s:2288   .text.Lcd_Init:00000000000002f0 .LBB598
     /tmp/ccIfjRGV.s:2300   .text.Lcd_Init:00000000000002f8 .LBE598
     /tmp/ccIfjRGV.s:2270   .text.Lcd_Init:00000000000002e8 .LBE585
     /tmp/ccIfjRGV.s:2280   .text.Lcd_Init:00000000000002ec .LBB597
     /tmp/ccIfjRGV.s:2287   .text.Lcd_Init:00000000000002f0 .LBE597
     /tmp/ccIfjRGV.s:2303   .text.Lcd_Init:00000000000002f8 .LBB599
     /tmp/ccIfjRGV.s:2333   .text.Lcd_Init:0000000000000324 .LBE599
     /tmp/ccIfjRGV.s:2346   .text.Lcd_Init:0000000000000334 .LBB611
     /tmp/ccIfjRGV.s:2354   .text.Lcd_Init:0000000000000338 .LBE611
     /tmp/ccIfjRGV.s:2363   .text.Lcd_Init:000000000000033c .LBB613
     /tmp/ccIfjRGV.s:2375   .text.Lcd_Init:0000000000000344 .LBE613
     /tmp/ccIfjRGV.s:2345   .text.Lcd_Init:0000000000000334 .LBE600
     /tmp/ccIfjRGV.s:2355   .text.Lcd_Init:0000000000000338 .LBB612
     /tmp/ccIfjRGV.s:2362   .text.Lcd_Init:000000000000033c .LBE612
     /tmp/ccIfjRGV.s:2378   .text.Lcd_Init:0000000000000344 .LBB614
     /tmp/ccIfjRGV.s:2408   .text.Lcd_Init:0000000000000370 .LBE614
     /tmp/ccIfjRGV.s:2421   .text.Lcd_Init:0000000000000380 .LBB626
     /tmp/ccIfjRGV.s:2429   .text.Lcd_Init:0000000000000384 .LBE626
     /tmp/ccIfjRGV.s:2438   .text.Lcd_Init:0000000000000388 .LBB628
     /tmp/ccIfjRGV.s:2450   .text.Lcd_Init:0000000000000390 .LBE628
     /tmp/ccIfjRGV.s:2420   .text.Lcd_Init:0000000000000380 .LBE615
     /tmp/ccIfjRGV.s:2430   .text.Lcd_Init:0000000000000384 .LBB627
     /tmp/ccIfjRGV.s:2437   .text.Lcd_Init:0000000000000388 .LBE627
     /tmp/ccIfjRGV.s:2453   .text.Lcd_Init:0000000000000390 .LBB629
     /tmp/ccIfjRGV.s:2483   .text.Lcd_Init:00000000000003bc .LBE629
GAS LISTING /tmp/ccIfjRGV.s 			page 344


     /tmp/ccIfjRGV.s:2496   .text.Lcd_Init:00000000000003cc .LBB641
     /tmp/ccIfjRGV.s:2504   .text.Lcd_Init:00000000000003d0 .LBE641
     /tmp/ccIfjRGV.s:2513   .text.Lcd_Init:00000000000003d4 .LBB643
     /tmp/ccIfjRGV.s:2525   .text.Lcd_Init:00000000000003dc .LBE643
     /tmp/ccIfjRGV.s:2495   .text.Lcd_Init:00000000000003cc .LBE630
     /tmp/ccIfjRGV.s:2505   .text.Lcd_Init:00000000000003d0 .LBB642
     /tmp/ccIfjRGV.s:2512   .text.Lcd_Init:00000000000003d4 .LBE642
     /tmp/ccIfjRGV.s:2528   .text.Lcd_Init:00000000000003dc .LBB644
     /tmp/ccIfjRGV.s:2558   .text.Lcd_Init:0000000000000408 .LBE644
     /tmp/ccIfjRGV.s:2571   .text.Lcd_Init:0000000000000418 .LBB656
     /tmp/ccIfjRGV.s:2579   .text.Lcd_Init:000000000000041c .LBE656
     /tmp/ccIfjRGV.s:2588   .text.Lcd_Init:0000000000000420 .LBB658
     /tmp/ccIfjRGV.s:2600   .text.Lcd_Init:0000000000000428 .LBE658
     /tmp/ccIfjRGV.s:2570   .text.Lcd_Init:0000000000000418 .LBE645
     /tmp/ccIfjRGV.s:2580   .text.Lcd_Init:000000000000041c .LBB657
     /tmp/ccIfjRGV.s:2587   .text.Lcd_Init:0000000000000420 .LBE657
     /tmp/ccIfjRGV.s:2603   .text.Lcd_Init:0000000000000428 .LBB659
     /tmp/ccIfjRGV.s:2633   .text.Lcd_Init:0000000000000454 .LBE659
     /tmp/ccIfjRGV.s:2646   .text.Lcd_Init:0000000000000464 .LBB671
     /tmp/ccIfjRGV.s:2654   .text.Lcd_Init:0000000000000468 .LBE671
     /tmp/ccIfjRGV.s:2663   .text.Lcd_Init:000000000000046c .LBB673
     /tmp/ccIfjRGV.s:2675   .text.Lcd_Init:0000000000000474 .LBE673
     /tmp/ccIfjRGV.s:2645   .text.Lcd_Init:0000000000000464 .LBE660
     /tmp/ccIfjRGV.s:2655   .text.Lcd_Init:0000000000000468 .LBB672
     /tmp/ccIfjRGV.s:2662   .text.Lcd_Init:000000000000046c .LBE672
     /tmp/ccIfjRGV.s:2678   .text.Lcd_Init:0000000000000474 .LBB674
     /tmp/ccIfjRGV.s:2708   .text.Lcd_Init:00000000000004a0 .LBE674
     /tmp/ccIfjRGV.s:2721   .text.Lcd_Init:00000000000004b0 .LBB686
     /tmp/ccIfjRGV.s:2729   .text.Lcd_Init:00000000000004b4 .LBE686
     /tmp/ccIfjRGV.s:2738   .text.Lcd_Init:00000000000004b8 .LBB688
     /tmp/ccIfjRGV.s:2750   .text.Lcd_Init:00000000000004c0 .LBE688
     /tmp/ccIfjRGV.s:2720   .text.Lcd_Init:00000000000004b0 .LBE675
     /tmp/ccIfjRGV.s:2730   .text.Lcd_Init:00000000000004b4 .LBB687
     /tmp/ccIfjRGV.s:2737   .text.Lcd_Init:00000000000004b8 .LBE687
     /tmp/ccIfjRGV.s:2753   .text.Lcd_Init:00000000000004c0 .LBB689
     /tmp/ccIfjRGV.s:2783   .text.Lcd_Init:00000000000004ec .LBE689
     /tmp/ccIfjRGV.s:2796   .text.Lcd_Init:00000000000004fc .LBB701
     /tmp/ccIfjRGV.s:2804   .text.Lcd_Init:0000000000000500 .LBE701
     /tmp/ccIfjRGV.s:2813   .text.Lcd_Init:0000000000000504 .LBB703
     /tmp/ccIfjRGV.s:2825   .text.Lcd_Init:000000000000050c .LBE703
     /tmp/ccIfjRGV.s:2795   .text.Lcd_Init:00000000000004fc .LBE690
     /tmp/ccIfjRGV.s:2805   .text.Lcd_Init:0000000000000500 .LBB702
     /tmp/ccIfjRGV.s:2812   .text.Lcd_Init:0000000000000504 .LBE702
     /tmp/ccIfjRGV.s:2828   .text.Lcd_Init:000000000000050c .LBB704
     /tmp/ccIfjRGV.s:2858   .text.Lcd_Init:0000000000000538 .LBE704
     /tmp/ccIfjRGV.s:2871   .text.Lcd_Init:0000000000000548 .LBB716
     /tmp/ccIfjRGV.s:2879   .text.Lcd_Init:000000000000054c .LBE716
     /tmp/ccIfjRGV.s:2888   .text.Lcd_Init:0000000000000550 .LBB718
     /tmp/ccIfjRGV.s:2900   .text.Lcd_Init:0000000000000558 .LBE718
     /tmp/ccIfjRGV.s:2870   .text.Lcd_Init:0000000000000548 .LBE705
     /tmp/ccIfjRGV.s:2880   .text.Lcd_Init:000000000000054c .LBB717
     /tmp/ccIfjRGV.s:2887   .text.Lcd_Init:0000000000000550 .LBE717
     /tmp/ccIfjRGV.s:2903   .text.Lcd_Init:0000000000000558 .LBB719
     /tmp/ccIfjRGV.s:2933   .text.Lcd_Init:0000000000000584 .LBE719
     /tmp/ccIfjRGV.s:2946   .text.Lcd_Init:0000000000000594 .LBB731
     /tmp/ccIfjRGV.s:2954   .text.Lcd_Init:0000000000000598 .LBE731
     /tmp/ccIfjRGV.s:2963   .text.Lcd_Init:000000000000059c .LBB733
GAS LISTING /tmp/ccIfjRGV.s 			page 345


     /tmp/ccIfjRGV.s:2975   .text.Lcd_Init:00000000000005a4 .LBE733
     /tmp/ccIfjRGV.s:2945   .text.Lcd_Init:0000000000000594 .LBE720
     /tmp/ccIfjRGV.s:2955   .text.Lcd_Init:0000000000000598 .LBB732
     /tmp/ccIfjRGV.s:2962   .text.Lcd_Init:000000000000059c .LBE732
     /tmp/ccIfjRGV.s:2978   .text.Lcd_Init:00000000000005a4 .LBB734
     /tmp/ccIfjRGV.s:3008   .text.Lcd_Init:00000000000005d0 .LBE734
     /tmp/ccIfjRGV.s:3021   .text.Lcd_Init:00000000000005e0 .LBB746
     /tmp/ccIfjRGV.s:3029   .text.Lcd_Init:00000000000005e4 .LBE746
     /tmp/ccIfjRGV.s:3038   .text.Lcd_Init:00000000000005e8 .LBB748
     /tmp/ccIfjRGV.s:3050   .text.Lcd_Init:00000000000005f0 .LBE748
     /tmp/ccIfjRGV.s:3020   .text.Lcd_Init:00000000000005e0 .LBE735
     /tmp/ccIfjRGV.s:3030   .text.Lcd_Init:00000000000005e4 .LBB747
     /tmp/ccIfjRGV.s:3037   .text.Lcd_Init:00000000000005e8 .LBE747
     /tmp/ccIfjRGV.s:3053   .text.Lcd_Init:00000000000005f0 .LBB749
     /tmp/ccIfjRGV.s:3083   .text.Lcd_Init:000000000000061c .LBE749
     /tmp/ccIfjRGV.s:3096   .text.Lcd_Init:000000000000062c .LBB761
     /tmp/ccIfjRGV.s:3104   .text.Lcd_Init:0000000000000630 .LBE761
     /tmp/ccIfjRGV.s:3113   .text.Lcd_Init:0000000000000634 .LBB763
     /tmp/ccIfjRGV.s:3125   .text.Lcd_Init:000000000000063c .LBE763
     /tmp/ccIfjRGV.s:3095   .text.Lcd_Init:000000000000062c .LBE750
     /tmp/ccIfjRGV.s:3105   .text.Lcd_Init:0000000000000630 .LBB762
     /tmp/ccIfjRGV.s:3112   .text.Lcd_Init:0000000000000634 .LBE762
     /tmp/ccIfjRGV.s:3128   .text.Lcd_Init:000000000000063c .LBB764
     /tmp/ccIfjRGV.s:3158   .text.Lcd_Init:0000000000000668 .LBE764
     /tmp/ccIfjRGV.s:3171   .text.Lcd_Init:0000000000000678 .LBB776
     /tmp/ccIfjRGV.s:3179   .text.Lcd_Init:000000000000067c .LBE776
     /tmp/ccIfjRGV.s:3188   .text.Lcd_Init:0000000000000680 .LBB778
     /tmp/ccIfjRGV.s:3200   .text.Lcd_Init:0000000000000688 .LBE778
     /tmp/ccIfjRGV.s:3170   .text.Lcd_Init:0000000000000678 .LBE765
     /tmp/ccIfjRGV.s:3180   .text.Lcd_Init:000000000000067c .LBB777
     /tmp/ccIfjRGV.s:3187   .text.Lcd_Init:0000000000000680 .LBE777
     /tmp/ccIfjRGV.s:3203   .text.Lcd_Init:0000000000000688 .LBB779
     /tmp/ccIfjRGV.s:3233   .text.Lcd_Init:00000000000006b4 .LBE779
     /tmp/ccIfjRGV.s:3246   .text.Lcd_Init:00000000000006c4 .LBB791
     /tmp/ccIfjRGV.s:3254   .text.Lcd_Init:00000000000006c8 .LBE791
     /tmp/ccIfjRGV.s:3263   .text.Lcd_Init:00000000000006cc .LBB793
     /tmp/ccIfjRGV.s:3275   .text.Lcd_Init:00000000000006d4 .LBE793
     /tmp/ccIfjRGV.s:3245   .text.Lcd_Init:00000000000006c4 .LBE780
     /tmp/ccIfjRGV.s:3255   .text.Lcd_Init:00000000000006c8 .LBB792
     /tmp/ccIfjRGV.s:3262   .text.Lcd_Init:00000000000006cc .LBE792
     /tmp/ccIfjRGV.s:3278   .text.Lcd_Init:00000000000006d4 .LBB794
     /tmp/ccIfjRGV.s:3308   .text.Lcd_Init:0000000000000700 .LBE794
     /tmp/ccIfjRGV.s:3321   .text.Lcd_Init:0000000000000710 .LBB806
     /tmp/ccIfjRGV.s:3329   .text.Lcd_Init:0000000000000714 .LBE806
     /tmp/ccIfjRGV.s:3338   .text.Lcd_Init:0000000000000718 .LBB808
     /tmp/ccIfjRGV.s:3350   .text.Lcd_Init:0000000000000720 .LBE808
     /tmp/ccIfjRGV.s:3320   .text.Lcd_Init:0000000000000710 .LBE795
     /tmp/ccIfjRGV.s:3330   .text.Lcd_Init:0000000000000714 .LBB807
     /tmp/ccIfjRGV.s:3337   .text.Lcd_Init:0000000000000718 .LBE807
     /tmp/ccIfjRGV.s:3353   .text.Lcd_Init:0000000000000720 .LBB809
     /tmp/ccIfjRGV.s:3383   .text.Lcd_Init:000000000000074c .LBE809
     /tmp/ccIfjRGV.s:3396   .text.Lcd_Init:000000000000075c .LBB821
     /tmp/ccIfjRGV.s:3404   .text.Lcd_Init:0000000000000760 .LBE821
     /tmp/ccIfjRGV.s:3413   .text.Lcd_Init:0000000000000764 .LBB823
     /tmp/ccIfjRGV.s:3425   .text.Lcd_Init:000000000000076c .LBE823
     /tmp/ccIfjRGV.s:3395   .text.Lcd_Init:000000000000075c .LBE810
     /tmp/ccIfjRGV.s:3405   .text.Lcd_Init:0000000000000760 .LBB822
GAS LISTING /tmp/ccIfjRGV.s 			page 346


     /tmp/ccIfjRGV.s:3412   .text.Lcd_Init:0000000000000764 .LBE822
     /tmp/ccIfjRGV.s:3428   .text.Lcd_Init:000000000000076c .LBB824
     /tmp/ccIfjRGV.s:3458   .text.Lcd_Init:0000000000000798 .LBE824
     /tmp/ccIfjRGV.s:3471   .text.Lcd_Init:00000000000007a8 .LBB836
     /tmp/ccIfjRGV.s:3479   .text.Lcd_Init:00000000000007ac .LBE836
     /tmp/ccIfjRGV.s:3488   .text.Lcd_Init:00000000000007b0 .LBB838
     /tmp/ccIfjRGV.s:3500   .text.Lcd_Init:00000000000007b8 .LBE838
     /tmp/ccIfjRGV.s:3470   .text.Lcd_Init:00000000000007a8 .LBE825
     /tmp/ccIfjRGV.s:3480   .text.Lcd_Init:00000000000007ac .LBB837
     /tmp/ccIfjRGV.s:3487   .text.Lcd_Init:00000000000007b0 .LBE837
     /tmp/ccIfjRGV.s:3503   .text.Lcd_Init:00000000000007b8 .LBB839
     /tmp/ccIfjRGV.s:3533   .text.Lcd_Init:00000000000007e4 .LBE839
     /tmp/ccIfjRGV.s:3546   .text.Lcd_Init:00000000000007f4 .LBB851
     /tmp/ccIfjRGV.s:3554   .text.Lcd_Init:00000000000007f8 .LBE851
     /tmp/ccIfjRGV.s:3563   .text.Lcd_Init:00000000000007fc .LBB853
     /tmp/ccIfjRGV.s:3575   .text.Lcd_Init:0000000000000804 .LBE853
     /tmp/ccIfjRGV.s:3545   .text.Lcd_Init:00000000000007f4 .LBE840
     /tmp/ccIfjRGV.s:3555   .text.Lcd_Init:00000000000007f8 .LBB852
     /tmp/ccIfjRGV.s:3562   .text.Lcd_Init:00000000000007fc .LBE852
     /tmp/ccIfjRGV.s:3578   .text.Lcd_Init:0000000000000804 .LBB854
     /tmp/ccIfjRGV.s:3608   .text.Lcd_Init:0000000000000830 .LBE854
     /tmp/ccIfjRGV.s:3621   .text.Lcd_Init:0000000000000840 .LBB866
     /tmp/ccIfjRGV.s:3629   .text.Lcd_Init:0000000000000844 .LBE866
     /tmp/ccIfjRGV.s:3638   .text.Lcd_Init:0000000000000848 .LBB868
     /tmp/ccIfjRGV.s:3650   .text.Lcd_Init:0000000000000850 .LBE868
     /tmp/ccIfjRGV.s:3620   .text.Lcd_Init:0000000000000840 .LBE855
     /tmp/ccIfjRGV.s:3630   .text.Lcd_Init:0000000000000844 .LBB867
     /tmp/ccIfjRGV.s:3637   .text.Lcd_Init:0000000000000848 .LBE867
     /tmp/ccIfjRGV.s:3653   .text.Lcd_Init:0000000000000850 .LBB869
     /tmp/ccIfjRGV.s:3683   .text.Lcd_Init:000000000000087c .LBE869
     /tmp/ccIfjRGV.s:3696   .text.Lcd_Init:000000000000088c .LBB881
     /tmp/ccIfjRGV.s:3704   .text.Lcd_Init:0000000000000890 .LBE881
     /tmp/ccIfjRGV.s:3713   .text.Lcd_Init:0000000000000894 .LBB883
     /tmp/ccIfjRGV.s:3725   .text.Lcd_Init:000000000000089c .LBE883
     /tmp/ccIfjRGV.s:3695   .text.Lcd_Init:000000000000088c .LBE870
     /tmp/ccIfjRGV.s:3705   .text.Lcd_Init:0000000000000890 .LBB882
     /tmp/ccIfjRGV.s:3712   .text.Lcd_Init:0000000000000894 .LBE882
     /tmp/ccIfjRGV.s:3728   .text.Lcd_Init:000000000000089c .LBB884
     /tmp/ccIfjRGV.s:3758   .text.Lcd_Init:00000000000008c8 .LBE884
     /tmp/ccIfjRGV.s:3771   .text.Lcd_Init:00000000000008d8 .LBB896
     /tmp/ccIfjRGV.s:3779   .text.Lcd_Init:00000000000008dc .LBE896
     /tmp/ccIfjRGV.s:3788   .text.Lcd_Init:00000000000008e0 .LBB898
     /tmp/ccIfjRGV.s:3800   .text.Lcd_Init:00000000000008e8 .LBE898
     /tmp/ccIfjRGV.s:3770   .text.Lcd_Init:00000000000008d8 .LBE885
     /tmp/ccIfjRGV.s:3780   .text.Lcd_Init:00000000000008dc .LBB897
     /tmp/ccIfjRGV.s:3787   .text.Lcd_Init:00000000000008e0 .LBE897
     /tmp/ccIfjRGV.s:3803   .text.Lcd_Init:00000000000008e8 .LBB899
     /tmp/ccIfjRGV.s:3833   .text.Lcd_Init:0000000000000914 .LBE899
     /tmp/ccIfjRGV.s:3846   .text.Lcd_Init:0000000000000924 .LBB911
     /tmp/ccIfjRGV.s:3854   .text.Lcd_Init:0000000000000928 .LBE911
     /tmp/ccIfjRGV.s:3863   .text.Lcd_Init:000000000000092c .LBB913
     /tmp/ccIfjRGV.s:3875   .text.Lcd_Init:0000000000000934 .LBE913
     /tmp/ccIfjRGV.s:3845   .text.Lcd_Init:0000000000000924 .LBE900
     /tmp/ccIfjRGV.s:3855   .text.Lcd_Init:0000000000000928 .LBB912
     /tmp/ccIfjRGV.s:3862   .text.Lcd_Init:000000000000092c .LBE912
     /tmp/ccIfjRGV.s:3878   .text.Lcd_Init:0000000000000934 .LBB914
     /tmp/ccIfjRGV.s:3908   .text.Lcd_Init:0000000000000960 .LBE914
GAS LISTING /tmp/ccIfjRGV.s 			page 347


     /tmp/ccIfjRGV.s:3921   .text.Lcd_Init:0000000000000970 .LBB926
     /tmp/ccIfjRGV.s:3929   .text.Lcd_Init:0000000000000974 .LBE926
     /tmp/ccIfjRGV.s:3938   .text.Lcd_Init:0000000000000978 .LBB928
     /tmp/ccIfjRGV.s:3950   .text.Lcd_Init:0000000000000980 .LBE928
     /tmp/ccIfjRGV.s:3920   .text.Lcd_Init:0000000000000970 .LBE915
     /tmp/ccIfjRGV.s:3930   .text.Lcd_Init:0000000000000974 .LBB927
     /tmp/ccIfjRGV.s:3937   .text.Lcd_Init:0000000000000978 .LBE927
     /tmp/ccIfjRGV.s:3953   .text.Lcd_Init:0000000000000980 .LBB929
     /tmp/ccIfjRGV.s:3983   .text.Lcd_Init:00000000000009ac .LBE929
     /tmp/ccIfjRGV.s:3996   .text.Lcd_Init:00000000000009bc .LBB941
     /tmp/ccIfjRGV.s:4004   .text.Lcd_Init:00000000000009c0 .LBE941
     /tmp/ccIfjRGV.s:4013   .text.Lcd_Init:00000000000009c4 .LBB943
     /tmp/ccIfjRGV.s:4025   .text.Lcd_Init:00000000000009cc .LBE943
     /tmp/ccIfjRGV.s:3995   .text.Lcd_Init:00000000000009bc .LBE930
     /tmp/ccIfjRGV.s:4005   .text.Lcd_Init:00000000000009c0 .LBB942
     /tmp/ccIfjRGV.s:4012   .text.Lcd_Init:00000000000009c4 .LBE942
     /tmp/ccIfjRGV.s:4028   .text.Lcd_Init:00000000000009cc .LBB944
     /tmp/ccIfjRGV.s:4058   .text.Lcd_Init:00000000000009f8 .LBE944
     /tmp/ccIfjRGV.s:4071   .text.Lcd_Init:0000000000000a08 .LBB956
     /tmp/ccIfjRGV.s:4079   .text.Lcd_Init:0000000000000a0c .LBE956
     /tmp/ccIfjRGV.s:4088   .text.Lcd_Init:0000000000000a10 .LBB958
     /tmp/ccIfjRGV.s:4100   .text.Lcd_Init:0000000000000a18 .LBE958
     /tmp/ccIfjRGV.s:4070   .text.Lcd_Init:0000000000000a08 .LBE945
     /tmp/ccIfjRGV.s:4080   .text.Lcd_Init:0000000000000a0c .LBB957
     /tmp/ccIfjRGV.s:4087   .text.Lcd_Init:0000000000000a10 .LBE957
     /tmp/ccIfjRGV.s:4103   .text.Lcd_Init:0000000000000a18 .LBB959
     /tmp/ccIfjRGV.s:4133   .text.Lcd_Init:0000000000000a44 .LBE959
     /tmp/ccIfjRGV.s:4146   .text.Lcd_Init:0000000000000a54 .LBB971
     /tmp/ccIfjRGV.s:4154   .text.Lcd_Init:0000000000000a58 .LBE971
     /tmp/ccIfjRGV.s:4163   .text.Lcd_Init:0000000000000a5c .LBB973
     /tmp/ccIfjRGV.s:4175   .text.Lcd_Init:0000000000000a64 .LBE973
     /tmp/ccIfjRGV.s:4145   .text.Lcd_Init:0000000000000a54 .LBE960
     /tmp/ccIfjRGV.s:4155   .text.Lcd_Init:0000000000000a58 .LBB972
     /tmp/ccIfjRGV.s:4162   .text.Lcd_Init:0000000000000a5c .LBE972
     /tmp/ccIfjRGV.s:4178   .text.Lcd_Init:0000000000000a64 .LBB974
     /tmp/ccIfjRGV.s:4208   .text.Lcd_Init:0000000000000a90 .LBE974
     /tmp/ccIfjRGV.s:4221   .text.Lcd_Init:0000000000000aa0 .LBB986
     /tmp/ccIfjRGV.s:4229   .text.Lcd_Init:0000000000000aa4 .LBE986
     /tmp/ccIfjRGV.s:4238   .text.Lcd_Init:0000000000000aa8 .LBB988
     /tmp/ccIfjRGV.s:4250   .text.Lcd_Init:0000000000000ab0 .LBE988
     /tmp/ccIfjRGV.s:4220   .text.Lcd_Init:0000000000000aa0 .LBE975
     /tmp/ccIfjRGV.s:4230   .text.Lcd_Init:0000000000000aa4 .LBB987
     /tmp/ccIfjRGV.s:4237   .text.Lcd_Init:0000000000000aa8 .LBE987
     /tmp/ccIfjRGV.s:4253   .text.Lcd_Init:0000000000000ab0 .LBB989
     /tmp/ccIfjRGV.s:4283   .text.Lcd_Init:0000000000000adc .LBE989
     /tmp/ccIfjRGV.s:4296   .text.Lcd_Init:0000000000000aec .LBB1001
     /tmp/ccIfjRGV.s:4304   .text.Lcd_Init:0000000000000af0 .LBE1001
     /tmp/ccIfjRGV.s:4313   .text.Lcd_Init:0000000000000af4 .LBB1003
     /tmp/ccIfjRGV.s:4325   .text.Lcd_Init:0000000000000afc .LBE1003
     /tmp/ccIfjRGV.s:4295   .text.Lcd_Init:0000000000000aec .LBE990
     /tmp/ccIfjRGV.s:4305   .text.Lcd_Init:0000000000000af0 .LBB1002
     /tmp/ccIfjRGV.s:4312   .text.Lcd_Init:0000000000000af4 .LBE1002
     /tmp/ccIfjRGV.s:4328   .text.Lcd_Init:0000000000000afc .LBB1004
     /tmp/ccIfjRGV.s:4358   .text.Lcd_Init:0000000000000b28 .LBE1004
     /tmp/ccIfjRGV.s:4371   .text.Lcd_Init:0000000000000b38 .LBB1016
     /tmp/ccIfjRGV.s:4379   .text.Lcd_Init:0000000000000b3c .LBE1016
     /tmp/ccIfjRGV.s:4388   .text.Lcd_Init:0000000000000b40 .LBB1018
GAS LISTING /tmp/ccIfjRGV.s 			page 348


     /tmp/ccIfjRGV.s:4400   .text.Lcd_Init:0000000000000b48 .LBE1018
     /tmp/ccIfjRGV.s:4370   .text.Lcd_Init:0000000000000b38 .LBE1005
     /tmp/ccIfjRGV.s:4380   .text.Lcd_Init:0000000000000b3c .LBB1017
     /tmp/ccIfjRGV.s:4387   .text.Lcd_Init:0000000000000b40 .LBE1017
     /tmp/ccIfjRGV.s:4403   .text.Lcd_Init:0000000000000b48 .LBB1019
     /tmp/ccIfjRGV.s:4433   .text.Lcd_Init:0000000000000b74 .LBE1019
     /tmp/ccIfjRGV.s:4446   .text.Lcd_Init:0000000000000b84 .LBB1031
     /tmp/ccIfjRGV.s:4454   .text.Lcd_Init:0000000000000b88 .LBE1031
     /tmp/ccIfjRGV.s:4463   .text.Lcd_Init:0000000000000b8c .LBB1033
     /tmp/ccIfjRGV.s:4475   .text.Lcd_Init:0000000000000b94 .LBE1033
     /tmp/ccIfjRGV.s:4445   .text.Lcd_Init:0000000000000b84 .LBE1020
     /tmp/ccIfjRGV.s:4455   .text.Lcd_Init:0000000000000b88 .LBB1032
     /tmp/ccIfjRGV.s:4462   .text.Lcd_Init:0000000000000b8c .LBE1032
     /tmp/ccIfjRGV.s:4478   .text.Lcd_Init:0000000000000b94 .LBB1034
     /tmp/ccIfjRGV.s:4508   .text.Lcd_Init:0000000000000bc0 .LBE1034
     /tmp/ccIfjRGV.s:4521   .text.Lcd_Init:0000000000000bd0 .LBB1046
     /tmp/ccIfjRGV.s:4529   .text.Lcd_Init:0000000000000bd4 .LBE1046
     /tmp/ccIfjRGV.s:4538   .text.Lcd_Init:0000000000000bd8 .LBB1048
     /tmp/ccIfjRGV.s:4550   .text.Lcd_Init:0000000000000be0 .LBE1048
     /tmp/ccIfjRGV.s:4520   .text.Lcd_Init:0000000000000bd0 .LBE1035
     /tmp/ccIfjRGV.s:4530   .text.Lcd_Init:0000000000000bd4 .LBB1047
     /tmp/ccIfjRGV.s:4537   .text.Lcd_Init:0000000000000bd8 .LBE1047
     /tmp/ccIfjRGV.s:4553   .text.Lcd_Init:0000000000000be0 .LBB1049
     /tmp/ccIfjRGV.s:4583   .text.Lcd_Init:0000000000000c0c .LBE1049
     /tmp/ccIfjRGV.s:4596   .text.Lcd_Init:0000000000000c1c .LBB1061
     /tmp/ccIfjRGV.s:4604   .text.Lcd_Init:0000000000000c20 .LBE1061
     /tmp/ccIfjRGV.s:4613   .text.Lcd_Init:0000000000000c24 .LBB1063
     /tmp/ccIfjRGV.s:4625   .text.Lcd_Init:0000000000000c2c .LBE1063
     /tmp/ccIfjRGV.s:4595   .text.Lcd_Init:0000000000000c1c .LBE1050
     /tmp/ccIfjRGV.s:4605   .text.Lcd_Init:0000000000000c20 .LBB1062
     /tmp/ccIfjRGV.s:4612   .text.Lcd_Init:0000000000000c24 .LBE1062
     /tmp/ccIfjRGV.s:4628   .text.Lcd_Init:0000000000000c2c .LBB1064
     /tmp/ccIfjRGV.s:4658   .text.Lcd_Init:0000000000000c58 .LBE1064
     /tmp/ccIfjRGV.s:4671   .text.Lcd_Init:0000000000000c68 .LBB1076
     /tmp/ccIfjRGV.s:4679   .text.Lcd_Init:0000000000000c6c .LBE1076
     /tmp/ccIfjRGV.s:4688   .text.Lcd_Init:0000000000000c70 .LBB1078
     /tmp/ccIfjRGV.s:4700   .text.Lcd_Init:0000000000000c78 .LBE1078
     /tmp/ccIfjRGV.s:4670   .text.Lcd_Init:0000000000000c68 .LBE1065
     /tmp/ccIfjRGV.s:4680   .text.Lcd_Init:0000000000000c6c .LBB1077
     /tmp/ccIfjRGV.s:4687   .text.Lcd_Init:0000000000000c70 .LBE1077
     /tmp/ccIfjRGV.s:4703   .text.Lcd_Init:0000000000000c78 .LBB1079
     /tmp/ccIfjRGV.s:4733   .text.Lcd_Init:0000000000000ca4 .LBE1079
     /tmp/ccIfjRGV.s:4746   .text.Lcd_Init:0000000000000cb4 .LBB1091
     /tmp/ccIfjRGV.s:4754   .text.Lcd_Init:0000000000000cb8 .LBE1091
     /tmp/ccIfjRGV.s:4763   .text.Lcd_Init:0000000000000cbc .LBB1093
     /tmp/ccIfjRGV.s:4775   .text.Lcd_Init:0000000000000cc4 .LBE1093
     /tmp/ccIfjRGV.s:4745   .text.Lcd_Init:0000000000000cb4 .LBE1080
     /tmp/ccIfjRGV.s:4755   .text.Lcd_Init:0000000000000cb8 .LBB1092
     /tmp/ccIfjRGV.s:4762   .text.Lcd_Init:0000000000000cbc .LBE1092
     /tmp/ccIfjRGV.s:4778   .text.Lcd_Init:0000000000000cc4 .LBB1094
     /tmp/ccIfjRGV.s:4808   .text.Lcd_Init:0000000000000cf0 .LBE1094
     /tmp/ccIfjRGV.s:4821   .text.Lcd_Init:0000000000000d00 .LBB1106
     /tmp/ccIfjRGV.s:4829   .text.Lcd_Init:0000000000000d04 .LBE1106
     /tmp/ccIfjRGV.s:4838   .text.Lcd_Init:0000000000000d08 .LBB1108
     /tmp/ccIfjRGV.s:4850   .text.Lcd_Init:0000000000000d10 .LBE1108
     /tmp/ccIfjRGV.s:4820   .text.Lcd_Init:0000000000000d00 .LBE1095
     /tmp/ccIfjRGV.s:4830   .text.Lcd_Init:0000000000000d04 .LBB1107
GAS LISTING /tmp/ccIfjRGV.s 			page 349


     /tmp/ccIfjRGV.s:4837   .text.Lcd_Init:0000000000000d08 .LBE1107
     /tmp/ccIfjRGV.s:4853   .text.Lcd_Init:0000000000000d10 .LBB1109
     /tmp/ccIfjRGV.s:4883   .text.Lcd_Init:0000000000000d3c .LBE1109
     /tmp/ccIfjRGV.s:4896   .text.Lcd_Init:0000000000000d4c .LBB1121
     /tmp/ccIfjRGV.s:4904   .text.Lcd_Init:0000000000000d50 .LBE1121
     /tmp/ccIfjRGV.s:4913   .text.Lcd_Init:0000000000000d54 .LBB1123
     /tmp/ccIfjRGV.s:4925   .text.Lcd_Init:0000000000000d5c .LBE1123
     /tmp/ccIfjRGV.s:4895   .text.Lcd_Init:0000000000000d4c .LBE1110
     /tmp/ccIfjRGV.s:4905   .text.Lcd_Init:0000000000000d50 .LBB1122
     /tmp/ccIfjRGV.s:4912   .text.Lcd_Init:0000000000000d54 .LBE1122
     /tmp/ccIfjRGV.s:4928   .text.Lcd_Init:0000000000000d5c .LBB1124
     /tmp/ccIfjRGV.s:4958   .text.Lcd_Init:0000000000000d88 .LBE1124
     /tmp/ccIfjRGV.s:4971   .text.Lcd_Init:0000000000000d98 .LBB1136
     /tmp/ccIfjRGV.s:4979   .text.Lcd_Init:0000000000000d9c .LBE1136
     /tmp/ccIfjRGV.s:4988   .text.Lcd_Init:0000000000000da0 .LBB1138
     /tmp/ccIfjRGV.s:5000   .text.Lcd_Init:0000000000000da8 .LBE1138
     /tmp/ccIfjRGV.s:4970   .text.Lcd_Init:0000000000000d98 .LBE1125
     /tmp/ccIfjRGV.s:4980   .text.Lcd_Init:0000000000000d9c .LBB1137
     /tmp/ccIfjRGV.s:4987   .text.Lcd_Init:0000000000000da0 .LBE1137
     /tmp/ccIfjRGV.s:5003   .text.Lcd_Init:0000000000000da8 .LBB1139
     /tmp/ccIfjRGV.s:5033   .text.Lcd_Init:0000000000000dd4 .LBE1139
     /tmp/ccIfjRGV.s:5046   .text.Lcd_Init:0000000000000de4 .LBB1151
     /tmp/ccIfjRGV.s:5054   .text.Lcd_Init:0000000000000de8 .LBE1151
     /tmp/ccIfjRGV.s:5063   .text.Lcd_Init:0000000000000dec .LBB1153
     /tmp/ccIfjRGV.s:5075   .text.Lcd_Init:0000000000000df4 .LBE1153
     /tmp/ccIfjRGV.s:5045   .text.Lcd_Init:0000000000000de4 .LBE1140
     /tmp/ccIfjRGV.s:5055   .text.Lcd_Init:0000000000000de8 .LBB1152
     /tmp/ccIfjRGV.s:5062   .text.Lcd_Init:0000000000000dec .LBE1152
     /tmp/ccIfjRGV.s:5078   .text.Lcd_Init:0000000000000df4 .LBB1154
     /tmp/ccIfjRGV.s:5108   .text.Lcd_Init:0000000000000e20 .LBE1154
     /tmp/ccIfjRGV.s:5121   .text.Lcd_Init:0000000000000e30 .LBB1166
     /tmp/ccIfjRGV.s:5129   .text.Lcd_Init:0000000000000e34 .LBE1166
     /tmp/ccIfjRGV.s:5138   .text.Lcd_Init:0000000000000e38 .LBB1168
     /tmp/ccIfjRGV.s:5150   .text.Lcd_Init:0000000000000e40 .LBE1168
     /tmp/ccIfjRGV.s:5120   .text.Lcd_Init:0000000000000e30 .LBE1155
     /tmp/ccIfjRGV.s:5130   .text.Lcd_Init:0000000000000e34 .LBB1167
     /tmp/ccIfjRGV.s:5137   .text.Lcd_Init:0000000000000e38 .LBE1167
     /tmp/ccIfjRGV.s:5153   .text.Lcd_Init:0000000000000e40 .LBB1169
     /tmp/ccIfjRGV.s:5183   .text.Lcd_Init:0000000000000e6c .LBE1169
     /tmp/ccIfjRGV.s:5196   .text.Lcd_Init:0000000000000e7c .LBB1181
     /tmp/ccIfjRGV.s:5204   .text.Lcd_Init:0000000000000e80 .LBE1181
     /tmp/ccIfjRGV.s:5213   .text.Lcd_Init:0000000000000e84 .LBB1183
     /tmp/ccIfjRGV.s:5225   .text.Lcd_Init:0000000000000e8c .LBE1183
     /tmp/ccIfjRGV.s:5195   .text.Lcd_Init:0000000000000e7c .LBE1170
     /tmp/ccIfjRGV.s:5205   .text.Lcd_Init:0000000000000e80 .LBB1182
     /tmp/ccIfjRGV.s:5212   .text.Lcd_Init:0000000000000e84 .LBE1182
     /tmp/ccIfjRGV.s:5228   .text.Lcd_Init:0000000000000e8c .LBB1184
     /tmp/ccIfjRGV.s:5258   .text.Lcd_Init:0000000000000eb8 .LBE1184
     /tmp/ccIfjRGV.s:5271   .text.Lcd_Init:0000000000000ec8 .LBB1196
     /tmp/ccIfjRGV.s:5279   .text.Lcd_Init:0000000000000ecc .LBE1196
     /tmp/ccIfjRGV.s:5288   .text.Lcd_Init:0000000000000ed0 .LBB1198
     /tmp/ccIfjRGV.s:5300   .text.Lcd_Init:0000000000000ed8 .LBE1198
     /tmp/ccIfjRGV.s:5270   .text.Lcd_Init:0000000000000ec8 .LBE1185
     /tmp/ccIfjRGV.s:5280   .text.Lcd_Init:0000000000000ecc .LBB1197
     /tmp/ccIfjRGV.s:5287   .text.Lcd_Init:0000000000000ed0 .LBE1197
     /tmp/ccIfjRGV.s:5303   .text.Lcd_Init:0000000000000ed8 .LBB1199
     /tmp/ccIfjRGV.s:5333   .text.Lcd_Init:0000000000000f04 .LBE1199
GAS LISTING /tmp/ccIfjRGV.s 			page 350


     /tmp/ccIfjRGV.s:5346   .text.Lcd_Init:0000000000000f14 .LBB1211
     /tmp/ccIfjRGV.s:5354   .text.Lcd_Init:0000000000000f18 .LBE1211
     /tmp/ccIfjRGV.s:5363   .text.Lcd_Init:0000000000000f1c .LBB1213
     /tmp/ccIfjRGV.s:5375   .text.Lcd_Init:0000000000000f24 .LBE1213
     /tmp/ccIfjRGV.s:5345   .text.Lcd_Init:0000000000000f14 .LBE1200
     /tmp/ccIfjRGV.s:5355   .text.Lcd_Init:0000000000000f18 .LBB1212
     /tmp/ccIfjRGV.s:5362   .text.Lcd_Init:0000000000000f1c .LBE1212
     /tmp/ccIfjRGV.s:5378   .text.Lcd_Init:0000000000000f24 .LBB1214
     /tmp/ccIfjRGV.s:5408   .text.Lcd_Init:0000000000000f50 .LBE1214
     /tmp/ccIfjRGV.s:5421   .text.Lcd_Init:0000000000000f60 .LBB1226
     /tmp/ccIfjRGV.s:5429   .text.Lcd_Init:0000000000000f64 .LBE1226
     /tmp/ccIfjRGV.s:5438   .text.Lcd_Init:0000000000000f68 .LBB1228
     /tmp/ccIfjRGV.s:5450   .text.Lcd_Init:0000000000000f70 .LBE1228
     /tmp/ccIfjRGV.s:5420   .text.Lcd_Init:0000000000000f60 .LBE1215
     /tmp/ccIfjRGV.s:5430   .text.Lcd_Init:0000000000000f64 .LBB1227
     /tmp/ccIfjRGV.s:5437   .text.Lcd_Init:0000000000000f68 .LBE1227
     /tmp/ccIfjRGV.s:5453   .text.Lcd_Init:0000000000000f70 .LBB1229
     /tmp/ccIfjRGV.s:5483   .text.Lcd_Init:0000000000000f9c .LBE1229
     /tmp/ccIfjRGV.s:5496   .text.Lcd_Init:0000000000000fac .LBB1241
     /tmp/ccIfjRGV.s:5504   .text.Lcd_Init:0000000000000fb0 .LBE1241
     /tmp/ccIfjRGV.s:5513   .text.Lcd_Init:0000000000000fb4 .LBB1243
     /tmp/ccIfjRGV.s:5525   .text.Lcd_Init:0000000000000fbc .LBE1243
     /tmp/ccIfjRGV.s:5495   .text.Lcd_Init:0000000000000fac .LBE1230
     /tmp/ccIfjRGV.s:5505   .text.Lcd_Init:0000000000000fb0 .LBB1242
     /tmp/ccIfjRGV.s:5512   .text.Lcd_Init:0000000000000fb4 .LBE1242
     /tmp/ccIfjRGV.s:5528   .text.Lcd_Init:0000000000000fbc .LBB1244
     /tmp/ccIfjRGV.s:5558   .text.Lcd_Init:0000000000000fe8 .LBE1244
     /tmp/ccIfjRGV.s:5571   .text.Lcd_Init:0000000000000ff8 .LBB1256
     /tmp/ccIfjRGV.s:5579   .text.Lcd_Init:0000000000000ffc .LBE1256
     /tmp/ccIfjRGV.s:5588   .text.Lcd_Init:0000000000001000 .LBB1258
     /tmp/ccIfjRGV.s:5600   .text.Lcd_Init:0000000000001008 .LBE1258
     /tmp/ccIfjRGV.s:5570   .text.Lcd_Init:0000000000000ff8 .LBE1245
     /tmp/ccIfjRGV.s:5580   .text.Lcd_Init:0000000000000ffc .LBB1257
     /tmp/ccIfjRGV.s:5587   .text.Lcd_Init:0000000000001000 .LBE1257
     /tmp/ccIfjRGV.s:5603   .text.Lcd_Init:0000000000001008 .LBB1259
     /tmp/ccIfjRGV.s:5633   .text.Lcd_Init:0000000000001034 .LBE1259
     /tmp/ccIfjRGV.s:5646   .text.Lcd_Init:0000000000001044 .LBB1271
     /tmp/ccIfjRGV.s:5654   .text.Lcd_Init:0000000000001048 .LBE1271
     /tmp/ccIfjRGV.s:5663   .text.Lcd_Init:000000000000104c .LBB1273
     /tmp/ccIfjRGV.s:5675   .text.Lcd_Init:0000000000001054 .LBE1273
     /tmp/ccIfjRGV.s:5645   .text.Lcd_Init:0000000000001044 .LBE1260
     /tmp/ccIfjRGV.s:5655   .text.Lcd_Init:0000000000001048 .LBB1272
     /tmp/ccIfjRGV.s:5662   .text.Lcd_Init:000000000000104c .LBE1272
     /tmp/ccIfjRGV.s:5678   .text.Lcd_Init:0000000000001054 .LBB1274
     /tmp/ccIfjRGV.s:5708   .text.Lcd_Init:0000000000001080 .LBE1274
     /tmp/ccIfjRGV.s:5721   .text.Lcd_Init:0000000000001090 .LBB1286
     /tmp/ccIfjRGV.s:5729   .text.Lcd_Init:0000000000001094 .LBE1286
     /tmp/ccIfjRGV.s:5738   .text.Lcd_Init:0000000000001098 .LBB1288
     /tmp/ccIfjRGV.s:5750   .text.Lcd_Init:00000000000010a0 .LBE1288
     /tmp/ccIfjRGV.s:5720   .text.Lcd_Init:0000000000001090 .LBE1275
     /tmp/ccIfjRGV.s:5730   .text.Lcd_Init:0000000000001094 .LBB1287
     /tmp/ccIfjRGV.s:5737   .text.Lcd_Init:0000000000001098 .LBE1287
     /tmp/ccIfjRGV.s:5753   .text.Lcd_Init:00000000000010a0 .LBB1289
     /tmp/ccIfjRGV.s:5783   .text.Lcd_Init:00000000000010cc .LBE1289
     /tmp/ccIfjRGV.s:5796   .text.Lcd_Init:00000000000010dc .LBB1301
     /tmp/ccIfjRGV.s:5804   .text.Lcd_Init:00000000000010e0 .LBE1301
     /tmp/ccIfjRGV.s:5813   .text.Lcd_Init:00000000000010e4 .LBB1303
GAS LISTING /tmp/ccIfjRGV.s 			page 351


     /tmp/ccIfjRGV.s:5825   .text.Lcd_Init:00000000000010ec .LBE1303
     /tmp/ccIfjRGV.s:5795   .text.Lcd_Init:00000000000010dc .LBE1290
     /tmp/ccIfjRGV.s:5805   .text.Lcd_Init:00000000000010e0 .LBB1302
     /tmp/ccIfjRGV.s:5812   .text.Lcd_Init:00000000000010e4 .LBE1302
     /tmp/ccIfjRGV.s:5828   .text.Lcd_Init:00000000000010ec .LBB1304
     /tmp/ccIfjRGV.s:5858   .text.Lcd_Init:0000000000001118 .LBE1304
     /tmp/ccIfjRGV.s:5871   .text.Lcd_Init:0000000000001128 .LBB1316
     /tmp/ccIfjRGV.s:5879   .text.Lcd_Init:000000000000112c .LBE1316
     /tmp/ccIfjRGV.s:5888   .text.Lcd_Init:0000000000001130 .LBB1318
     /tmp/ccIfjRGV.s:5900   .text.Lcd_Init:0000000000001138 .LBE1318
     /tmp/ccIfjRGV.s:5870   .text.Lcd_Init:0000000000001128 .LBE1305
     /tmp/ccIfjRGV.s:5880   .text.Lcd_Init:000000000000112c .LBB1317
     /tmp/ccIfjRGV.s:5887   .text.Lcd_Init:0000000000001130 .LBE1317
     /tmp/ccIfjRGV.s:5903   .text.Lcd_Init:0000000000001138 .LBB1319
     /tmp/ccIfjRGV.s:5933   .text.Lcd_Init:0000000000001164 .LBE1319
     /tmp/ccIfjRGV.s:5946   .text.Lcd_Init:0000000000001174 .LBB1331
     /tmp/ccIfjRGV.s:5954   .text.Lcd_Init:0000000000001178 .LBE1331
     /tmp/ccIfjRGV.s:5963   .text.Lcd_Init:000000000000117c .LBB1333
     /tmp/ccIfjRGV.s:5975   .text.Lcd_Init:0000000000001184 .LBE1333
     /tmp/ccIfjRGV.s:5945   .text.Lcd_Init:0000000000001174 .LBE1320
     /tmp/ccIfjRGV.s:5955   .text.Lcd_Init:0000000000001178 .LBB1332
     /tmp/ccIfjRGV.s:5962   .text.Lcd_Init:000000000000117c .LBE1332
     /tmp/ccIfjRGV.s:5978   .text.Lcd_Init:0000000000001184 .LBB1334
     /tmp/ccIfjRGV.s:6008   .text.Lcd_Init:00000000000011b0 .LBE1334
     /tmp/ccIfjRGV.s:6021   .text.Lcd_Init:00000000000011c0 .LBB1346
     /tmp/ccIfjRGV.s:6029   .text.Lcd_Init:00000000000011c4 .LBE1346
     /tmp/ccIfjRGV.s:6038   .text.Lcd_Init:00000000000011c8 .LBB1348
     /tmp/ccIfjRGV.s:6050   .text.Lcd_Init:00000000000011d0 .LBE1348
     /tmp/ccIfjRGV.s:6020   .text.Lcd_Init:00000000000011c0 .LBE1335
     /tmp/ccIfjRGV.s:6030   .text.Lcd_Init:00000000000011c4 .LBB1347
     /tmp/ccIfjRGV.s:6037   .text.Lcd_Init:00000000000011c8 .LBE1347
     /tmp/ccIfjRGV.s:6053   .text.Lcd_Init:00000000000011d0 .LBB1349
     /tmp/ccIfjRGV.s:6083   .text.Lcd_Init:00000000000011fc .LBE1349
     /tmp/ccIfjRGV.s:6096   .text.Lcd_Init:000000000000120c .LBB1361
     /tmp/ccIfjRGV.s:6104   .text.Lcd_Init:0000000000001210 .LBE1361
     /tmp/ccIfjRGV.s:6113   .text.Lcd_Init:0000000000001214 .LBB1363
     /tmp/ccIfjRGV.s:6125   .text.Lcd_Init:000000000000121c .LBE1363
     /tmp/ccIfjRGV.s:6095   .text.Lcd_Init:000000000000120c .LBE1350
     /tmp/ccIfjRGV.s:6105   .text.Lcd_Init:0000000000001210 .LBB1362
     /tmp/ccIfjRGV.s:6112   .text.Lcd_Init:0000000000001214 .LBE1362
     /tmp/ccIfjRGV.s:6128   .text.Lcd_Init:000000000000121c .LBB1364
     /tmp/ccIfjRGV.s:6158   .text.Lcd_Init:0000000000001248 .LBE1364
     /tmp/ccIfjRGV.s:6171   .text.Lcd_Init:0000000000001258 .LBB1376
     /tmp/ccIfjRGV.s:6179   .text.Lcd_Init:000000000000125c .LBE1376
     /tmp/ccIfjRGV.s:6188   .text.Lcd_Init:0000000000001260 .LBB1378
     /tmp/ccIfjRGV.s:6200   .text.Lcd_Init:0000000000001268 .LBE1378
     /tmp/ccIfjRGV.s:6170   .text.Lcd_Init:0000000000001258 .LBE1365
     /tmp/ccIfjRGV.s:6180   .text.Lcd_Init:000000000000125c .LBB1377
     /tmp/ccIfjRGV.s:6187   .text.Lcd_Init:0000000000001260 .LBE1377
     /tmp/ccIfjRGV.s:6203   .text.Lcd_Init:0000000000001268 .LBB1379
     /tmp/ccIfjRGV.s:6233   .text.Lcd_Init:0000000000001294 .LBE1379
     /tmp/ccIfjRGV.s:6246   .text.Lcd_Init:00000000000012a4 .LBB1391
     /tmp/ccIfjRGV.s:6254   .text.Lcd_Init:00000000000012a8 .LBE1391
     /tmp/ccIfjRGV.s:6263   .text.Lcd_Init:00000000000012ac .LBB1393
     /tmp/ccIfjRGV.s:6275   .text.Lcd_Init:00000000000012b4 .LBE1393
     /tmp/ccIfjRGV.s:6245   .text.Lcd_Init:00000000000012a4 .LBE1380
     /tmp/ccIfjRGV.s:6255   .text.Lcd_Init:00000000000012a8 .LBB1392
GAS LISTING /tmp/ccIfjRGV.s 			page 352


     /tmp/ccIfjRGV.s:6262   .text.Lcd_Init:00000000000012ac .LBE1392
     /tmp/ccIfjRGV.s:6278   .text.Lcd_Init:00000000000012b4 .LBB1394
     /tmp/ccIfjRGV.s:6308   .text.Lcd_Init:00000000000012e0 .LBE1394
     /tmp/ccIfjRGV.s:6321   .text.Lcd_Init:00000000000012f0 .LBB1406
     /tmp/ccIfjRGV.s:6329   .text.Lcd_Init:00000000000012f4 .LBE1406
     /tmp/ccIfjRGV.s:6338   .text.Lcd_Init:00000000000012f8 .LBB1408
     /tmp/ccIfjRGV.s:6350   .text.Lcd_Init:0000000000001300 .LBE1408
     /tmp/ccIfjRGV.s:6320   .text.Lcd_Init:00000000000012f0 .LBE1395
     /tmp/ccIfjRGV.s:6330   .text.Lcd_Init:00000000000012f4 .LBB1407
     /tmp/ccIfjRGV.s:6337   .text.Lcd_Init:00000000000012f8 .LBE1407
     /tmp/ccIfjRGV.s:6353   .text.Lcd_Init:0000000000001300 .LBB1409
     /tmp/ccIfjRGV.s:6383   .text.Lcd_Init:000000000000132c .LBE1409
     /tmp/ccIfjRGV.s:6396   .text.Lcd_Init:000000000000133c .LBB1421
     /tmp/ccIfjRGV.s:6404   .text.Lcd_Init:0000000000001340 .LBE1421
     /tmp/ccIfjRGV.s:6413   .text.Lcd_Init:0000000000001344 .LBB1423
     /tmp/ccIfjRGV.s:6425   .text.Lcd_Init:000000000000134c .LBE1423
     /tmp/ccIfjRGV.s:6395   .text.Lcd_Init:000000000000133c .LBE1410
     /tmp/ccIfjRGV.s:6405   .text.Lcd_Init:0000000000001340 .LBB1422
     /tmp/ccIfjRGV.s:6412   .text.Lcd_Init:0000000000001344 .LBE1422
     /tmp/ccIfjRGV.s:6428   .text.Lcd_Init:000000000000134c .LBB1424
     /tmp/ccIfjRGV.s:6458   .text.Lcd_Init:0000000000001378 .LBE1424
     /tmp/ccIfjRGV.s:6471   .text.Lcd_Init:0000000000001388 .LBB1436
     /tmp/ccIfjRGV.s:6479   .text.Lcd_Init:000000000000138c .LBE1436
     /tmp/ccIfjRGV.s:6488   .text.Lcd_Init:0000000000001390 .LBB1438
     /tmp/ccIfjRGV.s:6500   .text.Lcd_Init:0000000000001398 .LBE1438
     /tmp/ccIfjRGV.s:6470   .text.Lcd_Init:0000000000001388 .LBE1425
     /tmp/ccIfjRGV.s:6480   .text.Lcd_Init:000000000000138c .LBB1437
     /tmp/ccIfjRGV.s:6487   .text.Lcd_Init:0000000000001390 .LBE1437
     /tmp/ccIfjRGV.s:6503   .text.Lcd_Init:0000000000001398 .LBB1439
     /tmp/ccIfjRGV.s:6533   .text.Lcd_Init:00000000000013c4 .LBE1439
     /tmp/ccIfjRGV.s:6546   .text.Lcd_Init:00000000000013d4 .LBB1451
     /tmp/ccIfjRGV.s:6554   .text.Lcd_Init:00000000000013d8 .LBE1451
     /tmp/ccIfjRGV.s:6563   .text.Lcd_Init:00000000000013dc .LBB1453
     /tmp/ccIfjRGV.s:6575   .text.Lcd_Init:00000000000013e4 .LBE1453
     /tmp/ccIfjRGV.s:6545   .text.Lcd_Init:00000000000013d4 .LBE1440
     /tmp/ccIfjRGV.s:6555   .text.Lcd_Init:00000000000013d8 .LBB1452
     /tmp/ccIfjRGV.s:6562   .text.Lcd_Init:00000000000013dc .LBE1452
     /tmp/ccIfjRGV.s:6578   .text.Lcd_Init:00000000000013e4 .LBB1454
     /tmp/ccIfjRGV.s:6608   .text.Lcd_Init:0000000000001410 .LBE1454
     /tmp/ccIfjRGV.s:6621   .text.Lcd_Init:0000000000001420 .LBB1466
     /tmp/ccIfjRGV.s:6629   .text.Lcd_Init:0000000000001424 .LBE1466
     /tmp/ccIfjRGV.s:6638   .text.Lcd_Init:0000000000001428 .LBB1468
     /tmp/ccIfjRGV.s:6650   .text.Lcd_Init:0000000000001430 .LBE1468
     /tmp/ccIfjRGV.s:6620   .text.Lcd_Init:0000000000001420 .LBE1455
     /tmp/ccIfjRGV.s:6630   .text.Lcd_Init:0000000000001424 .LBB1467
     /tmp/ccIfjRGV.s:6637   .text.Lcd_Init:0000000000001428 .LBE1467
     /tmp/ccIfjRGV.s:6653   .text.Lcd_Init:0000000000001430 .LBB1469
     /tmp/ccIfjRGV.s:6683   .text.Lcd_Init:000000000000145c .LBE1469
     /tmp/ccIfjRGV.s:6696   .text.Lcd_Init:000000000000146c .LBB1481
     /tmp/ccIfjRGV.s:6704   .text.Lcd_Init:0000000000001470 .LBE1481
     /tmp/ccIfjRGV.s:6713   .text.Lcd_Init:0000000000001474 .LBB1483
     /tmp/ccIfjRGV.s:6725   .text.Lcd_Init:000000000000147c .LBE1483
     /tmp/ccIfjRGV.s:6695   .text.Lcd_Init:000000000000146c .LBE1470
     /tmp/ccIfjRGV.s:6705   .text.Lcd_Init:0000000000001470 .LBB1482
     /tmp/ccIfjRGV.s:6712   .text.Lcd_Init:0000000000001474 .LBE1482
     /tmp/ccIfjRGV.s:6728   .text.Lcd_Init:000000000000147c .LBB1484
     /tmp/ccIfjRGV.s:6758   .text.Lcd_Init:00000000000014a8 .LBE1484
GAS LISTING /tmp/ccIfjRGV.s 			page 353


     /tmp/ccIfjRGV.s:6771   .text.Lcd_Init:00000000000014b8 .LBB1496
     /tmp/ccIfjRGV.s:6779   .text.Lcd_Init:00000000000014bc .LBE1496
     /tmp/ccIfjRGV.s:6788   .text.Lcd_Init:00000000000014c0 .LBB1498
     /tmp/ccIfjRGV.s:6800   .text.Lcd_Init:00000000000014c8 .LBE1498
     /tmp/ccIfjRGV.s:6770   .text.Lcd_Init:00000000000014b8 .LBE1485
     /tmp/ccIfjRGV.s:6780   .text.Lcd_Init:00000000000014bc .LBB1497
     /tmp/ccIfjRGV.s:6787   .text.Lcd_Init:00000000000014c0 .LBE1497
     /tmp/ccIfjRGV.s:6803   .text.Lcd_Init:00000000000014c8 .LBB1499
     /tmp/ccIfjRGV.s:6833   .text.Lcd_Init:00000000000014f4 .LBE1499
     /tmp/ccIfjRGV.s:6846   .text.Lcd_Init:0000000000001504 .LBB1511
     /tmp/ccIfjRGV.s:6854   .text.Lcd_Init:0000000000001508 .LBE1511
     /tmp/ccIfjRGV.s:6863   .text.Lcd_Init:000000000000150c .LBB1513
     /tmp/ccIfjRGV.s:6875   .text.Lcd_Init:0000000000001514 .LBE1513
     /tmp/ccIfjRGV.s:6845   .text.Lcd_Init:0000000000001504 .LBE1500
     /tmp/ccIfjRGV.s:6855   .text.Lcd_Init:0000000000001508 .LBB1512
     /tmp/ccIfjRGV.s:6862   .text.Lcd_Init:000000000000150c .LBE1512
     /tmp/ccIfjRGV.s:6878   .text.Lcd_Init:0000000000001514 .LBB1514
     /tmp/ccIfjRGV.s:6908   .text.Lcd_Init:0000000000001540 .LBE1514
     /tmp/ccIfjRGV.s:6921   .text.Lcd_Init:0000000000001550 .LBB1526
     /tmp/ccIfjRGV.s:6929   .text.Lcd_Init:0000000000001554 .LBE1526
     /tmp/ccIfjRGV.s:6938   .text.Lcd_Init:0000000000001558 .LBB1528
     /tmp/ccIfjRGV.s:6950   .text.Lcd_Init:0000000000001560 .LBE1528
     /tmp/ccIfjRGV.s:6920   .text.Lcd_Init:0000000000001550 .LBE1515
     /tmp/ccIfjRGV.s:6930   .text.Lcd_Init:0000000000001554 .LBB1527
     /tmp/ccIfjRGV.s:6937   .text.Lcd_Init:0000000000001558 .LBE1527
     /tmp/ccIfjRGV.s:6953   .text.Lcd_Init:0000000000001560 .LBB1529
     /tmp/ccIfjRGV.s:6983   .text.Lcd_Init:000000000000158c .LBE1529
     /tmp/ccIfjRGV.s:6996   .text.Lcd_Init:000000000000159c .LBB1541
     /tmp/ccIfjRGV.s:7004   .text.Lcd_Init:00000000000015a0 .LBE1541
     /tmp/ccIfjRGV.s:7013   .text.Lcd_Init:00000000000015a4 .LBB1543
     /tmp/ccIfjRGV.s:7025   .text.Lcd_Init:00000000000015ac .LBE1543
     /tmp/ccIfjRGV.s:6995   .text.Lcd_Init:000000000000159c .LBE1530
     /tmp/ccIfjRGV.s:7005   .text.Lcd_Init:00000000000015a0 .LBB1542
     /tmp/ccIfjRGV.s:7012   .text.Lcd_Init:00000000000015a4 .LBE1542
     /tmp/ccIfjRGV.s:7028   .text.Lcd_Init:00000000000015ac .LBB1544
     /tmp/ccIfjRGV.s:7058   .text.Lcd_Init:00000000000015d8 .LBE1544
     /tmp/ccIfjRGV.s:7071   .text.Lcd_Init:00000000000015e8 .LBB1556
     /tmp/ccIfjRGV.s:7079   .text.Lcd_Init:00000000000015ec .LBE1556
     /tmp/ccIfjRGV.s:7088   .text.Lcd_Init:00000000000015f0 .LBB1558
     /tmp/ccIfjRGV.s:7100   .text.Lcd_Init:00000000000015f8 .LBE1558
     /tmp/ccIfjRGV.s:7070   .text.Lcd_Init:00000000000015e8 .LBE1545
     /tmp/ccIfjRGV.s:7080   .text.Lcd_Init:00000000000015ec .LBB1557
     /tmp/ccIfjRGV.s:7087   .text.Lcd_Init:00000000000015f0 .LBE1557
     /tmp/ccIfjRGV.s:7103   .text.Lcd_Init:00000000000015f8 .LBB1559
     /tmp/ccIfjRGV.s:7133   .text.Lcd_Init:0000000000001624 .LBE1559
     /tmp/ccIfjRGV.s:7146   .text.Lcd_Init:0000000000001634 .LBB1571
     /tmp/ccIfjRGV.s:7154   .text.Lcd_Init:0000000000001638 .LBE1571
     /tmp/ccIfjRGV.s:7163   .text.Lcd_Init:000000000000163c .LBB1573
     /tmp/ccIfjRGV.s:7175   .text.Lcd_Init:0000000000001644 .LBE1573
     /tmp/ccIfjRGV.s:7145   .text.Lcd_Init:0000000000001634 .LBE1560
     /tmp/ccIfjRGV.s:7155   .text.Lcd_Init:0000000000001638 .LBB1572
     /tmp/ccIfjRGV.s:7162   .text.Lcd_Init:000000000000163c .LBE1572
     /tmp/ccIfjRGV.s:7178   .text.Lcd_Init:0000000000001644 .LBB1574
     /tmp/ccIfjRGV.s:7208   .text.Lcd_Init:0000000000001670 .LBE1574
     /tmp/ccIfjRGV.s:7221   .text.Lcd_Init:0000000000001680 .LBB1586
     /tmp/ccIfjRGV.s:7229   .text.Lcd_Init:0000000000001684 .LBE1586
     /tmp/ccIfjRGV.s:7238   .text.Lcd_Init:0000000000001688 .LBB1588
GAS LISTING /tmp/ccIfjRGV.s 			page 354


     /tmp/ccIfjRGV.s:7250   .text.Lcd_Init:0000000000001690 .LBE1588
     /tmp/ccIfjRGV.s:7220   .text.Lcd_Init:0000000000001680 .LBE1575
     /tmp/ccIfjRGV.s:7230   .text.Lcd_Init:0000000000001684 .LBB1587
     /tmp/ccIfjRGV.s:7237   .text.Lcd_Init:0000000000001688 .LBE1587
     /tmp/ccIfjRGV.s:7253   .text.Lcd_Init:0000000000001690 .LBB1589
     /tmp/ccIfjRGV.s:7283   .text.Lcd_Init:00000000000016bc .LBE1589
     /tmp/ccIfjRGV.s:7296   .text.Lcd_Init:00000000000016cc .LBB1601
     /tmp/ccIfjRGV.s:7304   .text.Lcd_Init:00000000000016d0 .LBE1601
     /tmp/ccIfjRGV.s:7313   .text.Lcd_Init:00000000000016d4 .LBB1603
     /tmp/ccIfjRGV.s:7325   .text.Lcd_Init:00000000000016dc .LBE1603
     /tmp/ccIfjRGV.s:7295   .text.Lcd_Init:00000000000016cc .LBE1590
     /tmp/ccIfjRGV.s:7305   .text.Lcd_Init:00000000000016d0 .LBB1602
     /tmp/ccIfjRGV.s:7312   .text.Lcd_Init:00000000000016d4 .LBE1602
     /tmp/ccIfjRGV.s:7328   .text.Lcd_Init:00000000000016dc .LBB1604
     /tmp/ccIfjRGV.s:7358   .text.Lcd_Init:0000000000001708 .LBE1604
     /tmp/ccIfjRGV.s:7371   .text.Lcd_Init:0000000000001718 .LBB1614
     /tmp/ccIfjRGV.s:7379   .text.Lcd_Init:000000000000171c .LBE1614
     /tmp/ccIfjRGV.s:7388   .text.Lcd_Init:0000000000001720 .LBB1616
     /tmp/ccIfjRGV.s:7400   .text.Lcd_Init:0000000000001728 .LBE1616
     /tmp/ccIfjRGV.s:7370   .text.Lcd_Init:0000000000001718 .LBE1605
     /tmp/ccIfjRGV.s:7380   .text.Lcd_Init:000000000000171c .LBB1615
     /tmp/ccIfjRGV.s:7387   .text.Lcd_Init:0000000000001720 .LBE1615
     /tmp/ccIfjRGV.s:7403   .text.Lcd_Init:0000000000001728 .LBB1617
     /tmp/ccIfjRGV.s:7435   .text.Lcd_Init:0000000000001756 .LBE1617
     /tmp/ccIfjRGV.s:7442   .text.Lcd_Init:000000000000175a .LBB1618
     /tmp/ccIfjRGV.s:7454   .text.Lcd_Init:0000000000001764 .LBE1618
     /tmp/ccIfjRGV.s:8024   .text.LCD_DrawLine:0000000000000054 .LBE1623
     /tmp/ccIfjRGV.s:8028   .text.LCD_DrawLine:0000000000000056 .LBB1626
     /tmp/ccIfjRGV.s:8034   .text.LCD_DrawLine:000000000000005e .LBE1626
     /tmp/ccIfjRGV.s:8602   .text.LCD_ShowString:000000000000003c .LBE1643
     /tmp/ccIfjRGV.s:8609   .text.LCD_ShowString:0000000000000040 .LBB1649
     /tmp/ccIfjRGV.s:8615   .text.LCD_ShowString:0000000000000046 .LBE1649
     /tmp/ccIfjRGV.s:8619   .text.LCD_ShowString:0000000000000048 .LBB1650
     /tmp/ccIfjRGV.s:8624   .text.LCD_ShowString:0000000000000050 .LBE1650
     /tmp/ccIfjRGV.s:8666   .text.LCD_ShowString:0000000000000074 .LBB1651
     /tmp/ccIfjRGV.s:8673   .text.LCD_ShowString:0000000000000074 .LBE1651
     /tmp/ccIfjRGV.s:8689   .text.LCD_ShowString:0000000000000088 .LBB1652
     /tmp/ccIfjRGV.s:8696   .text.LCD_ShowString:0000000000000088 .LBE1652
     /tmp/ccIfjRGV.s:8787   .text.LCD_ShowStr:000000000000003e .LBE1653
     /tmp/ccIfjRGV.s:8791   .text.LCD_ShowStr:0000000000000040 .LBB1656
     /tmp/ccIfjRGV.s:8796   .text.LCD_ShowStr:0000000000000048 .LBE1656
     /tmp/ccIfjRGV.s:8941   .text.LCD_ShowNum:0000000000000036 .LBE1657
     /tmp/ccIfjRGV.s:8959   .text.LCD_ShowNum:0000000000000048 .LBB1664
     /tmp/ccIfjRGV.s:8991   .text.LCD_ShowNum:0000000000000066 .LBE1664
     /tmp/ccIfjRGV.s:9074   .text.LCD_ShowNum:00000000000000be .LBB1666
     /tmp/ccIfjRGV.s:9082   .text.LCD_ShowNum:00000000000000c2 .LBE1666
     /tmp/ccIfjRGV.s:8951   .text.LCD_ShowNum:0000000000000040 .LBE1661
     /tmp/ccIfjRGV.s:9007   .text.LCD_ShowNum:0000000000000076 .LBB1665
     /tmp/ccIfjRGV.s:9032   .text.LCD_ShowNum:000000000000009c .LBE1665
     /tmp/ccIfjRGV.s:9181   .text.LCD_ShowNum1:0000000000000048 .LBE1669
     /tmp/ccIfjRGV.s:9200   .text.LCD_ShowNum1:000000000000005c .LBB1676
     /tmp/ccIfjRGV.s:9235   .text.LCD_ShowNum1:000000000000007e .LBE1676
     /tmp/ccIfjRGV.s:9362   .text.LCD_ShowNum1:00000000000000fe .LBB1682
     /tmp/ccIfjRGV.s:9368   .text.LCD_ShowNum1:0000000000000102 .LBE1682
     /tmp/ccIfjRGV.s:9189   .text.LCD_ShowNum1:0000000000000050 .LBE1673
     /tmp/ccIfjRGV.s:9326   .text.LCD_ShowNum1:00000000000000d6 .LBB1681
     /tmp/ccIfjRGV.s:9344   .text.LCD_ShowNum1:00000000000000f0 .LBE1681
GAS LISTING /tmp/ccIfjRGV.s 			page 355


     /tmp/ccIfjRGV.s:9262   .text.LCD_ShowNum1:000000000000009a .LBE1677
     /tmp/ccIfjRGV.s:9265   .text.LCD_ShowNum1:000000000000009e .LBB1680
     /tmp/ccIfjRGV.s:9272   .text.LCD_ShowNum1:00000000000000aa .LBE1680

UNDEFINED SYMBOLS
__floatundidf
__floatunsidf
__divdf3
__muldf3
__ltdf2
get_timer_value
SystemCoreClock
spi_i2s_flag_get
gpio_bit_reset
spi_i2s_data_transmit
gpio_bit_set
spi_i2s_data_receive
spi_struct_para_init
spi_init
spi_crc_polynomial_set
spi_enable
rcu_periph_clock_enable
gpio_init
__mulsf3
__fixunssfsi
