GAS LISTING /tmp/ccbUs1Eu.s 			page 1


   1              		.file	"main.c"
   2              		.option nopic
   3              		.attribute arch, "rv32i2p0_m2p0_a2p0_c2p0"
   4              		.attribute unaligned_access, 0
   5              		.attribute stack_align, 16
   6              		.text
   7              	.Ltext0:
   8              		.cfi_sections	.debug_frame
   9              		.section	.text.ds18B20callBack,"ax",@progbits
  10              		.align	1
  11              		.globl	ds18B20callBack
  13              	ds18B20callBack:
  14              	.LFB2:
  15              		.file 1 "main.c"
   1:main.c        **** /* 
   2:main.c        **** Replace this file with your code. Put your source files in this directory and any libraries in the 
   3:main.c        **** If your main program should be assembly-language replace this file with main.S instead.
   4:main.c        **** 
   5:main.c        **** Libraries (other than vendor SDK and gcc libraries) must have .h-files in /lib/[library name]/inclu
   6:main.c        **** */
   7:main.c        **** 
   8:main.c        **** #include "gd32vf103.h"
   9:main.c        **** #include "drivers.h"
  10:main.c        **** #include "eclicw.h"
  11:main.c        **** #include "lcd.h"
  12:main.c        **** #include "ds18b20.h"
  13:main.c        **** #include "temp_sensor.h"
  14:main.c        **** #include "usart.h"
  15:main.c        **** #define EI 1
  16:main.c        **** #define DI 0
  17:main.c        **** 
  18:main.c        **** void ds18B20callBack(unsigned int temp){
  16              		.loc 1 18 40
  17              		.cfi_startproc
  18              	.LVL0:
  19:main.c        **** }
  19              		.loc 1 19 1
  20 0000 8280     		ret
  21              		.cfi_endproc
  22              	.LFE2:
  24              		.section	.text.startup.main,"ax",@progbits
  25              		.align	1
  26              		.globl	main
  28              	main:
  29              	.LFB3:
  20:main.c        **** 
  21:main.c        **** int main(void){  
  30              		.loc 1 21 15
  31              		.cfi_startproc
  22:main.c        ****     int ms=0, s=0, key, pKey=-1, c=0, idle=0;
  32              		.loc 1 22 5
  33              	.LVL1:
  23:main.c        ****     int lookUpTbl[16]={1,4,7,14,2,5,8,0,3,6,9,15,10,11,12,13};
  34              		.loc 1 23 5
  24:main.c        ****     char msg[]="*";
  35              		.loc 1 24 5
  21:main.c        ****     int ms=0, s=0, key, pKey=-1, c=0, idle=0;
GAS LISTING /tmp/ccbUs1Eu.s 			page 2


  36              		.loc 1 21 15 is_stmt 0
  37 0000 7971     		addi	sp,sp,-48
  38              	.LCFI0:
  39              		.cfi_def_cfa_offset 48
  40              		.loc 1 24 10
  41 0002 9307A002 		li	a5,42
  21:main.c        ****     int ms=0, s=0, key, pKey=-1, c=0, idle=0;
  42              		.loc 1 21 15
  43 0006 06D6     		sw	ra,44(sp)
  44              		.loc 1 24 10
  45 0008 2316F100 		sh	a5,12(sp)
  25:main.c        **** 
  26:main.c        ****     t5omsi();                               // Initialize timer5 1kHz
  46              		.loc 1 26 5 is_stmt 1
  21:main.c        ****     int ms=0, s=0, key, pKey=-1, c=0, idle=0;
  47              		.loc 1 21 15 is_stmt 0
  48 000c 22D4     		sw	s0,40(sp)
  49 000e 26D2     		sw	s1,36(sp)
  50 0010 4AD0     		sw	s2,32(sp)
  51 0012 4ECE     		sw	s3,28(sp)
  52 0014 52CC     		sw	s4,24(sp)
  53              		.cfi_offset 1, -4
  54              		.cfi_offset 8, -8
  55              		.cfi_offset 9, -12
  56              		.cfi_offset 18, -16
  57              		.cfi_offset 19, -20
  58              		.cfi_offset 20, -24
  59              		.loc 1 26 5
  60 0016 97000000 		call	t5omsi
  60      E7800000 
  61              	.LVL2:
  27:main.c        ****     //colinit();                              // Initialize column toolbox
  28:main.c        ****     //l88init();                              // Initialize 8*8 led toolbox
  29:main.c        ****     //keyinit();                              // Initialize keyboard toolbox
  30:main.c        ****     Lcd_SetType(LCD_INVERTED);              // LCD_INVERTED/LCD_NORMAL!
  62              		.loc 1 30 5 is_stmt 1
  63 001e 0545     		li	a0,1
  64 0020 97000000 		call	Lcd_SetType
  64      E7800000 
  65              	.LVL3:
  31:main.c        ****     Lcd_Init();
  66              		.loc 1 31 5
  67 0028 97000000 		call	Lcd_Init
  67      E7800000 
  68              	.LVL4:
  32:main.c        ****     LCD_Clear(BLACK);
  69              		.loc 1 32 5
  70 0030 0145     		li	a0,0
  71 0032 97000000 		call	LCD_Clear
  71      E7800000 
  72              	.LVL5:
  33:main.c        ****     u0init(DI);                             // Initialize USART0 toolbox
  73              		.loc 1 33 5
  74 003a 0145     		li	a0,0
  34:main.c        ****     temp_sensor_init();
  35:main.c        **** 
  36:main.c        ****     eclic_global_interrupt_enable();        // !!!!! Enable Interrupt !!!!!
GAS LISTING /tmp/ccbUs1Eu.s 			page 3


  37:main.c        **** 
  38:main.c        ****     while (1) {
  39:main.c        ****         idle++;                             // Manage Async events
  40:main.c        ****         LCD_WR_Queue();                     // Manage LCD com queue!
  41:main.c        ****         u0_TX_Queue();                      // Manage U(S)ART TX Queue!
  42:main.c        ****         if (usart_flag_get(USART0,USART_FLAG_RBNE)){ // USART0 RX?
  75              		.loc 1 42 13 is_stmt 0
  76 003c B7440140 		li	s1,1073823744
  43:main.c        ****             LCD_ShowChar(30,50,usart_data_receive(USART0), OPAQUE, WHITE);
  77              		.loc 1 43 13
  78 0040 C169     		li	s3,65536
  33:main.c        ****     u0init(DI);                             // Initialize USART0 toolbox
  79              		.loc 1 33 5
  80 0042 97000000 		call	u0init
  80      E7800000 
  81              	.LVL6:
  34:main.c        ****     temp_sensor_init();
  82              		.loc 1 34 5 is_stmt 1
  22:main.c        ****     int lookUpTbl[16]={1,4,7,14,2,5,8,0,3,6,9,15,10,11,12,13};
  83              		.loc 1 22 9 is_stmt 0
  84 004a 0144     		li	s0,0
  34:main.c        ****     temp_sensor_init();
  85              		.loc 1 34 5
  86 004c 97000000 		call	temp_sensor_init
  86      E7800000 
  87              	.LVL7:
  36:main.c        **** 
  88              		.loc 1 36 5 is_stmt 1
  42:main.c        ****             LCD_ShowChar(30,50,usart_data_receive(USART0), OPAQUE, WHITE);
  89              		.loc 1 42 13 is_stmt 0
  90 0054 93840480 		addi	s1,s1,-2048
  36:main.c        **** 
  91              		.loc 1 36 5
  92 0058 97000000 		call	eclic_global_interrupt_enable
  92      E7800000 
  93              	.LVL8:
  94              		.loc 1 43 13
  95 0060 FD19     		addi	s3,s3,-1
  44:main.c        ****         }
  45:main.c        **** 
  46:main.c        ****         if (t5expq()) {                     // Manage periodic tasks
  47:main.c        ****             //l88row(colset());               // ...8*8LED and Keyboard
  48:main.c        ****             ms++;                           // ...One second heart beat
  49:main.c        ****             if (ms==1000){
  96              		.loc 1 49 16
  97 0062 1309803E 		li	s2,1000
  50:main.c        ****                 ms=0;
  51:main.c        ****                 //l88mem(0,s++);
  52:main.c        ****                 msg[0]=(s%10)+'0'; putstr(msg);   // TX LSD time
  98              		.loc 1 52 23
  99 0066 130A0003 		li	s4,48
 100              	.LVL9:
 101              	.L4:
  38:main.c        ****         idle++;                             // Manage Async events
 102              		.loc 1 38 5 is_stmt 1
  39:main.c        ****         LCD_WR_Queue();                     // Manage LCD com queue!
 103              		.loc 1 39 9
GAS LISTING /tmp/ccbUs1Eu.s 			page 4


  40:main.c        ****         u0_TX_Queue();                      // Manage U(S)ART TX Queue!
 104              		.loc 1 40 9
 105 006a 97000000 		call	LCD_WR_Queue
 105      E7800000 
 106              	.LVL10:
  41:main.c        ****         if (usart_flag_get(USART0,USART_FLAG_RBNE)){ // USART0 RX?
 107              		.loc 1 41 9
 108 0072 97000000 		call	u0_TX_Queue
 108      E7800000 
 109              	.LVL11:
  42:main.c        ****             LCD_ShowChar(30,50,usart_data_receive(USART0), OPAQUE, WHITE);
 110              		.loc 1 42 9
  42:main.c        ****             LCD_ShowChar(30,50,usart_data_receive(USART0), OPAQUE, WHITE);
 111              		.loc 1 42 13 is_stmt 0
 112 007a 9545     		li	a1,5
 113 007c 2685     		mv	a0,s1
 114 007e 97000000 		call	usart_flag_get
 114      E7800000 
 115              	.LVL12:
  42:main.c        ****             LCD_ShowChar(30,50,usart_data_receive(USART0), OPAQUE, WHITE);
 116              		.loc 1 42 12
 117 0086 05ED     		bne	a0,zero,.L14
 118              	.L5:
  46:main.c        ****             //l88row(colset());               // ...8*8LED and Keyboard
 119              		.loc 1 46 9 is_stmt 1
  46:main.c        ****             //l88row(colset());               // ...8*8LED and Keyboard
 120              		.loc 1 46 13 is_stmt 0
 121 0088 97000000 		call	t5expq
 121      E7800000 
 122              	.LVL13:
  46:main.c        ****             //l88row(colset());               // ...8*8LED and Keyboard
 123              		.loc 1 46 12
 124 0090 69DD     		beq	a0,zero,.L4
 125 0092 0504     		addi	s0,s0,1
 126              	.LVL14:
  48:main.c        ****             if (ms==1000){
 127              		.loc 1 48 13 is_stmt 1
  49:main.c        ****                 ms=0;
 128              		.loc 1 49 13
  49:main.c        ****                 ms=0;
 129              		.loc 1 49 16 is_stmt 0
 130 0094 E31B24FD 		bne	s0,s2,.L4
  50:main.c        ****                 //l88mem(0,s++);
 131              		.loc 1 50 17 is_stmt 1
 132              	.LVL15:
 133              		.loc 1 52 17
 134              		.loc 1 52 36 is_stmt 0
 135 0098 6800     		addi	a0,sp,12
 136              		.loc 1 52 23
 137 009a 23064101 		sb	s4,12(sp)
 138              		.loc 1 52 36 is_stmt 1
 139 009e 97000000 		call	putstr
 139      E7800000 
 140              	.LVL16:
  53:main.c        ****                 LCD_ShowNum(8, 50, 0, 1, WHITE);  // LCD Clear key pressed
 141              		.loc 1 53 17
 142 00a6 4E87     		mv	a4,s3
GAS LISTING /tmp/ccbUs1Eu.s 			page 5


 143 00a8 8546     		li	a3,1
 144 00aa 0146     		li	a2,0
 145 00ac 93052003 		li	a1,50
 146 00b0 2145     		li	a0,8
 147 00b2 97000000 		call	LCD_ShowNum
 147      E7800000 
 148              	.LVL17:
  50:main.c        ****                 //l88mem(0,s++);
 149              		.loc 1 50 19 is_stmt 0
 150 00ba 0144     		li	s0,0
 151 00bc 7DB7     		j	.L4
 152              	.LVL18:
 153              	.L14:
  43:main.c        ****         }
 154              		.loc 1 43 13 is_stmt 1
  43:main.c        ****         }
 155              		.loc 1 43 32 is_stmt 0
 156 00be 2685     		mv	a0,s1
 157 00c0 97000000 		call	usart_data_receive
 157      E7800000 
 158              	.LVL19:
  43:main.c        ****         }
 159              		.loc 1 43 13
 160 00c8 1376F50F 		andi	a2,a0,0xff
 161 00cc 4E87     		mv	a4,s3
 162 00ce 8146     		li	a3,0
 163 00d0 93052003 		li	a1,50
 164 00d4 7945     		li	a0,30
 165 00d6 97000000 		call	LCD_ShowChar
 165      E7800000 
 166              	.LVL20:
 167 00de 6DB7     		j	.L5
 168              		.cfi_endproc
 169              	.LFE3:
 171              		.text
 172              	.Letext0:
 173              		.file 2 "/home/lintu/Documents/school/IK1332/Ik1332-project2-group3/compiler/riscv64-unknown-elf/i
 174              		.file 3 "/home/lintu/Documents/school/IK1332/Ik1332-project2-group3/compiler/riscv64-unknown-elf/i
 175              		.file 4 "/home/lintu/Documents/school/IK1332/Ik1332-project2-group3/compiler/lib/gcc/riscv64-unkno
 176              		.file 5 "/home/lintu/Documents/school/IK1332/Ik1332-project2-group3/compiler/riscv64-unknown-elf/i
 177              		.file 6 "/home/lintu/Documents/school/IK1332/Ik1332-project2-group3/compiler/riscv64-unknown-elf/i
 178              		.file 7 "/home/lintu/Documents/school/IK1332/Ik1332-project2-group3/compiler/riscv64-unknown-elf/i
 179              		.file 8 "../../firmware/GD32VF103_standard_peripheral/system_gd32vf103.h"
 180              		.file 9 "/home/lintu/Documents/school/IK1332/Ik1332-project2-group3/compiler/riscv64-unknown-elf/i
 181              		.file 10 "lcd.h"
 182              		.file 11 "drivers.h"
 183              		.file 12 "usart.h"
 184              		.file 13 "temp_sensor.h"
 185              		.file 14 "../../firmware/GD32VF103_standard_peripheral/Include/gd32vf103_eclic.h"
 186              		.file 15 "../../firmware/GD32VF103_standard_peripheral/Include/gd32vf103_usart.h"
GAS LISTING /tmp/ccbUs1Eu.s 			page 6


DEFINED SYMBOLS
                            *ABS*:0000000000000000 main.c
     /tmp/ccbUs1Eu.s:13     .text.ds18B20callBack:0000000000000000 ds18B20callBack
     /tmp/ccbUs1Eu.s:17     .text.ds18B20callBack:0000000000000000 .L0 
     /tmp/ccbUs1Eu.s:19     .text.ds18B20callBack:0000000000000000 .L0 
     /tmp/ccbUs1Eu.s:20     .text.ds18B20callBack:0000000000000000 .L0 
     /tmp/ccbUs1Eu.s:21     .text.ds18B20callBack:0000000000000002 .L0 
     /tmp/ccbUs1Eu.s:28     .text.startup.main:0000000000000000 main
     /tmp/ccbUs1Eu.s:31     .text.startup.main:0000000000000000 .L0 
     /tmp/ccbUs1Eu.s:32     .text.startup.main:0000000000000000 .L0 
     /tmp/ccbUs1Eu.s:34     .text.startup.main:0000000000000000 .L0 
     /tmp/ccbUs1Eu.s:35     .text.startup.main:0000000000000000 .L0 
     /tmp/ccbUs1Eu.s:36     .text.startup.main:0000000000000000 .L0 
     /tmp/ccbUs1Eu.s:37     .text.startup.main:0000000000000000 .L0 
     /tmp/ccbUs1Eu.s:39     .text.startup.main:0000000000000002 .L0 
     /tmp/ccbUs1Eu.s:41     .text.startup.main:0000000000000002 .L0 
     /tmp/ccbUs1Eu.s:43     .text.startup.main:0000000000000006 .L0 
     /tmp/ccbUs1Eu.s:45     .text.startup.main:0000000000000008 .L0 
     /tmp/ccbUs1Eu.s:47     .text.startup.main:000000000000000c .L0 
     /tmp/ccbUs1Eu.s:48     .text.startup.main:000000000000000c .L0 
     /tmp/ccbUs1Eu.s:53     .text.startup.main:0000000000000016 .L0 
     /tmp/ccbUs1Eu.s:54     .text.startup.main:0000000000000016 .L0 
     /tmp/ccbUs1Eu.s:55     .text.startup.main:0000000000000016 .L0 
     /tmp/ccbUs1Eu.s:56     .text.startup.main:0000000000000016 .L0 
     /tmp/ccbUs1Eu.s:57     .text.startup.main:0000000000000016 .L0 
     /tmp/ccbUs1Eu.s:58     .text.startup.main:0000000000000016 .L0 
     /tmp/ccbUs1Eu.s:60     .text.startup.main:0000000000000016 .L0 
     /tmp/ccbUs1Eu.s:63     .text.startup.main:000000000000001e .L0 
     /tmp/ccbUs1Eu.s:67     .text.startup.main:0000000000000028 .L0 
     /tmp/ccbUs1Eu.s:70     .text.startup.main:0000000000000030 .L0 
     /tmp/ccbUs1Eu.s:74     .text.startup.main:000000000000003a .L0 
     /tmp/ccbUs1Eu.s:76     .text.startup.main:000000000000003c .L0 
     /tmp/ccbUs1Eu.s:78     .text.startup.main:0000000000000040 .L0 
     /tmp/ccbUs1Eu.s:80     .text.startup.main:0000000000000042 .L0 
     /tmp/ccbUs1Eu.s:83     .text.startup.main:000000000000004a .L0 
     /tmp/ccbUs1Eu.s:84     .text.startup.main:000000000000004a .L0 
     /tmp/ccbUs1Eu.s:86     .text.startup.main:000000000000004c .L0 
     /tmp/ccbUs1Eu.s:89     .text.startup.main:0000000000000054 .L0 
     /tmp/ccbUs1Eu.s:90     .text.startup.main:0000000000000054 .L0 
     /tmp/ccbUs1Eu.s:92     .text.startup.main:0000000000000058 .L0 
     /tmp/ccbUs1Eu.s:95     .text.startup.main:0000000000000060 .L0 
     /tmp/ccbUs1Eu.s:97     .text.startup.main:0000000000000062 .L0 
     /tmp/ccbUs1Eu.s:99     .text.startup.main:0000000000000066 .L0 
     /tmp/ccbUs1Eu.s:103    .text.startup.main:000000000000006a .L0 
     /tmp/ccbUs1Eu.s:104    .text.startup.main:000000000000006a .L0 
     /tmp/ccbUs1Eu.s:105    .text.startup.main:000000000000006a .L0 
     /tmp/ccbUs1Eu.s:108    .text.startup.main:0000000000000072 .L0 
     /tmp/ccbUs1Eu.s:111    .text.startup.main:000000000000007a .L0 
     /tmp/ccbUs1Eu.s:112    .text.startup.main:000000000000007a .L0 
     /tmp/ccbUs1Eu.s:117    .text.startup.main:0000000000000086 .L0 
     /tmp/ccbUs1Eu.s:120    .text.startup.main:0000000000000088 .L0 
     /tmp/ccbUs1Eu.s:121    .text.startup.main:0000000000000088 .L0 
     /tmp/ccbUs1Eu.s:124    .text.startup.main:0000000000000090 .L0 
     /tmp/ccbUs1Eu.s:128    .text.startup.main:0000000000000094 .L0 
     /tmp/ccbUs1Eu.s:129    .text.startup.main:0000000000000094 .L0 
     /tmp/ccbUs1Eu.s:130    .text.startup.main:0000000000000094 .L0 
     /tmp/ccbUs1Eu.s:133    .text.startup.main:0000000000000098 .L0 
GAS LISTING /tmp/ccbUs1Eu.s 			page 7


     /tmp/ccbUs1Eu.s:134    .text.startup.main:0000000000000098 .L0 
     /tmp/ccbUs1Eu.s:135    .text.startup.main:0000000000000098 .L0 
     /tmp/ccbUs1Eu.s:137    .text.startup.main:000000000000009a .L0 
     /tmp/ccbUs1Eu.s:139    .text.startup.main:000000000000009e .L0 
     /tmp/ccbUs1Eu.s:142    .text.startup.main:00000000000000a6 .L0 
     /tmp/ccbUs1Eu.s:150    .text.startup.main:00000000000000ba .L0 
     /tmp/ccbUs1Eu.s:155    .text.startup.main:00000000000000be .L0 
     /tmp/ccbUs1Eu.s:156    .text.startup.main:00000000000000be .L0 
     /tmp/ccbUs1Eu.s:160    .text.startup.main:00000000000000c8 .L0 
     /tmp/ccbUs1Eu.s:168    .text.startup.main:00000000000000e0 .L0 
     /tmp/ccbUs1Eu.s:24     .text.ds18B20callBack:0000000000000002 .L0 
     /tmp/ccbUs1Eu.s:171    .text.startup.main:00000000000000e0 .L0 
                     .debug_frame:0000000000000000 .L0 
     /tmp/ccbUs1Eu.s:153    .text.startup.main:00000000000000be .L14
     /tmp/ccbUs1Eu.s:101    .text.startup.main:000000000000006a .L4
     /tmp/ccbUs1Eu.s:118    .text.startup.main:0000000000000088 .L5
     /tmp/ccbUs1Eu.s:2031   .debug_abbrev:0000000000000000 .Ldebug_abbrev0
     /tmp/ccbUs1Eu.s:2971   .debug_str:0000000000000314 .LASF153
     /tmp/ccbUs1Eu.s:2949   .debug_str:00000000000002ae .LASF154
     /tmp/ccbUs1Eu.s:2999   .debug_str:000000000000041c .LASF155
     /tmp/ccbUs1Eu.s:2809   .debug_ranges:0000000000000000 .Ldebug_ranges0
     /tmp/ccbUs1Eu.s:2817   .debug_line:0000000000000000 .Ldebug_line0
     /tmp/ccbUs1Eu.s:3067   .debug_str:00000000000005b1 .LASF0
     /tmp/ccbUs1Eu.s:2859   .debug_str:00000000000000e0 .LASF1
     /tmp/ccbUs1Eu.s:3001   .debug_str:000000000000047b .LASF2
     /tmp/ccbUs1Eu.s:3071   .debug_str:00000000000005ce .LASF3
     /tmp/ccbUs1Eu.s:3085   .debug_str:0000000000000618 .LASF4
     /tmp/ccbUs1Eu.s:2831   .debug_str:0000000000000040 .LASF5
     /tmp/ccbUs1Eu.s:2897   .debug_str:000000000000019d .LASF9
     /tmp/ccbUs1Eu.s:2925   .debug_str:000000000000021e .LASF6
     /tmp/ccbUs1Eu.s:2885   .debug_str:000000000000015b .LASF7
     /tmp/ccbUs1Eu.s:2863   .debug_str:00000000000000f2 .LASF8
     /tmp/ccbUs1Eu.s:3097   .debug_str:000000000000065f .LASF10
     /tmp/ccbUs1Eu.s:2919   .debug_str:00000000000001fe .LASF130
     /tmp/ccbUs1Eu.s:2845   .debug_str:0000000000000098 .LASF11
     /tmp/ccbUs1Eu.s:3101   .debug_str:0000000000000675 .LASF12
     /tmp/ccbUs1Eu.s:2953   .debug_str:00000000000002ba .LASF13
     /tmp/ccbUs1Eu.s:3063   .debug_str:000000000000059d .LASF14
     /tmp/ccbUs1Eu.s:3069   .debug_str:00000000000005be .LASF15
     /tmp/ccbUs1Eu.s:2821   .debug_str:000000000000000c .LASF16
     /tmp/ccbUs1Eu.s:2967   .debug_str:00000000000002fc .LASF17
     /tmp/ccbUs1Eu.s:2839   .debug_str:0000000000000074 .LASF18
     /tmp/ccbUs1Eu.s:2981   .debug_str:00000000000003b4 .LASF19
     /tmp/ccbUs1Eu.s:3017   .debug_str:00000000000004c1 .LASF20
     /tmp/ccbUs1Eu.s:3055   .debug_str:0000000000000572 .LASF21
     /tmp/ccbUs1Eu.s:2983   .debug_str:00000000000003c4 .LASF22
     /tmp/ccbUs1Eu.s:2855   .debug_str:00000000000000d2 .LASF23
     /tmp/ccbUs1Eu.s:3053   .debug_str:000000000000056a .LASF24
     /tmp/ccbUs1Eu.s:3107   .debug_str:000000000000068f .LASF25
     /tmp/ccbUs1Eu.s:2947   .debug_str:00000000000002a8 .LASF26
     /tmp/ccbUs1Eu.s:2917   .debug_str:00000000000001f7 .LASF27
     /tmp/ccbUs1Eu.s:3045   .debug_str:000000000000054a .LASF28
     /tmp/ccbUs1Eu.s:3047   .debug_str:0000000000000552 .LASF29
     /tmp/ccbUs1Eu.s:3021   .debug_str:00000000000004d8 .LASF30
     /tmp/ccbUs1Eu.s:3091   .debug_str:0000000000000637 .LASF31
     /tmp/ccbUs1Eu.s:2991   .debug_str:00000000000003e7 .LASF32
     /tmp/ccbUs1Eu.s:3007   .debug_str:0000000000000498 .LASF33
GAS LISTING /tmp/ccbUs1Eu.s 			page 8


     /tmp/ccbUs1Eu.s:2905   .debug_str:00000000000001c2 .LASF38
     /tmp/ccbUs1Eu.s:3077   .debug_str:00000000000005f0 .LASF34
     /tmp/ccbUs1Eu.s:3039   .debug_str:0000000000000535 .LASF35
     /tmp/ccbUs1Eu.s:2899   .debug_str:00000000000001a8 .LASF36
     /tmp/ccbUs1Eu.s:3103   .debug_str:0000000000000684 .LASF37
     /tmp/ccbUs1Eu.s:2915   .debug_str:00000000000001f2 .LASF39
     /tmp/ccbUs1Eu.s:2853   .debug_str:00000000000000c9 .LASF40
     /tmp/ccbUs1Eu.s:3121   .debug_str:00000000000006d4 .LASF41
     /tmp/ccbUs1Eu.s:2865   .debug_str:0000000000000109 .LASF42
     /tmp/ccbUs1Eu.s:3135   .debug_str:000000000000070d .LASF43
     /tmp/ccbUs1Eu.s:2973   .debug_str:000000000000038e .LASF44
     /tmp/ccbUs1Eu.s:2961   .debug_str:00000000000002dc .LASF45
     /tmp/ccbUs1Eu.s:3051   .debug_str:0000000000000560 .LASF46
     /tmp/ccbUs1Eu.s:3009   .debug_str:00000000000004a1 .LASF47
     /tmp/ccbUs1Eu.s:3117   .debug_str:00000000000006ba .LASF48
     /tmp/ccbUs1Eu.s:2869   .debug_str:0000000000000118 .LASF49
     /tmp/ccbUs1Eu.s:2823   .debug_str:000000000000001c .LASF50
     /tmp/ccbUs1Eu.s:2819   .debug_str:0000000000000000 .LASF51
     /tmp/ccbUs1Eu.s:3081   .debug_str:0000000000000603 .LASF52
     /tmp/ccbUs1Eu.s:2881   .debug_str:000000000000014c .LASF53
     /tmp/ccbUs1Eu.s:2975   .debug_str:0000000000000397 .LASF54
     /tmp/ccbUs1Eu.s:3031   .debug_str:0000000000000505 .LASF55
     /tmp/ccbUs1Eu.s:2895   .debug_str:0000000000000198 .LASF56
     /tmp/ccbUs1Eu.s:3011   .debug_str:00000000000004ab .LASF57
     /tmp/ccbUs1Eu.s:2997   .debug_str:0000000000000416 .LASF58
     /tmp/ccbUs1Eu.s:3065   .debug_str:00000000000005ab .LASF59
     /tmp/ccbUs1Eu.s:3023   .debug_str:00000000000004e3 .LASF60
     /tmp/ccbUs1Eu.s:2879   .debug_str:0000000000000145 .LASF61
     /tmp/ccbUs1Eu.s:2927   .debug_str:0000000000000230 .LASF62
     /tmp/ccbUs1Eu.s:2841   .debug_str:0000000000000084 .LASF63
     /tmp/ccbUs1Eu.s:2871   .debug_str:0000000000000126 .LASF64
     /tmp/ccbUs1Eu.s:2911   .debug_str:00000000000001e2 .LASF65
     /tmp/ccbUs1Eu.s:2959   .debug_str:00000000000002d5 .LASF66
     /tmp/ccbUs1Eu.s:3049   .debug_str:000000000000055a .LASF67
     /tmp/ccbUs1Eu.s:2857   .debug_str:00000000000000d9 .LASF68
     /tmp/ccbUs1Eu.s:2861   .debug_str:00000000000000ec .LASF69
     /tmp/ccbUs1Eu.s:3113   .debug_str:00000000000006ac .LASF70
     /tmp/ccbUs1Eu.s:2909   .debug_str:00000000000001d9 .LASF71
     /tmp/ccbUs1Eu.s:2889   .debug_str:0000000000000171 .LASF72
     /tmp/ccbUs1Eu.s:2931   .debug_str:0000000000000242 .LASF73
     /tmp/ccbUs1Eu.s:2955   .debug_str:00000000000002c9 .LASF74
     /tmp/ccbUs1Eu.s:3025   .debug_str:00000000000004eb .LASF75
     /tmp/ccbUs1Eu.s:3013   .debug_str:00000000000004b2 .LASF76
     /tmp/ccbUs1Eu.s:3041   .debug_str:000000000000053d .LASF77
     /tmp/ccbUs1Eu.s:3057   .debug_str:000000000000057e .LASF78
     /tmp/ccbUs1Eu.s:2883   .debug_str:0000000000000154 .LASF79
     /tmp/ccbUs1Eu.s:2921   .debug_str:000000000000020e .LASF80
     /tmp/ccbUs1Eu.s:2903   .debug_str:00000000000001ba .LASF81
     /tmp/ccbUs1Eu.s:3029   .debug_str:0000000000000500 .LASF82
     /tmp/ccbUs1Eu.s:2827   .debug_str:000000000000002c .LASF83
     /tmp/ccbUs1Eu.s:3037   .debug_str:000000000000051c .LASF84
     /tmp/ccbUs1Eu.s:3033   .debug_str:000000000000050a .LASF85
     /tmp/ccbUs1Eu.s:2979   .debug_str:00000000000003a9 .LASF86
     /tmp/ccbUs1Eu.s:3035   .debug_str:0000000000000512 .LASF87
     /tmp/ccbUs1Eu.s:2945   .debug_str:00000000000002a0 .LASF88
     /tmp/ccbUs1Eu.s:2913   .debug_str:00000000000001e8 .LASF89
     /tmp/ccbUs1Eu.s:3131   .debug_str:0000000000000703 .LASF90
GAS LISTING /tmp/ccbUs1Eu.s 			page 9


     /tmp/ccbUs1Eu.s:2987   .debug_str:00000000000003d0 .LASF91
     /tmp/ccbUs1Eu.s:2923   .debug_str:0000000000000216 .LASF92
     /tmp/ccbUs1Eu.s:2887   .debug_str:0000000000000169 .LASF93
     /tmp/ccbUs1Eu.s:2951   .debug_str:00000000000002b5 .LASF94
     /tmp/ccbUs1Eu.s:2829   .debug_str:0000000000000037 .LASF95
     /tmp/ccbUs1Eu.s:3111   .debug_str:00000000000006a2 .LASF96
     /tmp/ccbUs1Eu.s:2873   .debug_str:000000000000012e .LASF97
     /tmp/ccbUs1Eu.s:2867   .debug_str:0000000000000113 .LASF98
     /tmp/ccbUs1Eu.s:3059   .debug_str:0000000000000585 .LASF99
     /tmp/ccbUs1Eu.s:3019   .debug_str:00000000000004d1 .LASF100
     /tmp/ccbUs1Eu.s:3105   .debug_str:0000000000000689 .LASF101
     /tmp/ccbUs1Eu.s:2933   .debug_str:0000000000000248 .LASF102
     /tmp/ccbUs1Eu.s:3003   .debug_str:0000000000000489 .LASF103
     /tmp/ccbUs1Eu.s:2825   .debug_str:0000000000000024 .LASF104
     /tmp/ccbUs1Eu.s:3043   .debug_str:0000000000000544 .LASF105
     /tmp/ccbUs1Eu.s:2957   .debug_str:00000000000002cf .LASF106
     /tmp/ccbUs1Eu.s:3087   .debug_str:000000000000062b .LASF107
     /tmp/ccbUs1Eu.s:3099   .debug_str:0000000000000668 .LASF108
     /tmp/ccbUs1Eu.s:3079   .debug_str:00000000000005f6 .LASF109
     /tmp/ccbUs1Eu.s:2941   .debug_str:0000000000000284 .LASF110
     /tmp/ccbUs1Eu.s:3119   .debug_str:00000000000006c5 .LASF111
     /tmp/ccbUs1Eu.s:2907   .debug_str:00000000000001ca .LASF112
     /tmp/ccbUs1Eu.s:2937   .debug_str:000000000000026d .LASF113
     /tmp/ccbUs1Eu.s:3123   .debug_str:00000000000006dd .LASF114
     /tmp/ccbUs1Eu.s:2995   .debug_str:0000000000000409 .LASF115
     /tmp/ccbUs1Eu.s:3129   .debug_str:00000000000006f5 .LASF116
     /tmp/ccbUs1Eu.s:2851   .debug_str:00000000000000bb .LASF117
     /tmp/ccbUs1Eu.s:3109   .debug_str:0000000000000698 .LASF118
     /tmp/ccbUs1Eu.s:2939   .debug_str:0000000000000278 .LASF119
     /tmp/ccbUs1Eu.s:3093   .debug_str:000000000000063f .LASF120
     /tmp/ccbUs1Eu.s:2893   .debug_str:000000000000018a .LASF121
     /tmp/ccbUs1Eu.s:2849   .debug_str:00000000000000ac .LASF122
     /tmp/ccbUs1Eu.s:2891   .debug_str:0000000000000179 .LASF123
     /tmp/ccbUs1Eu.s:2833   .debug_str:0000000000000049 .LASF124
     /tmp/ccbUs1Eu.s:2835   .debug_str:0000000000000058 .LASF125
     /tmp/ccbUs1Eu.s:3005   .debug_str:000000000000048f .LASF126
     /tmp/ccbUs1Eu.s:2969   .debug_str:000000000000030d .LASF127
     /tmp/ccbUs1Eu.s:2965   .debug_str:00000000000002f3 .LASF128
     /tmp/ccbUs1Eu.s:3115   .debug_str:00000000000006b2 .LASF129
     /tmp/ccbUs1Eu.s:2843   .debug_str:000000000000008d .LASF156
     /tmp/ccbUs1Eu.s:2901   .debug_str:00000000000001ae .LASF131
     /tmp/ccbUs1Eu.s:3095   .debug_str:000000000000064c .LASF132
     /tmp/ccbUs1Eu.s:2977   .debug_str:000000000000039f .LASF133
     /tmp/ccbUs1Eu.s:2837   .debug_str:0000000000000069 .LASF134
     /tmp/ccbUs1Eu.s:3133   .debug_str:0000000000000708 .LASF157
     /tmp/ccbUs1Eu.s:29     .text.startup.main:0000000000000000 .LFB3
     /tmp/ccbUs1Eu.s:169    .text.startup.main:00000000000000e0 .LFE3
     /tmp/ccbUs1Eu.s:2746   .debug_loc:0000000000000000 .LLST0
     /tmp/ccbUs1Eu.s:2759   .debug_loc:0000000000000020 .LLST1
     /tmp/ccbUs1Eu.s:2847   .debug_str:00000000000000a7 .LASF135
     /tmp/ccbUs1Eu.s:2985   .debug_str:00000000000003cb .LASF136
     /tmp/ccbUs1Eu.s:2786   .debug_loc:0000000000000063 .LLST2
     /tmp/ccbUs1Eu.s:3125   .debug_str:00000000000006e2 .LASF137
     /tmp/ccbUs1Eu.s:61     .text.startup.main:000000000000001e .LVL2
     /tmp/ccbUs1Eu.s:65     .text.startup.main:0000000000000028 .LVL3
     /tmp/ccbUs1Eu.s:68     .text.startup.main:0000000000000030 .LVL4
     /tmp/ccbUs1Eu.s:72     .text.startup.main:000000000000003a .LVL5
GAS LISTING /tmp/ccbUs1Eu.s 			page 10


     /tmp/ccbUs1Eu.s:81     .text.startup.main:000000000000004a .LVL6
     /tmp/ccbUs1Eu.s:87     .text.startup.main:0000000000000054 .LVL7
     /tmp/ccbUs1Eu.s:93     .text.startup.main:0000000000000060 .LVL8
     /tmp/ccbUs1Eu.s:106    .text.startup.main:0000000000000072 .LVL10
     /tmp/ccbUs1Eu.s:109    .text.startup.main:000000000000007a .LVL11
     /tmp/ccbUs1Eu.s:115    .text.startup.main:0000000000000086 .LVL12
     /tmp/ccbUs1Eu.s:122    .text.startup.main:0000000000000090 .LVL13
     /tmp/ccbUs1Eu.s:140    .text.startup.main:00000000000000a6 .LVL16
     /tmp/ccbUs1Eu.s:148    .text.startup.main:00000000000000ba .LVL17
     /tmp/ccbUs1Eu.s:158    .text.startup.main:00000000000000c8 .LVL19
     /tmp/ccbUs1Eu.s:166    .text.startup.main:00000000000000de .LVL20
     /tmp/ccbUs1Eu.s:2993   .debug_str:00000000000003f9 .LASF158
     /tmp/ccbUs1Eu.s:14     .text.ds18B20callBack:0000000000000000 .LFB2
     /tmp/ccbUs1Eu.s:22     .text.ds18B20callBack:0000000000000002 .LFE2
     /tmp/ccbUs1Eu.s:2875   .debug_str:0000000000000136 .LASF159
     /tmp/ccbUs1Eu.s:3089   .debug_str:0000000000000630 .LASF138
     /tmp/ccbUs1Eu.s:3027   .debug_str:00000000000004f4 .LASF139
     /tmp/ccbUs1Eu.s:3127   .debug_str:00000000000006ec .LASF140
     /tmp/ccbUs1Eu.s:2877   .debug_str:000000000000013b .LASF141
     /tmp/ccbUs1Eu.s:3137   .debug_str:0000000000000717 .LASF142
     /tmp/ccbUs1Eu.s:3073   .debug_str:00000000000005d8 .LASF143
     /tmp/ccbUs1Eu.s:2935   .debug_str:000000000000024f .LASF144
     /tmp/ccbUs1Eu.s:2989   .debug_str:00000000000003da .LASF145
     /tmp/ccbUs1Eu.s:2929   .debug_str:0000000000000236 .LASF146
     /tmp/ccbUs1Eu.s:2943   .debug_str:0000000000000291 .LASF147
     /tmp/ccbUs1Eu.s:3015   .debug_str:00000000000004ba .LASF148
     /tmp/ccbUs1Eu.s:3075   .debug_str:00000000000005e9 .LASF149
     /tmp/ccbUs1Eu.s:3083   .debug_str:000000000000060c .LASF150
     /tmp/ccbUs1Eu.s:3061   .debug_str:000000000000058a .LASF151
     /tmp/ccbUs1Eu.s:2963   .debug_str:00000000000002e6 .LASF152
     /tmp/ccbUs1Eu.s:38     .text.startup.main:0000000000000002 .LCFI0
     /tmp/ccbUs1Eu.s:33     .text.startup.main:0000000000000000 .LVL1
     /tmp/ccbUs1Eu.s:100    .text.startup.main:000000000000006a .LVL9
     /tmp/ccbUs1Eu.s:126    .text.startup.main:0000000000000094 .LVL14
     /tmp/ccbUs1Eu.s:132    .text.startup.main:0000000000000098 .LVL15
     /tmp/ccbUs1Eu.s:152    .text.startup.main:00000000000000be .LVL18
     /tmp/ccbUs1Eu.s:188    .debug_info:0000000000000000 .Ldebug_info0

UNDEFINED SYMBOLS
t5omsi
Lcd_SetType
Lcd_Init
LCD_Clear
u0init
temp_sensor_init
eclic_global_interrupt_enable
LCD_WR_Queue
u0_TX_Queue
usart_flag_get
t5expq
putstr
LCD_ShowNum
usart_data_receive
LCD_ShowChar
