GAS LISTING /tmp/ccbUs1Eu.s 			page 1


   1              		.file	"main.c"
   2              		.option nopic
   3              		.attribute arch, "rv32i2p0_m2p0_a2p0_c2p0"
   4              		.attribute unaligned_access, 0
   5              		.attribute stack_align, 16
   6              		.text
   7              	.Ltext0:
   8              		.cfi_sections	.debug_frame
   9              		.section	.text.ds18B20callBack,"ax",@progbits
  10              		.align	1
  11              		.globl	ds18B20callBack
  13              	ds18B20callBack:
  14              	.LFB2:
  15              		.file 1 "main.c"
   1:main.c        **** /* 
   2:main.c        **** Replace this file with your code. Put your source files in this directory and any libraries in the 
   3:main.c        **** If your main program should be assembly-language replace this file with main.S instead.
   4:main.c        **** 
   5:main.c        **** Libraries (other than vendor SDK and gcc libraries) must have .h-files in /lib/[library name]/inclu
   6:main.c        **** */
   7:main.c        **** 
   8:main.c        **** #include "gd32vf103.h"
   9:main.c        **** #include "drivers.h"
  10:main.c        **** #include "eclicw.h"
  11:main.c        **** #include "lcd.h"
  12:main.c        **** #include "ds18b20.h"
  13:main.c        **** #include "temp_sensor.h"
  14:main.c        **** #include "usart.h"
  15:main.c        **** #define EI 1
  16:main.c        **** #define DI 0
  17:main.c        **** 
  18:main.c        **** void ds18B20callBack(unsigned int temp){
  16              		.loc 1 18 40
  17              		.cfi_startproc
  18              	.LVL0:
  19:main.c        **** }
  19              		.loc 1 19 1
  20 0000 8280     		ret
  21              		.cfi_endproc
  22              	.LFE2:
  24              		.section	.text.startup.main,"ax",@progbits
  25              		.align	1
  26              		.globl	main
  28              	main:
  29              	.LFB3:
  20:main.c        **** 
  21:main.c        **** int main(void){  
  30              		.loc 1 21 15
  31              		.cfi_startproc
  22:main.c        ****     int ms=0, s=0, key, pKey=-1, c=0, idle=0;
  32              		.loc 1 22 5
  33              	.LVL1:
  23:main.c        ****     int lookUpTbl[16]={1,4,7,14,2,5,8,0,3,6,9,15,10,11,12,13};
  34              		.loc 1 23 5
  24:main.c        ****     char msg[]="*";
  35              		.loc 1 24 5
  21:main.c        ****     int ms=0, s=0, key, pKey=-1, c=0, idle=0;
GAS LISTING /tmp/ccbUs1Eu.s 			page 2


  36              		.loc 1 21 15 is_stmt 0
  37 0000 7971     		addi	sp,sp,-48
  38              	.LCFI0:
  39              		.cfi_def_cfa_offset 48
  40              		.loc 1 24 10
  41 0002 9307A002 		li	a5,42
  21:main.c        ****     int ms=0, s=0, key, pKey=-1, c=0, idle=0;
  42              		.loc 1 21 15
  43 0006 06D6     		sw	ra,44(sp)
  44              		.loc 1 24 10
  45 0008 2316F100 		sh	a5,12(sp)
  25:main.c        **** 
  26:main.c        ****     t5omsi();                               // Initialize timer5 1kHz
  46              		.loc 1 26 5 is_stmt 1
  21:main.c        ****     int ms=0, s=0, key, pKey=-1, c=0, idle=0;
  47              		.loc 1 21 15 is_stmt 0
  48 000c 22D4     		sw	s0,40(sp)
  49 000e 26D2     		sw	s1,36(sp)
  50 0010 4AD0     		sw	s2,32(sp)
  51 0012 4ECE     		sw	s3,28(sp)
  52 0014 52CC     		sw	s4,24(sp)
  53              		.cfi_offset 1, -4
  54              		.cfi_offset 8, -8
  55              		.cfi_offset 9, -12
  56              		.cfi_offset 18, -16
  57              		.cfi_offset 19, -20
  58              		.cfi_offset 20, -24
  59              		.loc 1 26 5
  60 0016 97000000 		call	t5omsi
  60      E7800000 
  61              	.LVL2:
  27:main.c        ****     //colinit();                              // Initialize column toolbox
  28:main.c        ****     //l88init();                              // Initialize 8*8 led toolbox
  29:main.c        ****     //keyinit();                              // Initialize keyboard toolbox
  30:main.c        ****     Lcd_SetType(LCD_INVERTED);              // LCD_INVERTED/LCD_NORMAL!
  62              		.loc 1 30 5 is_stmt 1
  63 001e 0545     		li	a0,1
  64 0020 97000000 		call	Lcd_SetType
  64      E7800000 
  65              	.LVL3:
  31:main.c        ****     Lcd_Init();
  66              		.loc 1 31 5
  67 0028 97000000 		call	Lcd_Init
  67      E7800000 
  68              	.LVL4:
  32:main.c        ****     LCD_Clear(BLACK);
  69              		.loc 1 32 5
  70 0030 0145     		li	a0,0
  71 0032 97000000 		call	LCD_Clear
  71      E7800000 
  72              	.LVL5:
  33:main.c        ****     u0init(DI);                             // Initialize USART0 toolbox
  73              		.loc 1 33 5
  74 003a 0145     		li	a0,0
  34:main.c        ****     temp_sensor_init();
  35:main.c        **** 
  36:main.c        ****     eclic_global_interrupt_enable();        // !!!!! Enable Interrupt !!!!!
GAS LISTING /tmp/ccbUs1Eu.s 			page 3


  37:main.c        **** 
  38:main.c        ****     while (1) {
  39:main.c        ****         idle++;                             // Manage Async events
  40:main.c        ****         LCD_WR_Queue();                     // Manage LCD com queue!
  41:main.c        ****         u0_TX_Queue();                      // Manage U(S)ART TX Queue!
  42:main.c        ****         if (usart_flag_get(USART0,USART_FLAG_RBNE)){ // USART0 RX?
  75              		.loc 1 42 13 is_stmt 0
  76 003c B7440140 		li	s1,1073823744
  43:main.c        ****             LCD_ShowChar(30,50,usart_data_receive(USART0), OPAQUE, WHITE);
  77              		.loc 1 43 13
  78 0040 C169     		li	s3,65536
  33:main.c        ****     u0init(DI);                             // Initialize USART0 toolbox
  79              		.loc 1 33 5
  80 0042 97000000 		call	u0init
  80      E7800000 
  81              	.LVL6:
  34:main.c        ****     temp_sensor_init();
  82              		.loc 1 34 5 is_stmt 1
  22:main.c        ****     int lookUpTbl[16]={1,4,7,14,2,5,8,0,3,6,9,15,10,11,12,13};
  83              		.loc 1 22 9 is_stmt 0
  84 004a 0144     		li	s0,0
  34:main.c        ****     temp_sensor_init();
  85              		.loc 1 34 5
  86 004c 97000000 		call	temp_sensor_init
  86      E7800000 
  87              	.LVL7:
  36:main.c        **** 
  88              		.loc 1 36 5 is_stmt 1
  42:main.c        ****             LCD_ShowChar(30,50,usart_data_receive(USART0), OPAQUE, WHITE);
  89              		.loc 1 42 13 is_stmt 0
  90 0054 93840480 		addi	s1,s1,-2048
  36:main.c        **** 
  91              		.loc 1 36 5
  92 0058 97000000 		call	eclic_global_interrupt_enable
  92      E7800000 
  93              	.LVL8:
  94              		.loc 1 43 13
  95 0060 FD19     		addi	s3,s3,-1
  44:main.c        ****         }
  45:main.c        **** 
  46:main.c        ****         if (t5expq()) {                     // Manage periodic tasks
  47:main.c        ****             //l88row(colset());               // ...8*8LED and Keyboard
  48:main.c        ****             ms++;                           // ...One second heart beat
  49:main.c        ****             if (ms==1000){
  96              		.loc 1 49 16
  97 0062 1309803E 		li	s2,1000
  50:main.c        ****                 ms=0;
  51:main.c        ****                 //l88mem(0,s++);
  52:main.c        ****                 msg[0]=(s%10)+'0'; putstr(msg);   // TX LSD time
  98              		.loc 1 52 23
  99 0066 130A0003 		li	s4,48
 100              	.LVL9:
 101              	.L4:
  38:main.c        ****         idle++;                             // Manage Async events
 102              		.loc 1 38 5 is_stmt 1
  39:main.c        ****         LCD_WR_Queue();                     // Manage LCD com queue!
 103              		.loc 1 39 9
GAS LISTING /tmp/ccbUs1Eu.s 			page 4


  40:main.c        ****         u0_TX_Queue();                      // Manage U(S)ART TX Queue!
 104              		.loc 1 40 9
 105 006a 97000000 		call	LCD_WR_Queue
 105      E7800000 
 106              	.LVL10:
  41:main.c        ****         if (usart_flag_get(USART0,USART_FLAG_RBNE)){ // USART0 RX?
 107              		.loc 1 41 9
 108 0072 97000000 		call	u0_TX_Queue
 108      E7800000 
 109              	.LVL11:
  42:main.c        ****             LCD_ShowChar(30,50,usart_data_receive(USART0), OPAQUE, WHITE);
 110              		.loc 1 42 9
  42:main.c        ****             LCD_ShowChar(30,50,usart_data_receive(USART0), OPAQUE, WHITE);
 111              		.loc 1 42 13 is_stmt 0
 112 007a 9545     		li	a1,5
 113 007c 2685     		mv	a0,s1
 114 007e 97000000 		call	usart_flag_get
 114      E7800000 
 115              	.LVL12:
  42:main.c        ****             LCD_ShowChar(30,50,usart_data_receive(USART0), OPAQUE, WHITE);
 116              		.loc 1 42 12
 117 0086 05ED     		bne	a0,zero,.L14
 118              	.L5:
  46:main.c        ****             //l88row(colset());               // ...8*8LED and Keyboard
 119              		.loc 1 46 9 is_stmt 1
  46:main.c        ****             //l88row(colset());               // ...8*8LED and Keyboard
 120              		.loc 1 46 13 is_stmt 0
 121 0088 97000000 		call	t5expq
 121      E7800000 
 122              	.LVL13:
  46:main.c        ****             //l88row(colset());               // ...8*8LED and Keyboard
 123              		.loc 1 46 12
 124 0090 69DD     		beq	a0,zero,.L4
 125 0092 0504     		addi	s0,s0,1
 126              	.LVL14:
  48:main.c        ****             if (ms==1000){
 127              		.loc 1 48 13 is_stmt 1
  49:main.c        ****                 ms=0;
 128              		.loc 1 49 13
  49:main.c        ****                 ms=0;
 129              		.loc 1 49 16 is_stmt 0
 130 0094 E31B24FD 		bne	s0,s2,.L4
  50:main.c        ****                 //l88mem(0,s++);
 131              		.loc 1 50 17 is_stmt 1
 132              	.LVL15:
 133              		.loc 1 52 17
 134              		.loc 1 52 36 is_stmt 0
 135 0098 6800     		addi	a0,sp,12
 136              		.loc 1 52 23
 137 009a 23064101 		sb	s4,12(sp)
 138              		.loc 1 52 36 is_stmt 1
 139 009e 97000000 		call	putstr
 139      E7800000 
 140              	.LVL16:
  53:main.c        ****                 LCD_ShowNum(8, 50, 0, 1, WHITE);  // LCD Clear key pressed
 141              		.loc 1 53 17
 142 00a6 4E87     		mv	a4,s3
GAS LISTING /tmp/ccbUs1Eu.s 			page 5


 143 00a8 8546     		li	a3,1
 144 00aa 0146     		li	a2,0
 145 00ac 93052003 		li	a1,50
 146 00b0 2145     		li	a0,8
 147 00b2 97000000 		call	LCD_ShowNum
 147      E7800000 
 148              	.LVL17:
  50:main.c        ****                 //l88mem(0,s++);
 149              		.loc 1 50 19 is_stmt 0
 150 00ba 0144     		li	s0,0
 151 00bc 7DB7     		j	.L4
 152              	.LVL18:
 153              	.L14:
  43:main.c        ****         }
 154              		.loc 1 43 13 is_stmt 1
  43:main.c        ****         }
 155              		.loc 1 43 32 is_stmt 0
 156 00be 2685     		mv	a0,s1
 157 00c0 97000000 		call	usart_data_receive
 157      E7800000 
 158              	.LVL19:
  43:main.c        ****         }
 159              		.loc 1 43 13
 160 00c8 1376F50F 		andi	a2,a0,0xff
 161 00cc 4E87     		mv	a4,s3
 162 00ce 8146     		li	a3,0
 163 00d0 93052003 		li	a1,50
 164 00d4 7945     		li	a0,30
 165 00d6 97000000 		call	LCD_ShowChar
 165      E7800000 
 166              	.LVL20:
 167 00de 6DB7     		j	.L5
 168              		.cfi_endproc
 169              	.LFE3:
 171              		.text
 172              	.Letext0:
 173              		.file 2 "/home/lintu/Documents/school/IK1332/Ik1332-project2-group3/compiler/riscv64-unknown-elf/i
 174              		.file 3 "/home/lintu/Documents/school/IK1332/Ik1332-project2-group3/compiler/riscv64-unknown-elf/i
 175              		.file 4 "/home/lintu/Documents/school/IK1332/Ik1332-project2-group3/compiler/lib/gcc/riscv64-unkno
 176              		.file 5 "/home/lintu/Documents/school/IK1332/Ik1332-project2-group3/compiler/riscv64-unknown-elf/i
 177              		.file 6 "/home/lintu/Documents/school/IK1332/Ik1332-project2-group3/compiler/riscv64-unknown-elf/i
 178              		.file 7 "/home/lintu/Documents/school/IK1332/Ik1332-project2-group3/compiler/riscv64-unknown-elf/i
 179              		.file 8 "../../firmware/GD32VF103_standard_peripheral/system_gd32vf103.h"
 180              		.file 9 "/home/lintu/Documents/school/IK1332/Ik1332-project2-group3/compiler/riscv64-unknown-elf/i
 181              		.file 10 "lcd.h"
 182              		.file 11 "drivers.h"
 183              		.file 12 "usart.h"
 184              		.file 13 "temp_sensor.h"
 185              		.file 14 "../../firmware/GD32VF103_standard_peripheral/Include/gd32vf103_eclic.h"
 186              		.file 15 "../../firmware/GD32VF103_standard_peripheral/Include/gd32vf103_usart.h"
GAS LISTING /tmp/ccbUs1Eu.s 			page 6

