GAS LISTING /tmp/ccdFt18F.s 			page 1


   1              		.file	"main.c"
   2              		.option nopic
   3              		.attribute arch, "rv32i2p0_m2p0_a2p0_c2p0"
   4              		.attribute unaligned_access, 0
   5              		.attribute stack_align, 16
   6              		.text
   7              	.Ltext0:
   8              		.cfi_sections	.debug_frame
   9              		.section	.text.startup.main,"ax",@progbits
  10              		.align	1
  11              		.globl	main
  13              	main:
  14              	.LFB2:
  15              		.file 1 "main.c"
   1:main.c        **** /* 
   2:main.c        **** Replace this file with your code. Put your source files in this directory and any libraries in the 
   3:main.c        **** If your main program should be assembly-language replace this file with main.S instead.
   4:main.c        **** 
   5:main.c        **** Libraries (other than vendor SDK and gcc libraries) must have .h-files in /lib/[library name]/inclu
   6:main.c        **** */
   7:main.c        **** #include "gd32vf103.h"
   8:main.c        **** #include "drivers.h"
   9:main.c        **** #include "eclicw.h"
  10:main.c        **** #include "lcd.h"
  11:main.c        **** #include "ds18b20.h"
  12:main.c        **** #include "usart.h"
  13:main.c        **** #include "esp_communication.h"
  14:main.c        **** 
  15:main.c        **** 
  16:main.c        **** #define EI 1
  17:main.c        **** #define DI 0
  18:main.c        **** 
  19:main.c        **** 
  20:main.c        **** #define AT "AT+CWMODE=2\r\n"
  21:main.c        **** 
  22:main.c        **** /*
  23:main.c        **** void ds18B20callBack(unsigned int temp){
  24:main.c        ****     //LCD_ShowNum(8, 10, temp>>4, 2, WHITE);
  25:main.c        ****     //LCD_ShowNum(8, 30, temp%16, 2, WHITE);
  26:main.c        **** }
  27:main.c        **** */
  28:main.c        **** 
  29:main.c        **** int main(void)
  30:main.c        **** {
  16              		.loc 1 30 1
  17              		.cfi_startproc
  31:main.c        ****     /*
  32:main.c        ****     int ms=0, s=0, key, pKey=-1, c=0, idle=0;
  33:main.c        **** 
  34:main.c        ****     int lookUpTbl[16]={1,4,7,14,2,5,8,0,3,6,9,15,10,11,12,13};
  35:main.c        **** 
  36:main.c        ****     uint8_t msg[]= "AT\r\n";
  37:main.c        ****     char rec_print[]="*******************";
  38:main.c        ****     uint16_t rec_buffer[19];
  39:main.c        **** 
  40:main.c        ****     for (int i = 0; i < 19; i++)
  41:main.c        ****     {
GAS LISTING /tmp/ccdFt18F.s 			page 2


  42:main.c        ****         rec_buffer[i] = 0;
  43:main.c        ****     }
  44:main.c        **** 
  45:main.c        **** 
  46:main.c        ****     int send_offset = 0;
  47:main.c        ****     int rec_offset = 0;
  48:main.c        ****     int rec_ver_offset = 0;
  49:main.c        ****     */
  50:main.c        **** 
  51:main.c        ****     int ms = 0;
  18              		.loc 1 51 5
  19              	.LVL0:
  52:main.c        **** 
  53:main.c        ****     t5omsi();                               // Initialize timer5 1kHz
  20              		.loc 1 53 5
  30:main.c        ****     /*
  21              		.loc 1 30 1 is_stmt 0
  22 0000 4111     		addi	sp,sp,-16
  23              	.LCFI0:
  24              		.cfi_def_cfa_offset 16
  25 0002 06C6     		sw	ra,12(sp)
  26 0004 22C4     		sw	s0,8(sp)
  27 0006 26C2     		sw	s1,4(sp)
  28 0008 4AC0     		sw	s2,0(sp)
  29              		.cfi_offset 1, -4
  30              		.cfi_offset 8, -8
  31              		.cfi_offset 9, -12
  32              		.cfi_offset 18, -16
  33              		.loc 1 53 5
  34 000a 97000000 		call	t5omsi
  34      E7800000 
  35              	.LVL1:
  54:main.c        ****     Lcd_SetType(LCD_INVERTED);              // LCD_INVERTED/LCD_NORMAL!
  36              		.loc 1 54 5 is_stmt 1
  37 0012 0545     		li	a0,1
  38 0014 97000000 		call	Lcd_SetType
  38      E7800000 
  39              	.LVL2:
  55:main.c        ****     Lcd_Init();
  40              		.loc 1 55 5
  41 001c 97000000 		call	Lcd_Init
  41      E7800000 
  42              	.LVL3:
  56:main.c        ****     LCD_Clear(RED);
  43              		.loc 1 56 5
  44 0024 4165     		li	a0,65536
  45 0026 13050580 		addi	a0,a0,-2048
  46 002a 97000000 		call	LCD_Clear
  46      E7800000 
  47              	.LVL4:
  57:main.c        ****     u0init(DI);                             // Initialize USART0 toolbox
  48              		.loc 1 57 5
  49 0032 0145     		li	a0,0
  58:main.c        ****     //ds18B20init(&ds18B20callBack);          // Initialize ds18B20 temp sensor
  59:main.c        **** 
  60:main.c        ****     eclic_global_interrupt_enable();        // !!!!! Enable Interrupt !!!!!
  61:main.c        **** 
GAS LISTING /tmp/ccdFt18F.s 			page 3


  62:main.c        ****     while (1)
  63:main.c        ****     {
  64:main.c        ****         LCD_WR_Queue();                     // Manage LCD com queue!
  65:main.c        ****         u0_TX_Queue();                      // Manage U(S)ART TX Queue!
  66:main.c        ****         
  67:main.c        ****         if (t5expq())
  68:main.c        ****         {
  69:main.c        ****             ms++;
  70:main.c        **** 
  71:main.c        ****             if (ms == 5000)
  50              		.loc 1 71 16 is_stmt 0
  51 0034 8564     		li	s1,4096
  57:main.c        ****     u0init(DI);                             // Initialize USART0 toolbox
  52              		.loc 1 57 5
  53 0036 97000000 		call	u0init
  53      E7800000 
  54              	.LVL5:
  60:main.c        **** 
  55              		.loc 1 60 5 is_stmt 1
  51:main.c        **** 
  56              		.loc 1 51 9 is_stmt 0
  57 003e 0144     		li	s0,0
  60:main.c        **** 
  58              		.loc 1 60 5
  59 0040 97000000 		call	eclic_global_interrupt_enable
  59      E7800000 
  60              	.LVL6:
  61 0048 37090000 		lui	s2,%hi(.LC0)
  62              		.loc 1 71 16
  63 004c 93848438 		addi	s1,s1,904
  64              	.LVL7:
  65              	.L2:
  62:main.c        ****     {
  66              		.loc 1 62 5 is_stmt 1
  64:main.c        ****         u0_TX_Queue();                      // Manage U(S)ART TX Queue!
  67              		.loc 1 64 9
  68 0050 97000000 		call	LCD_WR_Queue
  68      E7800000 
  69              	.LVL8:
  65:main.c        ****         
  70              		.loc 1 65 9
  71 0058 97000000 		call	u0_TX_Queue
  71      E7800000 
  72              	.LVL9:
  67:main.c        ****         {
  73              		.loc 1 67 9
  67:main.c        ****         {
  74              		.loc 1 67 13 is_stmt 0
  75 0060 97000000 		call	t5expq
  75      E7800000 
  76              	.LVL10:
  67:main.c        ****         {
  77              		.loc 1 67 12
  78 0068 65D5     		beq	a0,zero,.L2
  79 006a 0504     		addi	s0,s0,1
  80              	.LVL11:
  69:main.c        **** 
GAS LISTING /tmp/ccdFt18F.s 			page 4


  81              		.loc 1 69 13 is_stmt 1
  82              		.loc 1 71 13
  83              		.loc 1 71 16 is_stmt 0
  84 006c E31294FE 		bne	s0,s1,.L2
  72:main.c        ****             {
  73:main.c        ****                 ms = 0;
  85              		.loc 1 73 17 is_stmt 1
  86              	.LVL12:
  74:main.c        ****                 esp_at_send(AT);
  87              		.loc 1 74 17
  88 0070 13050900 		addi	a0,s2,%lo(.LC0)
  89 0074 97000000 		call	esp_at_send
  89      E7800000 
  90              	.LVL13:
  73:main.c        ****                 esp_at_send(AT);
  91              		.loc 1 73 20 is_stmt 0
  92 007c 0144     		li	s0,0
  93 007e C9BF     		j	.L2
  94              		.cfi_endproc
  95              	.LFE2:
  97              		.section	.rodata.main.str1.4,"aMS",@progbits,1
  98              		.align	2
  99              	.LC0:
 100 0000 41542B43 		.string	"AT+CWMODE=2\r\n"
 100      574D4F44 
 100      453D320D 
 100      0A00
 101              		.text
 102              	.Letext0:
 103              		.file 2 "/home/jobe/tidab3/IoT/projekt/Ik1332-project2-group3/compiler/riscv64-unknown-elf/include
 104              		.file 3 "/home/jobe/tidab3/IoT/projekt/Ik1332-project2-group3/compiler/riscv64-unknown-elf/include
 105              		.file 4 "/home/jobe/tidab3/IoT/projekt/Ik1332-project2-group3/compiler/lib/gcc/riscv64-unknown-elf
 106              		.file 5 "/home/jobe/tidab3/IoT/projekt/Ik1332-project2-group3/compiler/riscv64-unknown-elf/include
 107              		.file 6 "/home/jobe/tidab3/IoT/projekt/Ik1332-project2-group3/compiler/riscv64-unknown-elf/include
 108              		.file 7 "/home/jobe/tidab3/IoT/projekt/Ik1332-project2-group3/compiler/riscv64-unknown-elf/include
 109              		.file 8 "../../firmware/GD32VF103_standard_peripheral/system_gd32vf103.h"
 110              		.file 9 "/home/jobe/tidab3/IoT/projekt/Ik1332-project2-group3/compiler/riscv64-unknown-elf/include
 111              		.file 10 "lcd.h"
 112              		.file 11 "drivers.h"
 113              		.file 12 "usart.h"
 114              		.file 13 "../../firmware/GD32VF103_standard_peripheral/Include/gd32vf103_eclic.h"
 115              		.file 14 "esp_communication.h"
GAS LISTING /tmp/ccdFt18F.s 			page 5


DEFINED SYMBOLS
                            *ABS*:0000000000000000 main.c
     /tmp/ccdFt18F.s:13     .text.startup.main:0000000000000000 main
     /tmp/ccdFt18F.s:17     .text.startup.main:0000000000000000 .L0 
     /tmp/ccdFt18F.s:18     .text.startup.main:0000000000000000 .L0 
     /tmp/ccdFt18F.s:20     .text.startup.main:0000000000000000 .L0 
     /tmp/ccdFt18F.s:21     .text.startup.main:0000000000000000 .L0 
     /tmp/ccdFt18F.s:22     .text.startup.main:0000000000000000 .L0 
     /tmp/ccdFt18F.s:24     .text.startup.main:0000000000000002 .L0 
     /tmp/ccdFt18F.s:29     .text.startup.main:000000000000000a .L0 
     /tmp/ccdFt18F.s:30     .text.startup.main:000000000000000a .L0 
     /tmp/ccdFt18F.s:31     .text.startup.main:000000000000000a .L0 
     /tmp/ccdFt18F.s:32     .text.startup.main:000000000000000a .L0 
     /tmp/ccdFt18F.s:34     .text.startup.main:000000000000000a .L0 
     /tmp/ccdFt18F.s:37     .text.startup.main:0000000000000012 .L0 
     /tmp/ccdFt18F.s:41     .text.startup.main:000000000000001c .L0 
     /tmp/ccdFt18F.s:44     .text.startup.main:0000000000000024 .L0 
     /tmp/ccdFt18F.s:49     .text.startup.main:0000000000000032 .L0 
     /tmp/ccdFt18F.s:51     .text.startup.main:0000000000000034 .L0 
     /tmp/ccdFt18F.s:53     .text.startup.main:0000000000000036 .L0 
     /tmp/ccdFt18F.s:56     .text.startup.main:000000000000003e .L0 
     /tmp/ccdFt18F.s:57     .text.startup.main:000000000000003e .L0 
     /tmp/ccdFt18F.s:59     .text.startup.main:0000000000000040 .L0 
     /tmp/ccdFt18F.s:63     .text.startup.main:000000000000004c .L0 
     /tmp/ccdFt18F.s:67     .text.startup.main:0000000000000050 .L0 
     /tmp/ccdFt18F.s:68     .text.startup.main:0000000000000050 .L0 
     /tmp/ccdFt18F.s:71     .text.startup.main:0000000000000058 .L0 
     /tmp/ccdFt18F.s:74     .text.startup.main:0000000000000060 .L0 
     /tmp/ccdFt18F.s:75     .text.startup.main:0000000000000060 .L0 
     /tmp/ccdFt18F.s:78     .text.startup.main:0000000000000068 .L0 
     /tmp/ccdFt18F.s:82     .text.startup.main:000000000000006c .L0 
     /tmp/ccdFt18F.s:83     .text.startup.main:000000000000006c .L0 
     /tmp/ccdFt18F.s:84     .text.startup.main:000000000000006c .L0 
     /tmp/ccdFt18F.s:87     .text.startup.main:0000000000000070 .L0 
     /tmp/ccdFt18F.s:88     .text.startup.main:0000000000000070 .L0 
     /tmp/ccdFt18F.s:92     .text.startup.main:000000000000007c .L0 
     /tmp/ccdFt18F.s:94     .text.startup.main:0000000000000080 .L0 
     /tmp/ccdFt18F.s:97     .text.startup.main:0000000000000080 .L0 
                     .debug_frame:0000000000000000 .L0 
     /tmp/ccdFt18F.s:99     .rodata.main.str1.4:0000000000000000 .LC0
     /tmp/ccdFt18F.s:65     .text.startup.main:0000000000000050 .L2
     /tmp/ccdFt18F.s:1707   .debug_abbrev:0000000000000000 .Ldebug_abbrev0
     /tmp/ccdFt18F.s:2426   .debug_str:00000000000002a3 .LASF135
     /tmp/ccdFt18F.s:2410   .debug_str:000000000000026a .LASF136
     /tmp/ccdFt18F.s:2528   .debug_str:00000000000004fa .LASF137
     /tmp/ccdFt18F.s:2282   .debug_ranges:0000000000000000 .Ldebug_ranges0
     /tmp/ccdFt18F.s:2288   .debug_line:0000000000000000 .Ldebug_line0
     /tmp/ccdFt18F.s:2510   .debug_str:000000000000049d .LASF0
     /tmp/ccdFt18F.s:2326   .debug_str:00000000000000cd .LASF1
     /tmp/ccdFt18F.s:2448   .debug_str:000000000000038f .LASF2
     /tmp/ccdFt18F.s:2292   .debug_str:000000000000000c .LASF3
     /tmp/ccdFt18F.s:2518   .debug_str:00000000000004c6 .LASF4
     /tmp/ccdFt18F.s:2302   .debug_str:000000000000003a .LASF5
     /tmp/ccdFt18F.s:2366   .debug_str:000000000000018a .LASF9
     /tmp/ccdFt18F.s:2388   .debug_str:00000000000001e9 .LASF6
     /tmp/ccdFt18F.s:2354   .debug_str:0000000000000148 .LASF7
     /tmp/ccdFt18F.s:2310   .debug_str:000000000000006e .LASF8
GAS LISTING /tmp/ccdFt18F.s 			page 6


     /tmp/ccdFt18F.s:2532   .debug_str:0000000000000566 .LASF10
     /tmp/ccdFt18F.s:2382   .debug_str:00000000000001c9 .LASF120
     /tmp/ccdFt18F.s:2500   .debug_str:0000000000000476 .LASF11
     /tmp/ccdFt18F.s:2438   .debug_str:0000000000000352 .LASF12
     /tmp/ccdFt18F.s:2322   .debug_str:00000000000000bf .LASF13
     /tmp/ccdFt18F.s:2498   .debug_str:000000000000046e .LASF14
     /tmp/ccdFt18F.s:2540   .debug_str:0000000000000587 .LASF15
     /tmp/ccdFt18F.s:2408   .debug_str:0000000000000264 .LASF16
     /tmp/ccdFt18F.s:2380   .debug_str:00000000000001c2 .LASF17
     /tmp/ccdFt18F.s:2490   .debug_str:000000000000044e .LASF18
     /tmp/ccdFt18F.s:2492   .debug_str:0000000000000456 .LASF19
     /tmp/ccdFt18F.s:2466   .debug_str:00000000000003dc .LASF20
     /tmp/ccdFt18F.s:2524   .debug_str:00000000000004e5 .LASF21
     /tmp/ccdFt18F.s:2444   .debug_str:0000000000000370 .LASF22
     /tmp/ccdFt18F.s:2454   .debug_str:00000000000003ac .LASF23
     /tmp/ccdFt18F.s:2374   .debug_str:00000000000001af .LASF28
     /tmp/ccdFt18F.s:2512   .debug_str:00000000000004aa .LASF24
     /tmp/ccdFt18F.s:2484   .debug_str:0000000000000439 .LASF25
     /tmp/ccdFt18F.s:2368   .debug_str:0000000000000195 .LASF26
     /tmp/ccdFt18F.s:2536   .debug_str:000000000000057c .LASF27
     /tmp/ccdFt18F.s:2378   .debug_str:00000000000001bd .LASF29
     /tmp/ccdFt18F.s:2320   .debug_str:00000000000000b6 .LASF30
     /tmp/ccdFt18F.s:2554   .debug_str:00000000000005cc .LASF31
     /tmp/ccdFt18F.s:2334   .debug_str:00000000000000f1 .LASF32
     /tmp/ccdFt18F.s:2566   .debug_str:00000000000005fb .LASF33
     /tmp/ccdFt18F.s:2428   .debug_str:000000000000031d .LASF34
     /tmp/ccdFt18F.s:2420   .debug_str:0000000000000289 .LASF35
     /tmp/ccdFt18F.s:2496   .debug_str:0000000000000464 .LASF36
     /tmp/ccdFt18F.s:2456   .debug_str:00000000000003b5 .LASF37
     /tmp/ccdFt18F.s:2550   .debug_str:00000000000005b2 .LASF38
     /tmp/ccdFt18F.s:2338   .debug_str:0000000000000100 .LASF39
     /tmp/ccdFt18F.s:2294   .debug_str:0000000000000016 .LASF40
     /tmp/ccdFt18F.s:2290   .debug_str:0000000000000000 .LASF41
     /tmp/ccdFt18F.s:2516   .debug_str:00000000000004bd .LASF42
     /tmp/ccdFt18F.s:2348   .debug_str:000000000000012f .LASF43
     /tmp/ccdFt18F.s:2430   .debug_str:0000000000000326 .LASF44
     /tmp/ccdFt18F.s:2476   .debug_str:0000000000000409 .LASF45
     /tmp/ccdFt18F.s:2364   .debug_str:0000000000000185 .LASF46
     /tmp/ccdFt18F.s:2458   .debug_str:00000000000003bf .LASF47
     /tmp/ccdFt18F.s:2332   .debug_str:00000000000000eb .LASF48
     /tmp/ccdFt18F.s:2508   .debug_str:0000000000000497 .LASF49
     /tmp/ccdFt18F.s:2468   .debug_str:00000000000003e7 .LASF50
     /tmp/ccdFt18F.s:2346   .debug_str:0000000000000128 .LASF51
     /tmp/ccdFt18F.s:2390   .debug_str:00000000000001fb .LASF52
     /tmp/ccdFt18F.s:2312   .debug_str:0000000000000085 .LASF53
     /tmp/ccdFt18F.s:2340   .debug_str:000000000000010e .LASF54
     /tmp/ccdFt18F.s:2376   .debug_str:00000000000001b7 .LASF55
     /tmp/ccdFt18F.s:2418   .debug_str:0000000000000282 .LASF56
     /tmp/ccdFt18F.s:2494   .debug_str:000000000000045e .LASF57
     /tmp/ccdFt18F.s:2324   .debug_str:00000000000000c6 .LASF58
     /tmp/ccdFt18F.s:2330   .debug_str:00000000000000e5 .LASF59
     /tmp/ccdFt18F.s:2546   .debug_str:00000000000005a4 .LASF60
     /tmp/ccdFt18F.s:2506   .debug_str:000000000000048e .LASF61
     /tmp/ccdFt18F.s:2358   .debug_str:000000000000015e .LASF62
     /tmp/ccdFt18F.s:2394   .debug_str:000000000000020d .LASF63
     /tmp/ccdFt18F.s:2414   .debug_str:0000000000000276 .LASF64
     /tmp/ccdFt18F.s:2470   .debug_str:00000000000003ef .LASF65
GAS LISTING /tmp/ccdFt18F.s 			page 7


     /tmp/ccdFt18F.s:2460   .debug_str:00000000000003c6 .LASF66
     /tmp/ccdFt18F.s:2486   .debug_str:0000000000000441 .LASF67
     /tmp/ccdFt18F.s:2502   .debug_str:0000000000000482 .LASF68
     /tmp/ccdFt18F.s:2350   .debug_str:0000000000000137 .LASF69
     /tmp/ccdFt18F.s:2384   .debug_str:00000000000001d9 .LASF70
     /tmp/ccdFt18F.s:2372   .debug_str:00000000000001a7 .LASF71
     /tmp/ccdFt18F.s:2474   .debug_str:0000000000000404 .LASF72
     /tmp/ccdFt18F.s:2298   .debug_str:0000000000000026 .LASF73
     /tmp/ccdFt18F.s:2482   .debug_str:0000000000000420 .LASF74
     /tmp/ccdFt18F.s:2478   .debug_str:000000000000040e .LASF75
     /tmp/ccdFt18F.s:2434   .debug_str:0000000000000338 .LASF76
     /tmp/ccdFt18F.s:2480   .debug_str:0000000000000416 .LASF77
     /tmp/ccdFt18F.s:2406   .debug_str:000000000000025c .LASF78
     /tmp/ccdFt18F.s:2352   .debug_str:000000000000013e .LASF79
     /tmp/ccdFt18F.s:2562   .debug_str:00000000000005f1 .LASF80
     /tmp/ccdFt18F.s:2440   .debug_str:0000000000000359 .LASF81
     /tmp/ccdFt18F.s:2386   .debug_str:00000000000001e1 .LASF82
     /tmp/ccdFt18F.s:2356   .debug_str:0000000000000156 .LASF83
     /tmp/ccdFt18F.s:2412   .debug_str:0000000000000271 .LASF84
     /tmp/ccdFt18F.s:2300   .debug_str:0000000000000031 .LASF85
     /tmp/ccdFt18F.s:2544   .debug_str:000000000000059a .LASF86
     /tmp/ccdFt18F.s:2342   .debug_str:0000000000000116 .LASF87
     /tmp/ccdFt18F.s:2336   .debug_str:00000000000000fb .LASF88
     /tmp/ccdFt18F.s:2504   .debug_str:0000000000000489 .LASF89
     /tmp/ccdFt18F.s:2464   .debug_str:00000000000003d5 .LASF90
     /tmp/ccdFt18F.s:2538   .debug_str:0000000000000581 .LASF91
     /tmp/ccdFt18F.s:2396   .debug_str:0000000000000213 .LASF92
     /tmp/ccdFt18F.s:2450   .debug_str:000000000000039d .LASF93
     /tmp/ccdFt18F.s:2296   .debug_str:000000000000001e .LASF94
     /tmp/ccdFt18F.s:2488   .debug_str:0000000000000448 .LASF95
     /tmp/ccdFt18F.s:2416   .debug_str:000000000000027c .LASF96
     /tmp/ccdFt18F.s:2520   .debug_str:00000000000004d9 .LASF97
     /tmp/ccdFt18F.s:2534   .debug_str:000000000000056f .LASF98
     /tmp/ccdFt18F.s:2514   .debug_str:00000000000004b0 .LASF99
     /tmp/ccdFt18F.s:2404   .debug_str:000000000000024f .LASF100
     /tmp/ccdFt18F.s:2552   .debug_str:00000000000005bd .LASF101
     /tmp/ccdFt18F.s:2436   .debug_str:0000000000000343 .LASF102
     /tmp/ccdFt18F.s:2400   .debug_str:0000000000000238 .LASF103
     /tmp/ccdFt18F.s:2556   .debug_str:00000000000005d5 .LASF104
     /tmp/ccdFt18F.s:2446   .debug_str:0000000000000382 .LASF105
     /tmp/ccdFt18F.s:2560   .debug_str:00000000000005e3 .LASF106
     /tmp/ccdFt18F.s:2318   .debug_str:00000000000000a8 .LASF107
     /tmp/ccdFt18F.s:2542   .debug_str:0000000000000590 .LASF108
     /tmp/ccdFt18F.s:2402   .debug_str:0000000000000243 .LASF109
     /tmp/ccdFt18F.s:2526   .debug_str:00000000000004ed .LASF110
     /tmp/ccdFt18F.s:2362   .debug_str:0000000000000177 .LASF111
     /tmp/ccdFt18F.s:2316   .debug_str:0000000000000099 .LASF112
     /tmp/ccdFt18F.s:2360   .debug_str:0000000000000166 .LASF113
     /tmp/ccdFt18F.s:2304   .debug_str:0000000000000043 .LASF114
     /tmp/ccdFt18F.s:2306   .debug_str:0000000000000052 .LASF115
     /tmp/ccdFt18F.s:2452   .debug_str:00000000000003a3 .LASF116
     /tmp/ccdFt18F.s:2424   .debug_str:000000000000029c .LASF117
     /tmp/ccdFt18F.s:2422   .debug_str:0000000000000293 .LASF118
     /tmp/ccdFt18F.s:2548   .debug_str:00000000000005aa .LASF119
     /tmp/ccdFt18F.s:2314   .debug_str:000000000000008e .LASF138
     /tmp/ccdFt18F.s:2370   .debug_str:000000000000019b .LASF121
     /tmp/ccdFt18F.s:2530   .debug_str:0000000000000553 .LASF122
GAS LISTING /tmp/ccdFt18F.s 			page 8


     /tmp/ccdFt18F.s:2432   .debug_str:000000000000032e .LASF123
     /tmp/ccdFt18F.s:2308   .debug_str:0000000000000063 .LASF124
     /tmp/ccdFt18F.s:2564   .debug_str:00000000000005f6 .LASF139
     /tmp/ccdFt18F.s:14     .text.startup.main:0000000000000000 .LFB2
     /tmp/ccdFt18F.s:95     .text.startup.main:0000000000000080 .LFE2
     /tmp/ccdFt18F.s:2233   .debug_loc:0000000000000000 .LLST0
     /tmp/ccdFt18F.s:2246   .debug_loc:0000000000000020 .LLST1
     /tmp/ccdFt18F.s:35     .text.startup.main:0000000000000012 .LVL1
     /tmp/ccdFt18F.s:39     .text.startup.main:000000000000001c .LVL2
     /tmp/ccdFt18F.s:42     .text.startup.main:0000000000000024 .LVL3
     /tmp/ccdFt18F.s:47     .text.startup.main:0000000000000032 .LVL4
     /tmp/ccdFt18F.s:54     .text.startup.main:000000000000003e .LVL5
     /tmp/ccdFt18F.s:60     .text.startup.main:0000000000000048 .LVL6
     /tmp/ccdFt18F.s:69     .text.startup.main:0000000000000058 .LVL8
     /tmp/ccdFt18F.s:72     .text.startup.main:0000000000000060 .LVL9
     /tmp/ccdFt18F.s:76     .text.startup.main:0000000000000068 .LVL10
     /tmp/ccdFt18F.s:90     .text.startup.main:000000000000007c .LVL13
     /tmp/ccdFt18F.s:2522   .debug_str:00000000000004de .LASF125
     /tmp/ccdFt18F.s:2472   .debug_str:00000000000003f8 .LASF126
     /tmp/ccdFt18F.s:2558   .debug_str:00000000000005da .LASF127
     /tmp/ccdFt18F.s:2344   .debug_str:000000000000011e .LASF128
     /tmp/ccdFt18F.s:2568   .debug_str:0000000000000605 .LASF129
     /tmp/ccdFt18F.s:2398   .debug_str:000000000000021a .LASF130
     /tmp/ccdFt18F.s:2442   .debug_str:0000000000000363 .LASF131
     /tmp/ccdFt18F.s:2392   .debug_str:0000000000000201 .LASF132
     /tmp/ccdFt18F.s:2462   .debug_str:00000000000003ce .LASF133
     /tmp/ccdFt18F.s:2328   .debug_str:00000000000000d9 .LASF134
     /tmp/ccdFt18F.s:23     .text.startup.main:0000000000000002 .LCFI0
     /tmp/ccdFt18F.s:19     .text.startup.main:0000000000000000 .LVL0
     /tmp/ccdFt18F.s:64     .text.startup.main:0000000000000050 .LVL7
     /tmp/ccdFt18F.s:80     .text.startup.main:000000000000006c .LVL11
     /tmp/ccdFt18F.s:86     .text.startup.main:0000000000000070 .LVL12
     /tmp/ccdFt18F.s:117    .debug_info:0000000000000000 .Ldebug_info0

UNDEFINED SYMBOLS
t5omsi
Lcd_SetType
Lcd_Init
LCD_Clear
u0init
eclic_global_interrupt_enable
LCD_WR_Queue
u0_TX_Queue
t5expq
esp_at_send
