GAS LISTING /tmp/cc7kWQ9D.s 			page 1


   1              		.file	"temp_sensor.c"
   2              		.option nopic
   3              		.attribute arch, "rv32i2p0_m2p0_a2p0_c2p0"
   4              		.attribute unaligned_access, 0
   5              		.attribute stack_align, 16
   6              		.text
   7              	.Ltext0:
   8              		.cfi_sections	.debug_frame
   9              		.section	.text.temp_sensor_callback,"ax",@progbits
  10              		.align	1
  11              		.globl	temp_sensor_callback
  13              	temp_sensor_callback:
  14              	.LFB3:
  15              		.file 1 "temp_sensor.c"
   1:temp_sensor.c **** #include "temp_sensor.h"
   2:temp_sensor.c **** 
   3:temp_sensor.c **** /**
   4:temp_sensor.c ****  * @brief       Initializes the temperature sensor.
   5:temp_sensor.c ****  * 
   6:temp_sensor.c ****  * @return      None. 
   7:temp_sensor.c ****  */
   8:temp_sensor.c **** void temp_sensor_init()
   9:temp_sensor.c **** {
  10:temp_sensor.c ****     ds18B20init(&temp_sensor_callback);
  11:temp_sensor.c **** }
  12:temp_sensor.c **** 
  13:temp_sensor.c **** /**
  14:temp_sensor.c ****  * @brief       Converts the thermometer conversion to a decimal celsius value
  15:temp_sensor.c ****  *              with one decimal precision. 
  16:temp_sensor.c ****  * 
  17:temp_sensor.c ****  * @param[in]   temp: 16 bit temperature conversion value. The bit format of the 
  18:temp_sensor.c ****  *              conversion is SSSS SIII IIII FFFF where S are sign bits, 
  19:temp_sensor.c ****  *              I is the integer part of the temp, and F are the fraction bits counted in
  20:temp_sensor.c ****  *              sixteenths (e.g. FFFF = 0001 = 0.625).   
  21:temp_sensor.c ****  *
  22:temp_sensor.c ****  * @return      None. 
  23:temp_sensor.c ****  */
  24:temp_sensor.c **** void temp_sensor_callback(unsigned int temp) 
  25:temp_sensor.c **** {
  16              		.loc 1 25 1
  17              		.cfi_startproc
  18              	.LVL0:
  26:temp_sensor.c ****     // Get the I bits (integer value)
  27:temp_sensor.c ****     u16 temp_integer = temp >> 4;
  19              		.loc 1 27 5
  25:temp_sensor.c ****     // Get the I bits (integer value)
  20              		.loc 1 25 1 is_stmt 0
  21 0000 4111     		addi	sp,sp,-16
  22              	.LCFI0:
  23              		.cfi_def_cfa_offset 16
  24 0002 26C2     		sw	s1,4(sp)
  25 0004 4AC0     		sw	s2,0(sp)
  26              		.cfi_offset 9, -12
  27              		.cfi_offset 18, -16
  28              		.loc 1 27 9
  29 0006 93544500 		srli	s1,a0,4
  30              	.LVL1:
GAS LISTING /tmp/cc7kWQ9D.s 			page 2


  28:temp_sensor.c ****     LCD_ShowNum(8, 10, temp_integer, 2, WHITE);
  31              		.loc 1 28 5 is_stmt 1
  32 000a 4169     		li	s2,65536
  33 000c 2686     		mv	a2,s1
  25:temp_sensor.c ****     // Get the I bits (integer value)
  34              		.loc 1 25 1 is_stmt 0
  35 000e 22C4     		sw	s0,8(sp)
  36              		.loc 1 28 5
  37 0010 1307F9FF 		addi	a4,s2,-1
  38              		.cfi_offset 8, -8
  25:temp_sensor.c ****     // Get the I bits (integer value)
  39              		.loc 1 25 1
  40 0014 2A84     		mv	s0,a0
  41              		.loc 1 28 5
  42 0016 8946     		li	a3,2
  43 0018 A945     		li	a1,10
  44 001a 2145     		li	a0,8
  45              	.LVL2:
  25:temp_sensor.c ****     // Get the I bits (integer value)
  46              		.loc 1 25 1
  47 001c 06C6     		sw	ra,12(sp)
  48              		.cfi_offset 1, -4
  49              		.loc 1 28 5
  50 001e 97000000 		call	LCD_ShowNum
  50      E7800000 
  51              	.LVL3:
  29:temp_sensor.c **** 
  30:temp_sensor.c ****     // Get the F bits (fraction)
  31:temp_sensor.c ****     u16 temp_sixteenths = temp & 0x000F;
  52              		.loc 1 31 5 is_stmt 1
  32:temp_sensor.c ****     u16 temp_fraction = temp_sixteenths * 625;
  53              		.loc 1 32 5
  54              		.loc 1 32 9 is_stmt 0
  55 0026 93071027 		li	a5,625
  31:temp_sensor.c ****     u16 temp_fraction = temp_sixteenths * 625;
  56              		.loc 1 31 9
  57 002a 3D88     		andi	s0,s0,15
  58              	.LVL4:
  59              		.loc 1 32 9
  60 002c 3304F402 		mul	s0,s0,a5
  61              	.LVL5:
  33:temp_sensor.c **** 
  34:temp_sensor.c ****     LCD_ShowNum(30, 30, temp_fraction, 4, WHITE);
  62              		.loc 1 34 5 is_stmt 1
  63 0030 1307F9FF 		addi	a4,s2,-1
  64 0034 9146     		li	a3,4
  65 0036 F945     		li	a1,30
  66 0038 7945     		li	a0,30
  67              	.LBB12:
  68              	.LBB13:
  35:temp_sensor.c **** 
  36:temp_sensor.c ****     // Show only 1 decimal
  37:temp_sensor.c ****     LCD_ShowNum(8, 30, temp_fraction / 1000, 1, WHITE);
  38:temp_sensor.c **** 
  39:temp_sensor.c ****     if(_check_temp(temp_integer) == TEMP_OK) {
  40:temp_sensor.c ****         LCD_ShowString(30, 10, "OK", GREEN);
  41:temp_sensor.c ****     } else { 
GAS LISTING /tmp/cc7kWQ9D.s 			page 3


  42:temp_sensor.c ****         LCD_ShowString(30, 10, "NO", RED);
  43:temp_sensor.c ****     }
  44:temp_sensor.c **** }
  45:temp_sensor.c **** 
  46:temp_sensor.c **** /**
  47:temp_sensor.c ****  * @brief       Checks if the provided temperature is in a valid range
  48:temp_sensor.c ****  * 
  49:temp_sensor.c ****  * @param[in]   temp: the measured temperature 
  50:temp_sensor.c ****  *
  51:temp_sensor.c ****  * @return      TEMP_OK if the temperature is in valid range, otherwise 
  52:temp_sensor.c ****  *              TEMP_WARNING is returned.
  53:temp_sensor.c ****  */
  54:temp_sensor.c **** TEMPERATURE_STATUS _check_temp(u16 temp)
  55:temp_sensor.c **** {
  56:temp_sensor.c ****     if(temp >= 24 && temp <= 26) {
  69              		.loc 1 56 19 is_stmt 0
  70 003a A114     		addi	s1,s1,-24
  71              	.LVL6:
  72              	.LBE13:
  73              	.LBE12:
  34:temp_sensor.c **** 
  74              		.loc 1 34 5
  75 003c 2286     		mv	a2,s0
  76 003e 97000000 		call	LCD_ShowNum
  76      E7800000 
  77              	.LVL7:
  37:temp_sensor.c **** 
  78              		.loc 1 37 5 is_stmt 1
  79 0046 1306803E 		li	a2,1000
  80 004a 3356C402 		divu	a2,s0,a2
  81 004e 1307F9FF 		addi	a4,s2,-1
  82 0052 8546     		li	a3,1
  83 0054 F945     		li	a1,30
  84 0056 2145     		li	a0,8
  85 0058 97000000 		call	LCD_ShowNum
  85      E7800000 
  86              	.LVL8:
  39:temp_sensor.c ****         LCD_ShowString(30, 10, "OK", GREEN);
  87              		.loc 1 39 5
  88              	.LBB15:
  89              	.LBB14:
  90              		.loc 1 56 5
  91              		.loc 1 56 7 is_stmt 0
  92 0060 8947     		li	a5,2
  93 0062 63F39702 		bleu	s1,a5,.L2
  94              	.LBE14:
  95              	.LBE15:
  42:temp_sensor.c ****     }
  96              		.loc 1 42 9 is_stmt 1
  97 0066 37060000 		lui	a2,%hi(.LC0)
  98 006a 93060980 		addi	a3,s2,-2048
  99 006e 13060600 		addi	a2,a2,%lo(.LC0)
 100              	.L4:
  44:temp_sensor.c **** 
 101              		.loc 1 44 1 is_stmt 0
 102 0072 2244     		lw	s0,8(sp)
 103              		.cfi_remember_state
GAS LISTING /tmp/cc7kWQ9D.s 			page 4


 104              		.cfi_restore 8
 105              	.LVL9:
 106 0074 B240     		lw	ra,12(sp)
 107              		.cfi_restore 1
 108 0076 9244     		lw	s1,4(sp)
 109              		.cfi_restore 9
 110              	.LVL10:
 111 0078 0249     		lw	s2,0(sp)
 112              		.cfi_restore 18
 113              	.LBB16:
 114              	.LBB17:
  40:temp_sensor.c ****     } else { 
 115              		.loc 1 40 9
 116 007a A945     		li	a1,10
 117              	.LBE17:
 118              	.LBE16:
  44:temp_sensor.c **** 
 119              		.loc 1 44 1
 120              	.LBB21:
 121              	.LBB18:
  40:temp_sensor.c ****     } else { 
 122              		.loc 1 40 9
 123 007c 7945     		li	a0,30
 124              	.LBE18:
 125              	.LBE21:
  44:temp_sensor.c **** 
 126              		.loc 1 44 1
 127 007e 4101     		addi	sp,sp,16
 128              	.LCFI1:
 129              		.cfi_def_cfa_offset 0
 130              	.LBB22:
 131              	.LBB19:
  40:temp_sensor.c ****     } else { 
 132              		.loc 1 40 9
 133 0080 17030000 		tail	LCD_ShowString
 133      67000300 
 134              	.LVL11:
 135              	.L2:
 136              	.LCFI2:
 137              		.cfi_restore_state
 138              	.LBE19:
 139              	.LBE22:
  57:temp_sensor.c ****         return TEMP_OK;
 140              		.loc 1 57 9 is_stmt 1
 141              	.LBB23:
 142              	.LBB20:
  40:temp_sensor.c ****     } else { 
 143              		.loc 1 40 9
 144 0088 37060000 		lui	a2,%hi(.LC1)
 145 008c 9306007E 		li	a3,2016
 146 0090 13060600 		addi	a2,a2,%lo(.LC1)
 147 0094 F9BF     		j	.L4
 148              	.LBE20:
 149              	.LBE23:
 150              		.cfi_endproc
 151              	.LFE3:
 153              		.section	.text.temp_sensor_init,"ax",@progbits
GAS LISTING /tmp/cc7kWQ9D.s 			page 5


 154              		.align	1
 155              		.globl	temp_sensor_init
 157              	temp_sensor_init:
 158              	.LFB2:
   9:temp_sensor.c ****     ds18B20init(&temp_sensor_callback);
 159              		.loc 1 9 1
 160              		.cfi_startproc
  10:temp_sensor.c **** }
 161              		.loc 1 10 5
 162 0000 37050000 		lui	a0,%hi(temp_sensor_callback)
 163 0004 13050500 		addi	a0,a0,%lo(temp_sensor_callback)
 164 0008 17030000 		tail	ds18B20init
 164      67000300 
 165              	.LVL12:
 166              		.cfi_endproc
 167              	.LFE2:
 169              		.section	.text._check_temp,"ax",@progbits
 170              		.align	1
 171              		.globl	_check_temp
 173              	_check_temp:
 174              	.LFB4:
  55:temp_sensor.c ****     if(temp >= 24 && temp <= 26) {
 175              		.loc 1 55 1
 176              		.cfi_startproc
 177              	.LVL13:
  56:temp_sensor.c ****         return TEMP_OK;
 178              		.loc 1 56 5
  56:temp_sensor.c ****         return TEMP_OK;
 179              		.loc 1 56 19 is_stmt 0
 180 0000 2115     		addi	a0,a0,-24
 181              	.LVL14:
  56:temp_sensor.c ****         return TEMP_OK;
 182              		.loc 1 56 7
 183 0002 13353500 		sltiu	a0,a0,3
 184              	.LVL15:
  58:temp_sensor.c ****     }
  59:temp_sensor.c **** 
  60:temp_sensor.c ****     return TEMP_WARNING;
  61:temp_sensor.c **** }
 185              		.loc 1 61 1
 186 0006 13451500 		xori	a0,a0,1
 187 000a 8280     		ret
 188              		.cfi_endproc
 189              	.LFE4:
 191              		.section	.rodata.temp_sensor_callback.str1.4,"aMS",@progbits,1
 192              		.align	2
 193              	.LC0:
 194 0000 4E4F00   		.string	"NO"
 195 0003 00       		.zero	1
 196              	.LC1:
 197 0004 4F4B00   		.string	"OK"
 198              		.text
 199              	.Letext0:
 200              		.file 2 "/home/lintu/Documents/school/IK1332/Ik1332-project2-group3/compiler/riscv64-unknown-elf/i
 201              		.file 3 "/home/lintu/Documents/school/IK1332/Ik1332-project2-group3/compiler/riscv64-unknown-elf/i
 202              		.file 4 "/home/lintu/Documents/school/IK1332/Ik1332-project2-group3/compiler/lib/gcc/riscv64-unkno
 203              		.file 5 "/home/lintu/Documents/school/IK1332/Ik1332-project2-group3/compiler/riscv64-unknown-elf/i
GAS LISTING /tmp/cc7kWQ9D.s 			page 6


 204              		.file 6 "/home/lintu/Documents/school/IK1332/Ik1332-project2-group3/compiler/riscv64-unknown-elf/i
 205              		.file 7 "/home/lintu/Documents/school/IK1332/Ik1332-project2-group3/compiler/riscv64-unknown-elf/i
 206              		.file 8 "../../firmware/GD32VF103_standard_peripheral/system_gd32vf103.h"
 207              		.file 9 "/home/lintu/Documents/school/IK1332/Ik1332-project2-group3/compiler/riscv64-unknown-elf/i
 208              		.file 10 "lcd.h"
 209              		.file 11 "temp_sensor.h"
 210              		.file 12 "ds18b20.h"
GAS LISTING /tmp/cc7kWQ9D.s 			page 7


DEFINED SYMBOLS
                            *ABS*:0000000000000000 temp_sensor.c
     /tmp/cc7kWQ9D.s:13     .text.temp_sensor_callback:0000000000000000 temp_sensor_callback
     /tmp/cc7kWQ9D.s:17     .text.temp_sensor_callback:0000000000000000 .L0 
     /tmp/cc7kWQ9D.s:19     .text.temp_sensor_callback:0000000000000000 .L0 
     /tmp/cc7kWQ9D.s:20     .text.temp_sensor_callback:0000000000000000 .L0 
     /tmp/cc7kWQ9D.s:21     .text.temp_sensor_callback:0000000000000000 .L0 
     /tmp/cc7kWQ9D.s:23     .text.temp_sensor_callback:0000000000000002 .L0 
     /tmp/cc7kWQ9D.s:26     .text.temp_sensor_callback:0000000000000006 .L0 
     /tmp/cc7kWQ9D.s:27     .text.temp_sensor_callback:0000000000000006 .L0 
     /tmp/cc7kWQ9D.s:29     .text.temp_sensor_callback:0000000000000006 .L0 
     /tmp/cc7kWQ9D.s:32     .text.temp_sensor_callback:000000000000000a .L0 
     /tmp/cc7kWQ9D.s:35     .text.temp_sensor_callback:000000000000000e .L0 
     /tmp/cc7kWQ9D.s:37     .text.temp_sensor_callback:0000000000000010 .L0 
     /tmp/cc7kWQ9D.s:38     .text.temp_sensor_callback:0000000000000014 .L0 
     /tmp/cc7kWQ9D.s:40     .text.temp_sensor_callback:0000000000000014 .L0 
     /tmp/cc7kWQ9D.s:42     .text.temp_sensor_callback:0000000000000016 .L0 
     /tmp/cc7kWQ9D.s:47     .text.temp_sensor_callback:000000000000001c .L0 
     /tmp/cc7kWQ9D.s:48     .text.temp_sensor_callback:000000000000001e .L0 
     /tmp/cc7kWQ9D.s:50     .text.temp_sensor_callback:000000000000001e .L0 
     /tmp/cc7kWQ9D.s:53     .text.temp_sensor_callback:0000000000000026 .L0 
     /tmp/cc7kWQ9D.s:54     .text.temp_sensor_callback:0000000000000026 .L0 
     /tmp/cc7kWQ9D.s:55     .text.temp_sensor_callback:0000000000000026 .L0 
     /tmp/cc7kWQ9D.s:57     .text.temp_sensor_callback:000000000000002a .L0 
     /tmp/cc7kWQ9D.s:60     .text.temp_sensor_callback:000000000000002c .L0 
     /tmp/cc7kWQ9D.s:63     .text.temp_sensor_callback:0000000000000030 .L0 
     /tmp/cc7kWQ9D.s:70     .text.temp_sensor_callback:000000000000003a .L0 
     /tmp/cc7kWQ9D.s:75     .text.temp_sensor_callback:000000000000003c .L0 
     /tmp/cc7kWQ9D.s:79     .text.temp_sensor_callback:0000000000000046 .L0 
     /tmp/cc7kWQ9D.s:90     .text.temp_sensor_callback:0000000000000060 .L0 
     /tmp/cc7kWQ9D.s:91     .text.temp_sensor_callback:0000000000000060 .L0 
     /tmp/cc7kWQ9D.s:92     .text.temp_sensor_callback:0000000000000060 .L0 
     /tmp/cc7kWQ9D.s:97     .text.temp_sensor_callback:0000000000000066 .L0 
     /tmp/cc7kWQ9D.s:102    .text.temp_sensor_callback:0000000000000072 .L0 
     /tmp/cc7kWQ9D.s:103    .text.temp_sensor_callback:0000000000000074 .L0 
     /tmp/cc7kWQ9D.s:104    .text.temp_sensor_callback:0000000000000074 .L0 
     /tmp/cc7kWQ9D.s:107    .text.temp_sensor_callback:0000000000000076 .L0 
     /tmp/cc7kWQ9D.s:109    .text.temp_sensor_callback:0000000000000078 .L0 
     /tmp/cc7kWQ9D.s:112    .text.temp_sensor_callback:000000000000007a .L0 
     /tmp/cc7kWQ9D.s:116    .text.temp_sensor_callback:000000000000007a .L0 
     /tmp/cc7kWQ9D.s:122    .text.temp_sensor_callback:000000000000007c .L0 
     /tmp/cc7kWQ9D.s:123    .text.temp_sensor_callback:000000000000007c .L0 
     /tmp/cc7kWQ9D.s:127    .text.temp_sensor_callback:000000000000007e .L0 
     /tmp/cc7kWQ9D.s:129    .text.temp_sensor_callback:0000000000000080 .L0 
     /tmp/cc7kWQ9D.s:133    .text.temp_sensor_callback:0000000000000080 .L0 
     /tmp/cc7kWQ9D.s:137    .text.temp_sensor_callback:0000000000000088 .L0 
     /tmp/cc7kWQ9D.s:143    .text.temp_sensor_callback:0000000000000088 .L0 
     /tmp/cc7kWQ9D.s:144    .text.temp_sensor_callback:0000000000000088 .L0 
     /tmp/cc7kWQ9D.s:150    .text.temp_sensor_callback:0000000000000096 .L0 
     /tmp/cc7kWQ9D.s:157    .text.temp_sensor_init:0000000000000000 temp_sensor_init
     /tmp/cc7kWQ9D.s:160    .text.temp_sensor_init:0000000000000000 .L0 
     /tmp/cc7kWQ9D.s:161    .text.temp_sensor_init:0000000000000000 .L0 
     /tmp/cc7kWQ9D.s:162    .text.temp_sensor_init:0000000000000000 .L0 
     /tmp/cc7kWQ9D.s:166    .text.temp_sensor_init:0000000000000010 .L0 
     /tmp/cc7kWQ9D.s:173    .text._check_temp:0000000000000000 _check_temp
     /tmp/cc7kWQ9D.s:176    .text._check_temp:0000000000000000 .L0 
     /tmp/cc7kWQ9D.s:178    .text._check_temp:0000000000000000 .L0 
GAS LISTING /tmp/cc7kWQ9D.s 			page 8


     /tmp/cc7kWQ9D.s:179    .text._check_temp:0000000000000000 .L0 
     /tmp/cc7kWQ9D.s:180    .text._check_temp:0000000000000000 .L0 
     /tmp/cc7kWQ9D.s:183    .text._check_temp:0000000000000002 .L0 
     /tmp/cc7kWQ9D.s:186    .text._check_temp:0000000000000006 .L0 
     /tmp/cc7kWQ9D.s:188    .text._check_temp:000000000000000c .L0 
     /tmp/cc7kWQ9D.s:153    .text.temp_sensor_callback:0000000000000096 .L0 
     /tmp/cc7kWQ9D.s:169    .text.temp_sensor_init:0000000000000010 .L0 
     /tmp/cc7kWQ9D.s:191    .text._check_temp:000000000000000c .L0 
                     .debug_frame:0000000000000000 .L0 
     /tmp/cc7kWQ9D.s:193    .rodata.temp_sensor_callback.str1.4:0000000000000000 .LC0
     /tmp/cc7kWQ9D.s:196    .rodata.temp_sensor_callback.str1.4:0000000000000004 .LC1
     /tmp/cc7kWQ9D.s:135    .text.temp_sensor_callback:0000000000000088 .L2
     /tmp/cc7kWQ9D.s:100    .text.temp_sensor_callback:0000000000000072 .L4
     /tmp/cc7kWQ9D.s:1951   .debug_abbrev:0000000000000000 .Ldebug_abbrev0
     /tmp/cc7kWQ9D.s:2976   .debug_str:00000000000002cd .LASF132
     /tmp/cc7kWQ9D.s:2878   .debug_str:0000000000000103 .LASF133
     /tmp/cc7kWQ9D.s:3000   .debug_str:00000000000003c5 .LASF134
     /tmp/cc7kWQ9D.s:2804   .debug_ranges:0000000000000000 .Ldebug_ranges0
     /tmp/cc7kWQ9D.s:2830   .debug_line:0000000000000000 .Ldebug_line0
     /tmp/cc7kWQ9D.s:3062   .debug_str:0000000000000537 .LASF0
     /tmp/cc7kWQ9D.s:2866   .debug_str:00000000000000ce .LASF1
     /tmp/cc7kWQ9D.s:3002   .debug_str:0000000000000424 .LASF2
     /tmp/cc7kWQ9D.s:2834   .debug_str:000000000000000c .LASF3
     /tmp/cc7kWQ9D.s:3074   .debug_str:000000000000057d .LASF4
     /tmp/cc7kWQ9D.s:2884   .debug_str:0000000000000121 .LASF5
     /tmp/cc7kWQ9D.s:2908   .debug_str:0000000000000198 .LASF9
     /tmp/cc7kWQ9D.s:2932   .debug_str:00000000000001fc .LASF6
     /tmp/cc7kWQ9D.s:2894   .debug_str:000000000000014a .LASF7
     /tmp/cc7kWQ9D.s:2848   .debug_str:000000000000005a .LASF8
     /tmp/cc7kWQ9D.s:3084   .debug_str:00000000000005bd .LASF10
     /tmp/cc7kWQ9D.s:2926   .debug_str:00000000000001dc .LASF120
     /tmp/cc7kWQ9D.s:3052   .debug_str:0000000000000510 .LASF11
     /tmp/cc7kWQ9D.s:2990   .debug_str:0000000000000384 .LASF12
     /tmp/cc7kWQ9D.s:2862   .debug_str:00000000000000c0 .LASF13
     /tmp/cc7kWQ9D.s:3050   .debug_str:0000000000000508 .LASF14
     /tmp/cc7kWQ9D.s:3092   .debug_str:00000000000005de .LASF15
     /tmp/cc7kWQ9D.s:2948   .debug_str:000000000000024d .LASF16
     /tmp/cc7kWQ9D.s:2924   .debug_str:00000000000001d5 .LASF17
     /tmp/cc7kWQ9D.s:2964   .debug_str:0000000000000287 .LASF18
     /tmp/cc7kWQ9D.s:3044   .debug_str:00000000000004f0 .LASF19
     /tmp/cc7kWQ9D.s:3018   .debug_str:000000000000046a .LASF20
     /tmp/cc7kWQ9D.s:3078   .debug_str:0000000000000595 .LASF21
     /tmp/cc7kWQ9D.s:2996   .debug_str:00000000000003a3 .LASF22
     /tmp/cc7kWQ9D.s:3008   .debug_str:0000000000000441 .LASF23
     /tmp/cc7kWQ9D.s:2916   .debug_str:00000000000001bd .LASF28
     /tmp/cc7kWQ9D.s:3066   .debug_str:0000000000000555 .LASF24
     /tmp/cc7kWQ9D.s:3036   .debug_str:00000000000004c8 .LASF25
     /tmp/cc7kWQ9D.s:2910   .debug_str:00000000000001a3 .LASF26
     /tmp/cc7kWQ9D.s:3088   .debug_str:00000000000005d3 .LASF27
     /tmp/cc7kWQ9D.s:2922   .debug_str:00000000000001d0 .LASF29
     /tmp/cc7kWQ9D.s:2858   .debug_str:00000000000000a2 .LASF30
     /tmp/cc7kWQ9D.s:3106   .debug_str:0000000000000623 .LASF31
     /tmp/cc7kWQ9D.s:2872   .debug_str:00000000000000e6 .LASF32
     /tmp/cc7kWQ9D.s:3114   .debug_str:0000000000000644 .LASF33
     /tmp/cc7kWQ9D.s:2978   .debug_str:0000000000000347 .LASF34
     /tmp/cc7kWQ9D.s:2962   .debug_str:000000000000027d .LASF35
     /tmp/cc7kWQ9D.s:3048   .debug_str:00000000000004fe .LASF36
GAS LISTING /tmp/cc7kWQ9D.s 			page 9


     /tmp/cc7kWQ9D.s:3010   .debug_str:000000000000044a .LASF37
     /tmp/cc7kWQ9D.s:3102   .debug_str:0000000000000609 .LASF38
     /tmp/cc7kWQ9D.s:2876   .debug_str:00000000000000f5 .LASF39
     /tmp/cc7kWQ9D.s:2836   .debug_str:0000000000000016 .LASF40
     /tmp/cc7kWQ9D.s:2832   .debug_str:0000000000000000 .LASF41
     /tmp/cc7kWQ9D.s:3070   .debug_str:0000000000000568 .LASF42
     /tmp/cc7kWQ9D.s:2888   .debug_str:0000000000000131 .LASF43
     /tmp/cc7kWQ9D.s:2980   .debug_str:0000000000000350 .LASF44
     /tmp/cc7kWQ9D.s:3028   .debug_str:0000000000000498 .LASF45
     /tmp/cc7kWQ9D.s:2906   .debug_str:0000000000000193 .LASF46
     /tmp/cc7kWQ9D.s:3012   .debug_str:0000000000000454 .LASF47
     /tmp/cc7kWQ9D.s:2870   .debug_str:00000000000000e0 .LASF48
     /tmp/cc7kWQ9D.s:3060   .debug_str:0000000000000531 .LASF49
     /tmp/cc7kWQ9D.s:3020   .debug_str:0000000000000475 .LASF50
     /tmp/cc7kWQ9D.s:2886   .debug_str:000000000000012a .LASF51
     /tmp/cc7kWQ9D.s:2934   .debug_str:000000000000020e .LASF52
     /tmp/cc7kWQ9D.s:2850   .debug_str:0000000000000071 .LASF53
     /tmp/cc7kWQ9D.s:2880   .debug_str:0000000000000111 .LASF54
     /tmp/cc7kWQ9D.s:2918   .debug_str:00000000000001c5 .LASF55
     /tmp/cc7kWQ9D.s:2960   .debug_str:0000000000000276 .LASF56
     /tmp/cc7kWQ9D.s:3046   .debug_str:00000000000004f8 .LASF57
     /tmp/cc7kWQ9D.s:2864   .debug_str:00000000000000c7 .LASF58
     /tmp/cc7kWQ9D.s:2868   .debug_str:00000000000000da .LASF59
     /tmp/cc7kWQ9D.s:3098   .debug_str:00000000000005fb .LASF60
     /tmp/cc7kWQ9D.s:3058   .debug_str:0000000000000528 .LASF61
     /tmp/cc7kWQ9D.s:2900   .debug_str:000000000000016c .LASF62
     /tmp/cc7kWQ9D.s:2936   .debug_str:0000000000000214 .LASF63
     /tmp/cc7kWQ9D.s:2956   .debug_str:000000000000026a .LASF64
     /tmp/cc7kWQ9D.s:3022   .debug_str:000000000000047d .LASF65
     /tmp/cc7kWQ9D.s:3014   .debug_str:000000000000045b .LASF66
     /tmp/cc7kWQ9D.s:3038   .debug_str:00000000000004d0 .LASF67
     /tmp/cc7kWQ9D.s:3054   .debug_str:000000000000051c .LASF68
     /tmp/cc7kWQ9D.s:2890   .debug_str:0000000000000139 .LASF69
     /tmp/cc7kWQ9D.s:2928   .debug_str:00000000000001ec .LASF70
     /tmp/cc7kWQ9D.s:2914   .debug_str:00000000000001b5 .LASF71
     /tmp/cc7kWQ9D.s:3026   .debug_str:0000000000000493 .LASF72
     /tmp/cc7kWQ9D.s:2840   .debug_str:0000000000000026 .LASF73
     /tmp/cc7kWQ9D.s:3034   .debug_str:00000000000004af .LASF74
     /tmp/cc7kWQ9D.s:3030   .debug_str:000000000000049d .LASF75
     /tmp/cc7kWQ9D.s:2984   .debug_str:0000000000000362 .LASF76
     /tmp/cc7kWQ9D.s:3032   .debug_str:00000000000004a5 .LASF77
     /tmp/cc7kWQ9D.s:2946   .debug_str:0000000000000245 .LASF78
     /tmp/cc7kWQ9D.s:2892   .debug_str:0000000000000140 .LASF79
     /tmp/cc7kWQ9D.s:3112   .debug_str:000000000000063f .LASF80
     /tmp/cc7kWQ9D.s:2992   .debug_str:000000000000038b .LASF81
     /tmp/cc7kWQ9D.s:2930   .debug_str:00000000000001f4 .LASF82
     /tmp/cc7kWQ9D.s:2898   .debug_str:0000000000000164 .LASF83
     /tmp/cc7kWQ9D.s:2954   .debug_str:0000000000000265 .LASF84
     /tmp/cc7kWQ9D.s:2842   .debug_str:0000000000000031 .LASF85
     /tmp/cc7kWQ9D.s:3096   .debug_str:00000000000005f1 .LASF86
     /tmp/cc7kWQ9D.s:2882   .debug_str:0000000000000119 .LASF87
     /tmp/cc7kWQ9D.s:2874   .debug_str:00000000000000f0 .LASF88
     /tmp/cc7kWQ9D.s:3056   .debug_str:0000000000000523 .LASF89
     /tmp/cc7kWQ9D.s:3016   .debug_str:0000000000000463 .LASF90
     /tmp/cc7kWQ9D.s:3090   .debug_str:00000000000005d8 .LASF91
     /tmp/cc7kWQ9D.s:2938   .debug_str:000000000000021a .LASF92
     /tmp/cc7kWQ9D.s:3004   .debug_str:0000000000000432 .LASF93
GAS LISTING /tmp/cc7kWQ9D.s 			page 10


     /tmp/cc7kWQ9D.s:2838   .debug_str:000000000000001e .LASF94
     /tmp/cc7kWQ9D.s:3040   .debug_str:00000000000004d7 .LASF95
     /tmp/cc7kWQ9D.s:2958   .debug_str:0000000000000270 .LASF96
     /tmp/cc7kWQ9D.s:3076   .debug_str:0000000000000590 .LASF97
     /tmp/cc7kWQ9D.s:3086   .debug_str:00000000000005c6 .LASF98
     /tmp/cc7kWQ9D.s:3068   .debug_str:000000000000055b .LASF99
     /tmp/cc7kWQ9D.s:2944   .debug_str:0000000000000238 .LASF100
     /tmp/cc7kWQ9D.s:3104   .debug_str:0000000000000614 .LASF101
     /tmp/cc7kWQ9D.s:2986   .debug_str:000000000000036d .LASF102
     /tmp/cc7kWQ9D.s:2940   .debug_str:0000000000000221 .LASF103
     /tmp/cc7kWQ9D.s:3108   .debug_str:000000000000062c .LASF104
     /tmp/cc7kWQ9D.s:3024   .debug_str:0000000000000486 .LASF105
     /tmp/cc7kWQ9D.s:3110   .debug_str:0000000000000631 .LASF106
     /tmp/cc7kWQ9D.s:2856   .debug_str:0000000000000094 .LASF107
     /tmp/cc7kWQ9D.s:3094   .debug_str:00000000000005e7 .LASF108
     /tmp/cc7kWQ9D.s:2942   .debug_str:000000000000022c .LASF109
     /tmp/cc7kWQ9D.s:3080   .debug_str:000000000000059d .LASF110
     /tmp/cc7kWQ9D.s:2904   .debug_str:0000000000000185 .LASF111
     /tmp/cc7kWQ9D.s:2854   .debug_str:0000000000000085 .LASF112
     /tmp/cc7kWQ9D.s:2902   .debug_str:0000000000000174 .LASF113
     /tmp/cc7kWQ9D.s:2844   .debug_str:000000000000003a .LASF114
     /tmp/cc7kWQ9D.s:2846   .debug_str:0000000000000049 .LASF115
     /tmp/cc7kWQ9D.s:3006   .debug_str:0000000000000438 .LASF116
     /tmp/cc7kWQ9D.s:2950   .debug_str:0000000000000253 .LASF117
     /tmp/cc7kWQ9D.s:2968   .debug_str:000000000000029c .LASF118
     /tmp/cc7kWQ9D.s:3100   .debug_str:0000000000000601 .LASF119
     /tmp/cc7kWQ9D.s:2852   .debug_str:000000000000007a .LASF138
     /tmp/cc7kWQ9D.s:2912   .debug_str:00000000000001a9 .LASF121
     /tmp/cc7kWQ9D.s:3082   .debug_str:00000000000005aa .LASF122
     /tmp/cc7kWQ9D.s:2982   .debug_str:0000000000000358 .LASF123
     /tmp/cc7kWQ9D.s:2952   .debug_str:000000000000025a .LASF124
     /tmp/cc7kWQ9D.s:2988   .debug_str:000000000000037c .LASF125
     /tmp/cc7kWQ9D.s:2966   .debug_str:000000000000028f .LASF126
     /tmp/cc7kWQ9D.s:3042   .debug_str:00000000000004dd .LASF127
     /tmp/cc7kWQ9D.s:2970   .debug_str:00000000000002a5 .LASF139
     /tmp/cc7kWQ9D.s:2920   .debug_str:00000000000001cb .LASF128
     /tmp/cc7kWQ9D.s:2860   .debug_str:00000000000000ab .LASF140
     /tmp/cc7kWQ9D.s:2974   .debug_str:00000000000002c0 .LASF129
     /tmp/cc7kWQ9D.s:2998   .debug_str:00000000000003b5 .LASF130
     /tmp/cc7kWQ9D.s:2994   .debug_str:0000000000000395 .LASF131
     /tmp/cc7kWQ9D.s:3064   .debug_str:0000000000000544 .LASF141
     /tmp/cc7kWQ9D.s:158    .text.temp_sensor_init:0000000000000000 .LFB2
     /tmp/cc7kWQ9D.s:167    .text.temp_sensor_init:0000000000000010 .LFE2
     /tmp/cc7kWQ9D.s:165    .text.temp_sensor_init:0000000000000010 .LVL12
     /tmp/cc7kWQ9D.s:14     .text.temp_sensor_callback:0000000000000000 .LFB3
     /tmp/cc7kWQ9D.s:151    .text.temp_sensor_callback:0000000000000096 .LFE3
     /tmp/cc7kWQ9D.s:2661   .debug_loc:0000000000000000 .LLST0
     /tmp/cc7kWQ9D.s:2684   .debug_loc:0000000000000038 .LLST1
     /tmp/cc7kWQ9D.s:2702   .debug_loc:0000000000000064 .LLST2
     /tmp/cc7kWQ9D.s:2724   .debug_loc:0000000000000094 .LLST3
     /tmp/cc7kWQ9D.s:2744   .debug_loc:00000000000000bb .LLST4
     /tmp/cc7kWQ9D.s:67     .text.temp_sensor_callback:000000000000003a .LBB12
     /tmp/cc7kWQ9D.s:113    .text.temp_sensor_callback:000000000000007a .LBB16
     /tmp/cc7kWQ9D.s:134    .text.temp_sensor_callback:0000000000000088 .LVL11
     /tmp/cc7kWQ9D.s:51     .text.temp_sensor_callback:0000000000000026 .LVL3
     /tmp/cc7kWQ9D.s:77     .text.temp_sensor_callback:0000000000000046 .LVL7
     /tmp/cc7kWQ9D.s:86     .text.temp_sensor_callback:0000000000000060 .LVL8
GAS LISTING /tmp/cc7kWQ9D.s 			page 11


     /tmp/cc7kWQ9D.s:174    .text._check_temp:0000000000000000 .LFB4
     /tmp/cc7kWQ9D.s:189    .text._check_temp:000000000000000c .LFE4
     /tmp/cc7kWQ9D.s:2767   .debug_loc:00000000000000ed .LLST5
     /tmp/cc7kWQ9D.s:2896   .debug_str:0000000000000158 .LASF135
     /tmp/cc7kWQ9D.s:2972   .debug_str:00000000000002b1 .LASF136
     /tmp/cc7kWQ9D.s:3072   .debug_str:0000000000000571 .LASF137
     /tmp/cc7kWQ9D.s:22     .text.temp_sensor_callback:0000000000000002 .LCFI0
     /tmp/cc7kWQ9D.s:128    .text.temp_sensor_callback:0000000000000080 .LCFI1
     /tmp/cc7kWQ9D.s:136    .text.temp_sensor_callback:0000000000000088 .LCFI2
     /tmp/cc7kWQ9D.s:18     .text.temp_sensor_callback:0000000000000000 .LVL0
     /tmp/cc7kWQ9D.s:45     .text.temp_sensor_callback:000000000000001c .LVL2
     /tmp/cc7kWQ9D.s:58     .text.temp_sensor_callback:000000000000002c .LVL4
     /tmp/cc7kWQ9D.s:30     .text.temp_sensor_callback:000000000000000a .LVL1
     /tmp/cc7kWQ9D.s:71     .text.temp_sensor_callback:000000000000003c .LVL6
     /tmp/cc7kWQ9D.s:110    .text.temp_sensor_callback:0000000000000078 .LVL10
     /tmp/cc7kWQ9D.s:61     .text.temp_sensor_callback:0000000000000030 .LVL5
     /tmp/cc7kWQ9D.s:105    .text.temp_sensor_callback:0000000000000074 .LVL9
     /tmp/cc7kWQ9D.s:177    .text._check_temp:0000000000000000 .LVL13
     /tmp/cc7kWQ9D.s:181    .text._check_temp:0000000000000002 .LVL14
     /tmp/cc7kWQ9D.s:184    .text._check_temp:0000000000000006 .LVL15
     /tmp/cc7kWQ9D.s:212    .debug_info:0000000000000000 .Ldebug_info0
     /tmp/cc7kWQ9D.s:73     .text.temp_sensor_callback:000000000000003c .LBE12
     /tmp/cc7kWQ9D.s:88     .text.temp_sensor_callback:0000000000000060 .LBB15
     /tmp/cc7kWQ9D.s:95     .text.temp_sensor_callback:0000000000000066 .LBE15
     /tmp/cc7kWQ9D.s:118    .text.temp_sensor_callback:000000000000007c .LBE16
     /tmp/cc7kWQ9D.s:120    .text.temp_sensor_callback:000000000000007c .LBB21
     /tmp/cc7kWQ9D.s:125    .text.temp_sensor_callback:000000000000007e .LBE21
     /tmp/cc7kWQ9D.s:130    .text.temp_sensor_callback:0000000000000080 .LBB22
     /tmp/cc7kWQ9D.s:139    .text.temp_sensor_callback:0000000000000088 .LBE22
     /tmp/cc7kWQ9D.s:141    .text.temp_sensor_callback:0000000000000088 .LBB23
     /tmp/cc7kWQ9D.s:149    .text.temp_sensor_callback:0000000000000096 .LBE23

UNDEFINED SYMBOLS
LCD_ShowNum
LCD_ShowString
ds18B20init
