GAS LISTING /tmp/cc7kWQ9D.s 			page 1


   1              		.file	"temp_sensor.c"
   2              		.option nopic
   3              		.attribute arch, "rv32i2p0_m2p0_a2p0_c2p0"
   4              		.attribute unaligned_access, 0
   5              		.attribute stack_align, 16
   6              		.text
   7              	.Ltext0:
   8              		.cfi_sections	.debug_frame
   9              		.section	.text.temp_sensor_callback,"ax",@progbits
  10              		.align	1
  11              		.globl	temp_sensor_callback
  13              	temp_sensor_callback:
  14              	.LFB3:
  15              		.file 1 "temp_sensor.c"
   1:temp_sensor.c **** #include "temp_sensor.h"
   2:temp_sensor.c **** 
   3:temp_sensor.c **** /**
   4:temp_sensor.c ****  * @brief       Initializes the temperature sensor.
   5:temp_sensor.c ****  * 
   6:temp_sensor.c ****  * @return      None. 
   7:temp_sensor.c ****  */
   8:temp_sensor.c **** void temp_sensor_init()
   9:temp_sensor.c **** {
  10:temp_sensor.c ****     ds18B20init(&temp_sensor_callback);
  11:temp_sensor.c **** }
  12:temp_sensor.c **** 
  13:temp_sensor.c **** /**
  14:temp_sensor.c ****  * @brief       Converts the thermometer conversion to a decimal celsius value
  15:temp_sensor.c ****  *              with one decimal precision. 
  16:temp_sensor.c ****  * 
  17:temp_sensor.c ****  * @param[in]   temp: 16 bit temperature conversion value. The bit format of the 
  18:temp_sensor.c ****  *              conversion is SSSS SIII IIII FFFF where S are sign bits, 
  19:temp_sensor.c ****  *              I is the integer part of the temp, and F are the fraction bits counted in
  20:temp_sensor.c ****  *              sixteenths (e.g. FFFF = 0001 = 0.625).   
  21:temp_sensor.c ****  *
  22:temp_sensor.c ****  * @return      None. 
  23:temp_sensor.c ****  */
  24:temp_sensor.c **** void temp_sensor_callback(unsigned int temp) 
  25:temp_sensor.c **** {
  16              		.loc 1 25 1
  17              		.cfi_startproc
  18              	.LVL0:
  26:temp_sensor.c ****     // Get the I bits (integer value)
  27:temp_sensor.c ****     u16 temp_integer = temp >> 4;
  19              		.loc 1 27 5
  25:temp_sensor.c ****     // Get the I bits (integer value)
  20              		.loc 1 25 1 is_stmt 0
  21 0000 4111     		addi	sp,sp,-16
  22              	.LCFI0:
  23              		.cfi_def_cfa_offset 16
  24 0002 26C2     		sw	s1,4(sp)
  25 0004 4AC0     		sw	s2,0(sp)
  26              		.cfi_offset 9, -12
  27              		.cfi_offset 18, -16
  28              		.loc 1 27 9
  29 0006 93544500 		srli	s1,a0,4
  30              	.LVL1:
GAS LISTING /tmp/cc7kWQ9D.s 			page 2


  28:temp_sensor.c ****     LCD_ShowNum(8, 10, temp_integer, 2, WHITE);
  31              		.loc 1 28 5 is_stmt 1
  32 000a 4169     		li	s2,65536
  33 000c 2686     		mv	a2,s1
  25:temp_sensor.c ****     // Get the I bits (integer value)
  34              		.loc 1 25 1 is_stmt 0
  35 000e 22C4     		sw	s0,8(sp)
  36              		.loc 1 28 5
  37 0010 1307F9FF 		addi	a4,s2,-1
  38              		.cfi_offset 8, -8
  25:temp_sensor.c ****     // Get the I bits (integer value)
  39              		.loc 1 25 1
  40 0014 2A84     		mv	s0,a0
  41              		.loc 1 28 5
  42 0016 8946     		li	a3,2
  43 0018 A945     		li	a1,10
  44 001a 2145     		li	a0,8
  45              	.LVL2:
  25:temp_sensor.c ****     // Get the I bits (integer value)
  46              		.loc 1 25 1
  47 001c 06C6     		sw	ra,12(sp)
  48              		.cfi_offset 1, -4
  49              		.loc 1 28 5
  50 001e 97000000 		call	LCD_ShowNum
  50      E7800000 
  51              	.LVL3:
  29:temp_sensor.c **** 
  30:temp_sensor.c ****     // Get the F bits (fraction)
  31:temp_sensor.c ****     u16 temp_sixteenths = temp & 0x000F;
  52              		.loc 1 31 5 is_stmt 1
  32:temp_sensor.c ****     u16 temp_fraction = temp_sixteenths * 625;
  53              		.loc 1 32 5
  54              		.loc 1 32 9 is_stmt 0
  55 0026 93071027 		li	a5,625
  31:temp_sensor.c ****     u16 temp_fraction = temp_sixteenths * 625;
  56              		.loc 1 31 9
  57 002a 3D88     		andi	s0,s0,15
  58              	.LVL4:
  59              		.loc 1 32 9
  60 002c 3304F402 		mul	s0,s0,a5
  61              	.LVL5:
  33:temp_sensor.c **** 
  34:temp_sensor.c ****     LCD_ShowNum(30, 30, temp_fraction, 4, WHITE);
  62              		.loc 1 34 5 is_stmt 1
  63 0030 1307F9FF 		addi	a4,s2,-1
  64 0034 9146     		li	a3,4
  65 0036 F945     		li	a1,30
  66 0038 7945     		li	a0,30
  67              	.LBB12:
  68              	.LBB13:
  35:temp_sensor.c **** 
  36:temp_sensor.c ****     // Show only 1 decimal
  37:temp_sensor.c ****     LCD_ShowNum(8, 30, temp_fraction / 1000, 1, WHITE);
  38:temp_sensor.c **** 
  39:temp_sensor.c ****     if(_check_temp(temp_integer) == TEMP_OK) {
  40:temp_sensor.c ****         LCD_ShowString(30, 10, "OK", GREEN);
  41:temp_sensor.c ****     } else { 
GAS LISTING /tmp/cc7kWQ9D.s 			page 3


  42:temp_sensor.c ****         LCD_ShowString(30, 10, "NO", RED);
  43:temp_sensor.c ****     }
  44:temp_sensor.c **** }
  45:temp_sensor.c **** 
  46:temp_sensor.c **** /**
  47:temp_sensor.c ****  * @brief       Checks if the provided temperature is in a valid range
  48:temp_sensor.c ****  * 
  49:temp_sensor.c ****  * @param[in]   temp: the measured temperature 
  50:temp_sensor.c ****  *
  51:temp_sensor.c ****  * @return      TEMP_OK if the temperature is in valid range, otherwise 
  52:temp_sensor.c ****  *              TEMP_WARNING is returned.
  53:temp_sensor.c ****  */
  54:temp_sensor.c **** TEMPERATURE_STATUS _check_temp(u16 temp)
  55:temp_sensor.c **** {
  56:temp_sensor.c ****     if(temp >= 24 && temp <= 26) {
  69              		.loc 1 56 19 is_stmt 0
  70 003a A114     		addi	s1,s1,-24
  71              	.LVL6:
  72              	.LBE13:
  73              	.LBE12:
  34:temp_sensor.c **** 
  74              		.loc 1 34 5
  75 003c 2286     		mv	a2,s0
  76 003e 97000000 		call	LCD_ShowNum
  76      E7800000 
  77              	.LVL7:
  37:temp_sensor.c **** 
  78              		.loc 1 37 5 is_stmt 1
  79 0046 1306803E 		li	a2,1000
  80 004a 3356C402 		divu	a2,s0,a2
  81 004e 1307F9FF 		addi	a4,s2,-1
  82 0052 8546     		li	a3,1
  83 0054 F945     		li	a1,30
  84 0056 2145     		li	a0,8
  85 0058 97000000 		call	LCD_ShowNum
  85      E7800000 
  86              	.LVL8:
  39:temp_sensor.c ****         LCD_ShowString(30, 10, "OK", GREEN);
  87              		.loc 1 39 5
  88              	.LBB15:
  89              	.LBB14:
  90              		.loc 1 56 5
  91              		.loc 1 56 7 is_stmt 0
  92 0060 8947     		li	a5,2
  93 0062 63F39702 		bleu	s1,a5,.L2
  94              	.LBE14:
  95              	.LBE15:
  42:temp_sensor.c ****     }
  96              		.loc 1 42 9 is_stmt 1
  97 0066 37060000 		lui	a2,%hi(.LC0)
  98 006a 93060980 		addi	a3,s2,-2048
  99 006e 13060600 		addi	a2,a2,%lo(.LC0)
 100              	.L4:
  44:temp_sensor.c **** 
 101              		.loc 1 44 1 is_stmt 0
 102 0072 2244     		lw	s0,8(sp)
 103              		.cfi_remember_state
GAS LISTING /tmp/cc7kWQ9D.s 			page 4


 104              		.cfi_restore 8
 105              	.LVL9:
 106 0074 B240     		lw	ra,12(sp)
 107              		.cfi_restore 1
 108 0076 9244     		lw	s1,4(sp)
 109              		.cfi_restore 9
 110              	.LVL10:
 111 0078 0249     		lw	s2,0(sp)
 112              		.cfi_restore 18
 113              	.LBB16:
 114              	.LBB17:
  40:temp_sensor.c ****     } else { 
 115              		.loc 1 40 9
 116 007a A945     		li	a1,10
 117              	.LBE17:
 118              	.LBE16:
  44:temp_sensor.c **** 
 119              		.loc 1 44 1
 120              	.LBB21:
 121              	.LBB18:
  40:temp_sensor.c ****     } else { 
 122              		.loc 1 40 9
 123 007c 7945     		li	a0,30
 124              	.LBE18:
 125              	.LBE21:
  44:temp_sensor.c **** 
 126              		.loc 1 44 1
 127 007e 4101     		addi	sp,sp,16
 128              	.LCFI1:
 129              		.cfi_def_cfa_offset 0
 130              	.LBB22:
 131              	.LBB19:
  40:temp_sensor.c ****     } else { 
 132              		.loc 1 40 9
 133 0080 17030000 		tail	LCD_ShowString
 133      67000300 
 134              	.LVL11:
 135              	.L2:
 136              	.LCFI2:
 137              		.cfi_restore_state
 138              	.LBE19:
 139              	.LBE22:
  57:temp_sensor.c ****         return TEMP_OK;
 140              		.loc 1 57 9 is_stmt 1
 141              	.LBB23:
 142              	.LBB20:
  40:temp_sensor.c ****     } else { 
 143              		.loc 1 40 9
 144 0088 37060000 		lui	a2,%hi(.LC1)
 145 008c 9306007E 		li	a3,2016
 146 0090 13060600 		addi	a2,a2,%lo(.LC1)
 147 0094 F9BF     		j	.L4
 148              	.LBE20:
 149              	.LBE23:
 150              		.cfi_endproc
 151              	.LFE3:
 153              		.section	.text.temp_sensor_init,"ax",@progbits
GAS LISTING /tmp/cc7kWQ9D.s 			page 5


 154              		.align	1
 155              		.globl	temp_sensor_init
 157              	temp_sensor_init:
 158              	.LFB2:
   9:temp_sensor.c ****     ds18B20init(&temp_sensor_callback);
 159              		.loc 1 9 1
 160              		.cfi_startproc
  10:temp_sensor.c **** }
 161              		.loc 1 10 5
 162 0000 37050000 		lui	a0,%hi(temp_sensor_callback)
 163 0004 13050500 		addi	a0,a0,%lo(temp_sensor_callback)
 164 0008 17030000 		tail	ds18B20init
 164      67000300 
 165              	.LVL12:
 166              		.cfi_endproc
 167              	.LFE2:
 169              		.section	.text._check_temp,"ax",@progbits
 170              		.align	1
 171              		.globl	_check_temp
 173              	_check_temp:
 174              	.LFB4:
  55:temp_sensor.c ****     if(temp >= 24 && temp <= 26) {
 175              		.loc 1 55 1
 176              		.cfi_startproc
 177              	.LVL13:
  56:temp_sensor.c ****         return TEMP_OK;
 178              		.loc 1 56 5
  56:temp_sensor.c ****         return TEMP_OK;
 179              		.loc 1 56 19 is_stmt 0
 180 0000 2115     		addi	a0,a0,-24
 181              	.LVL14:
  56:temp_sensor.c ****         return TEMP_OK;
 182              		.loc 1 56 7
 183 0002 13353500 		sltiu	a0,a0,3
 184              	.LVL15:
  58:temp_sensor.c ****     }
  59:temp_sensor.c **** 
  60:temp_sensor.c ****     return TEMP_WARNING;
  61:temp_sensor.c **** }
 185              		.loc 1 61 1
 186 0006 13451500 		xori	a0,a0,1
 187 000a 8280     		ret
 188              		.cfi_endproc
 189              	.LFE4:
 191              		.section	.rodata.temp_sensor_callback.str1.4,"aMS",@progbits,1
 192              		.align	2
 193              	.LC0:
 194 0000 4E4F00   		.string	"NO"
 195 0003 00       		.zero	1
 196              	.LC1:
 197 0004 4F4B00   		.string	"OK"
 198              		.text
 199              	.Letext0:
 200              		.file 2 "/home/lintu/Documents/school/IK1332/Ik1332-project2-group3/compiler/riscv64-unknown-elf/i
 201              		.file 3 "/home/lintu/Documents/school/IK1332/Ik1332-project2-group3/compiler/riscv64-unknown-elf/i
 202              		.file 4 "/home/lintu/Documents/school/IK1332/Ik1332-project2-group3/compiler/lib/gcc/riscv64-unkno
 203              		.file 5 "/home/lintu/Documents/school/IK1332/Ik1332-project2-group3/compiler/riscv64-unknown-elf/i
GAS LISTING /tmp/cc7kWQ9D.s 			page 6


 204              		.file 6 "/home/lintu/Documents/school/IK1332/Ik1332-project2-group3/compiler/riscv64-unknown-elf/i
 205              		.file 7 "/home/lintu/Documents/school/IK1332/Ik1332-project2-group3/compiler/riscv64-unknown-elf/i
 206              		.file 8 "../../firmware/GD32VF103_standard_peripheral/system_gd32vf103.h"
 207              		.file 9 "/home/lintu/Documents/school/IK1332/Ik1332-project2-group3/compiler/riscv64-unknown-elf/i
 208              		.file 10 "lcd.h"
 209              		.file 11 "temp_sensor.h"
 210              		.file 12 "ds18b20.h"
GAS LISTING /tmp/cc7kWQ9D.s 			page 7

