GAS LISTING /tmp/ccd9jSu5.s 			page 1


   1              		.file	"temp_sensor.c"
   2              		.option nopic
   3              		.attribute arch, "rv32i2p0_m2p0_a2p0_c2p0"
   4              		.attribute unaligned_access, 0
   5              		.attribute stack_align, 16
   6              		.text
   7              	.Ltext0:
   8              		.cfi_sections	.debug_frame
   9              		.section	.text.temp_sensor_callback,"ax",@progbits
  10              		.align	1
  11              		.globl	temp_sensor_callback
  13              	temp_sensor_callback:
  14              	.LFB3:
  15              		.file 1 "temp_sensor.c"
   1:temp_sensor.c **** #include "temp_sensor.h"
   2:temp_sensor.c **** #include "stdbool.h"
   3:temp_sensor.c **** 
   4:temp_sensor.c **** #define SIMULATE_TEMP // comment this out to read the real temperature from the sensor
   5:temp_sensor.c **** 
   6:temp_sensor.c **** #ifdef SIMULATE_TEMP
   7:temp_sensor.c **** #include "temp_simulation.h"
   8:temp_sensor.c **** #define STATES 2
   9:temp_sensor.c **** static bool fridge_door_states[STATES] = { // For each run, if the fridge door is open (TRUE) or cl
  10:temp_sensor.c ****     false, true 
  11:temp_sensor.c **** };
  12:temp_sensor.c **** static u32 simulation_run = 0;
  13:temp_sensor.c **** #endif
  14:temp_sensor.c **** 
  15:temp_sensor.c **** #define MAX_READINGS 20 
  16:temp_sensor.c **** 
  17:temp_sensor.c **** static u16 temp_readings[MAX_READINGS];
  18:temp_sensor.c **** static u16 temp_index = 0;
  19:temp_sensor.c **** static u16 temp_normal_avg;    // The "normal" avg. temp. calculated in the initialization procedur
  20:temp_sensor.c **** 
  21:temp_sensor.c **** /**
  22:temp_sensor.c ****  * @brief       Initializes the temperature sensor.
  23:temp_sensor.c ****  * 
  24:temp_sensor.c ****  * @return      None. 
  25:temp_sensor.c ****  */
  26:temp_sensor.c **** void temp_sensor_init()
  27:temp_sensor.c **** {
  28:temp_sensor.c ****     ds18B20init(&temp_sensor_callback);
  29:temp_sensor.c **** }
  30:temp_sensor.c **** 
  31:temp_sensor.c **** /**
  32:temp_sensor.c ****  * @brief       This function gets called whenever there's a new temperature reading.
  33:temp_sensor.c ****  *              It will calculate sample averages and notify the user if unwanted 
  34:temp_sensor.c ****  *              fluctuation has been detected.
  35:temp_sensor.c ****  * 
  36:temp_sensor.c ****  * @param[in]   temp: 16 bit temperature conversion value. The bit format of the 
  37:temp_sensor.c ****  *              conversion is SSSS SIII IIII FFFF where S are sign bits, 
  38:temp_sensor.c ****  *              I is the integer part of the temp, and F are the fraction bits counted in
  39:temp_sensor.c ****  *              sixteenths (e.g. FFFF = 0001 = 0.625).   
  40:temp_sensor.c ****  *
  41:temp_sensor.c ****  * @return      None. 
  42:temp_sensor.c ****  */
  43:temp_sensor.c **** void temp_sensor_callback(unsigned int temp) 
GAS LISTING /tmp/ccd9jSu5.s 			page 2


  44:temp_sensor.c **** {
  16              		.loc 1 44 1
  17              		.cfi_startproc
  18              	.LVL0:
  45:temp_sensor.c ****     // Get the I bits (integer value)
  46:temp_sensor.c ****     u16 temp_integer;
  19              		.loc 1 46 5
  47:temp_sensor.c **** #ifdef SIMULATE_TEMP
  48:temp_sensor.c ****     if(fridge_door_states[simulation_run] == TRUE) {
  20              		.loc 1 48 5
  44:temp_sensor.c ****     // Get the I bits (integer value)
  21              		.loc 1 44 1 is_stmt 0
  22 0000 4111     		addi	sp,sp,-16
  23              	.LCFI0:
  24              		.cfi_def_cfa_offset 16
  25 0002 22C4     		sw	s0,8(sp)
  26              		.cfi_offset 8, -8
  27              		.loc 1 48 26
  28 0004 37040000 		lui	s0,%hi(.LANCHOR1)
  29 0008 13040400 		addi	s0,s0,%lo(.LANCHOR1)
  30 000c 1840     		lw	a4,0(s0)
  31 000e B7070000 		lui	a5,%hi(.LANCHOR0)
  32 0012 93870700 		addi	a5,a5,%lo(.LANCHOR0)
  33 0016 BA97     		add	a5,a5,a4
  34              		.loc 1 48 7
  35 0018 83C70700 		lbu	a5,0(a5)
  44:temp_sensor.c ****     // Get the I bits (integer value)
  36              		.loc 1 44 1
  37 001c 06C6     		sw	ra,12(sp)
  38              		.cfi_offset 1, -4
  39              		.loc 1 48 7
  40 001e A1CB     		beq	a5,zero,.L2
  49:temp_sensor.c ****         temp_integer = simulate_temp_reading_cold();
  41              		.loc 1 49 9 is_stmt 1
  42              		.loc 1 49 24 is_stmt 0
  43 0020 97000000 		call	simulate_temp_reading_cold
  43      E7800000 
  44              	.LVL1:
  45              	.L3:
  50:temp_sensor.c ****     } else {
  51:temp_sensor.c ****         temp_integer = simulate_temp_reading_normal();
  52:temp_sensor.c ****     }
  53:temp_sensor.c **** #else
  54:temp_sensor.c ****     temp_integer = temp >> 4;
  55:temp_sensor.c **** #endif
  56:temp_sensor.c ****     temp_readings[temp_index++] = temp_integer;
  46              		.loc 1 56 5 is_stmt 1
  47              		.loc 1 56 29 is_stmt 0
  48 0028 B7060000 		lui	a3,%hi(.LANCHOR2)
  49 002c 93860600 		addi	a3,a3,%lo(.LANCHOR2)
  50 0030 9C42     		lw	a5,0(a3)
  51              		.loc 1 56 33
  52 0032 37070000 		lui	a4,%hi(.LANCHOR3)
  53 0036 13070700 		addi	a4,a4,%lo(.LANCHOR3)
  54 003a 13962700 		slli	a2,a5,2
  55 003e 3297     		add	a4,a4,a2
  56              		.loc 1 56 29
GAS LISTING /tmp/ccd9jSu5.s 			page 3


  57 0040 8507     		addi	a5,a5,1
  58              		.loc 1 56 33
  59 0042 08C3     		sw	a0,0(a4)
  57:temp_sensor.c **** 
  58:temp_sensor.c ****     // Get the F bits (fraction) (right now we don't care about the fraction)
  59:temp_sensor.c ****     // u16 temp_sixteenths = temp & 0x000F;
  60:temp_sensor.c **** 
  61:temp_sensor.c ****     // Save one decimal
  62:temp_sensor.c ****     // u16 temp_fraction = (temp_sixteenths * 625) / 1000;
  63:temp_sensor.c **** 
  64:temp_sensor.c ****     if(temp_index >= MAX_READINGS) {
  60              		.loc 1 64 5 is_stmt 1
  56:temp_sensor.c **** 
  61              		.loc 1 56 29 is_stmt 0
  62 0044 9CC2     		sw	a5,0(a3)
  63              		.loc 1 64 7
  64 0046 4D47     		li	a4,19
  65 0048 637FF700 		bleu	a5,a4,.L1
  66              	.LVL2:
  65:temp_sensor.c ****         _check_temp();
  66:temp_sensor.c **** 
  67:temp_sensor.c ****         /* Start reading new samples */
  68:temp_sensor.c ****         temp_index = 0;
  69:temp_sensor.c **** 
  70:temp_sensor.c **** #ifdef SIMULATE_TEMP
  71:temp_sensor.c ****         simulation_run = (simulation_run + 1) % STATES;
  72:temp_sensor.c **** #endif
  73:temp_sensor.c ****     }
  74:temp_sensor.c **** }
  75:temp_sensor.c **** 
  76:temp_sensor.c **** /**
  77:temp_sensor.c ****  * @brief       Calculates a new sample average, compares this to the normal sample 
  78:temp_sensor.c ****  *              average, and then returns the result of the comparison. The first time this
  79:temp_sensor.c ****  *              function is called it will set the temp. normal avg. to the calculated sample avg.
  80:temp_sensor.c ****  * 
  81:temp_sensor.c ****  * @return      TEMP_OK if no fluctuation has been detected, otherwise TEMP_WARNING
  82:temp_sensor.c ****  *              will be returned.
  83:temp_sensor.c ****  */
  84:temp_sensor.c **** TEMPERATURE_STATUS _check_temp()
  85:temp_sensor.c **** {
  86:temp_sensor.c ****     static bool temp_initialized = false;
  87:temp_sensor.c **** 
  88:temp_sensor.c ****     /* Calculate new sample average */
  89:temp_sensor.c ****     u16 temp_sample_avg = 0;
  90:temp_sensor.c ****     for(int i = 0; i < MAX_READINGS; i++) {
  91:temp_sensor.c ****         temp_sample_avg += temp_readings[i];
  67              		.loc 1 91 9 is_stmt 1
  68              	.LBB16:
  69              	.LBB17:
  70              	.LBB18:
  71              	.LBB19:
  92:temp_sensor.c ****     }
  93:temp_sensor.c ****     temp_sample_avg /= MAX_READINGS;
  72              		.loc 1 93 5
  94:temp_sensor.c **** 
  95:temp_sensor.c ****     if(temp_initialized == true) {
  73              		.loc 1 95 5
GAS LISTING /tmp/ccd9jSu5.s 			page 4


  74              		.loc 1 95 25 is_stmt 0
  75 004c B7070000 		lui	a5,%hi(.LANCHOR4)
  76 0050 93870700 		addi	a5,a5,%lo(.LANCHOR4)
  77              		.loc 1 95 7
  78 0054 03C70700 		lbu	a4,0(a5)
  79 0058 05C3     		beq	a4,zero,.L8
  80              	.L5:
  96:temp_sensor.c ****         /* We will multiply by 100 to get better precision when dividing */
  97:temp_sensor.c ****         /* Just remember that were counting in hundreds */
  98:temp_sensor.c ****         uint16_t temp_sample_avg_fp = temp_sample_avg * 100; 
  99:temp_sensor.c **** 
 100:temp_sensor.c ****         /* Calculate how much the new avg. deviates from the old avg. in percentage */
 101:temp_sensor.c ****         /* A drop in temperature will result in negative deviation */
 102:temp_sensor.c ****         int32_t deviation = (100 - (temp_sample_avg_fp / temp_normal_avg)) * -1; 
 103:temp_sensor.c **** 
 104:temp_sensor.c ****         // TODO: Alarm user if temp. deviated a certain amount (e.g. dropped 15% in temp.)
 105:temp_sensor.c ****     } else {
 106:temp_sensor.c ****         temp_normal_avg = temp_sample_avg;
 107:temp_sensor.c ****         temp_initialized = TRUE;
 108:temp_sensor.c ****     }
 109:temp_sensor.c **** 
 110:temp_sensor.c ****     return TEMP_OK;
  81              		.loc 1 110 5 is_stmt 1
  82              	.LVL3:
  83              	.LBE19:
  84              	.LBE18:
  68:temp_sensor.c **** 
  85              		.loc 1 68 9
  71:temp_sensor.c **** #endif
  86              		.loc 1 71 42 is_stmt 0
  87 005a 1C40     		lw	a5,0(s0)
  68:temp_sensor.c **** 
  88              		.loc 1 68 20
  89 005c 23A00600 		sw	zero,0(a3)
  71:temp_sensor.c **** #endif
  90              		.loc 1 71 9 is_stmt 1
  71:temp_sensor.c **** #endif
  91              		.loc 1 71 42 is_stmt 0
  92 0060 8507     		addi	a5,a5,1
  71:temp_sensor.c **** #endif
  93              		.loc 1 71 47
  94 0062 858B     		andi	a5,a5,1
  71:temp_sensor.c **** #endif
  95              		.loc 1 71 24
  96 0064 1CC0     		sw	a5,0(s0)
  97              	.L1:
  98              	.LBE17:
  99              	.LBE16:
  74:temp_sensor.c **** 
 100              		.loc 1 74 1
 101 0066 B240     		lw	ra,12(sp)
 102              		.cfi_remember_state
 103              		.cfi_restore 1
 104 0068 2244     		lw	s0,8(sp)
 105              		.cfi_restore 8
 106 006a 4101     		addi	sp,sp,16
 107              	.LCFI1:
GAS LISTING /tmp/ccd9jSu5.s 			page 5


 108              		.cfi_def_cfa_offset 0
 109 006c 8280     		jr	ra
 110              	.LVL4:
 111              	.L2:
 112              	.LCFI2:
 113              		.cfi_restore_state
  51:temp_sensor.c ****     }
 114              		.loc 1 51 9 is_stmt 1
  51:temp_sensor.c ****     }
 115              		.loc 1 51 24 is_stmt 0
 116 006e 97000000 		call	simulate_temp_reading_normal
 116      E7800000 
 117              	.LVL5:
 118 0076 4DBF     		j	.L3
 119              	.LVL6:
 120              	.L8:
 121              	.LBB23:
 122              	.LBB22:
 123              	.LBB21:
 124              	.LBB20:
 106:temp_sensor.c ****         temp_initialized = TRUE;
 125              		.loc 1 106 9 is_stmt 1
 107:temp_sensor.c ****     }
 126              		.loc 1 107 9
 107:temp_sensor.c ****     }
 127              		.loc 1 107 26 is_stmt 0
 128 0078 0547     		li	a4,1
 129 007a 2380E700 		sb	a4,0(a5)
 130 007e F1BF     		j	.L5
 131              	.LBE20:
 132              	.LBE21:
 133              	.LBE22:
 134              	.LBE23:
 135              		.cfi_endproc
 136              	.LFE3:
 138              		.section	.text.temp_sensor_init,"ax",@progbits
 139              		.align	1
 140              		.globl	temp_sensor_init
 142              	temp_sensor_init:
 143              	.LFB2:
  27:temp_sensor.c ****     ds18B20init(&temp_sensor_callback);
 144              		.loc 1 27 1 is_stmt 1
 145              		.cfi_startproc
  28:temp_sensor.c **** }
 146              		.loc 1 28 5
 147 0000 37050000 		lui	a0,%hi(temp_sensor_callback)
 148 0004 13050500 		addi	a0,a0,%lo(temp_sensor_callback)
 149 0008 17030000 		tail	ds18B20init
 149      67000300 
 150              	.LVL7:
 151              		.cfi_endproc
 152              	.LFE2:
 154              		.section	.text._check_temp,"ax",@progbits
 155              		.align	1
 156              		.globl	_check_temp
 158              	_check_temp:
 159              	.LFB4:
GAS LISTING /tmp/ccd9jSu5.s 			page 6


  85:temp_sensor.c ****     static bool temp_initialized = false;
 160              		.loc 1 85 1
 161              		.cfi_startproc
  86:temp_sensor.c **** 
 162              		.loc 1 86 5
  89:temp_sensor.c ****     for(int i = 0; i < MAX_READINGS; i++) {
 163              		.loc 1 89 5
 164              	.LVL8:
  90:temp_sensor.c ****         temp_sample_avg += temp_readings[i];
 165              		.loc 1 90 5
  90:temp_sensor.c ****         temp_sample_avg += temp_readings[i];
 166              		.loc 1 90 9
  91:temp_sensor.c ****     }
 167              		.loc 1 91 9
  93:temp_sensor.c **** 
 168              		.loc 1 93 5
  95:temp_sensor.c ****         /* We will multiply by 100 to get better precision when dividing */
 169              		.loc 1 95 5
  95:temp_sensor.c ****         /* We will multiply by 100 to get better precision when dividing */
 170              		.loc 1 95 25 is_stmt 0
 171 0000 B7070000 		lui	a5,%hi(.LANCHOR4)
 172 0004 93870700 		addi	a5,a5,%lo(.LANCHOR4)
  95:temp_sensor.c ****         /* We will multiply by 100 to get better precision when dividing */
 173              		.loc 1 95 7
 174 0008 03C70700 		lbu	a4,0(a5)
 175 000c 01E7     		bne	a4,zero,.L11
 106:temp_sensor.c ****         temp_initialized = TRUE;
 176              		.loc 1 106 9 is_stmt 1
 107:temp_sensor.c ****     }
 177              		.loc 1 107 9
 107:temp_sensor.c ****     }
 178              		.loc 1 107 26 is_stmt 0
 179 000e 0547     		li	a4,1
 180 0010 2380E700 		sb	a4,0(a5)
 181              	.L11:
 182              		.loc 1 110 5 is_stmt 1
 111:temp_sensor.c **** }
 183              		.loc 1 111 1 is_stmt 0
 184 0014 0145     		li	a0,0
 185 0016 8280     		ret
 186              		.cfi_endproc
 187              	.LFE4:
 189              		.section	.bss.temp_readings,"aw",@nobits
 190              		.align	2
 191              		.set	.LANCHOR3,. + 0
 194              	temp_readings:
 195 0000 00000000 		.zero	80
 195      00000000 
 195      00000000 
 195      00000000 
 195      00000000 
 196              		.section	.sbss.simulation_run,"aw",@nobits
 197              		.align	2
 198              		.set	.LANCHOR1,. + 0
 201              	simulation_run:
 202 0000 00000000 		.zero	4
 203              		.section	.sbss.temp_index,"aw",@nobits
GAS LISTING /tmp/ccd9jSu5.s 			page 7


 204              		.align	2
 205              		.set	.LANCHOR2,. + 0
 208              	temp_index:
 209 0000 00000000 		.zero	4
 210              		.section	.sbss.temp_initialized.4218,"aw",@nobits
 211              		.set	.LANCHOR4,. + 0
 214              	temp_initialized.4218:
 215 0000 00       		.zero	1
 216              		.section	.sdata2.fridge_door_states,"a"
 217              		.align	2
 218              		.set	.LANCHOR0,. + 0
 221              	fridge_door_states:
 222 0000 00       		.byte	0
 223 0001 01       		.byte	1
 224              		.text
 225              	.Letext0:
 226              		.file 2 "/home/lintu/Documents/school/IK1332/Ik1332-project2-group3/compiler/riscv64-unknown-elf/i
 227              		.file 3 "/home/lintu/Documents/school/IK1332/Ik1332-project2-group3/compiler/riscv64-unknown-elf/i
 228              		.file 4 "/home/lintu/Documents/school/IK1332/Ik1332-project2-group3/compiler/lib/gcc/riscv64-unkno
 229              		.file 5 "/home/lintu/Documents/school/IK1332/Ik1332-project2-group3/compiler/riscv64-unknown-elf/i
 230              		.file 6 "/home/lintu/Documents/school/IK1332/Ik1332-project2-group3/compiler/riscv64-unknown-elf/i
 231              		.file 7 "/home/lintu/Documents/school/IK1332/Ik1332-project2-group3/compiler/riscv64-unknown-elf/i
 232              		.file 8 "../../firmware/GD32VF103_standard_peripheral/system_gd32vf103.h"
 233              		.file 9 "/home/lintu/Documents/school/IK1332/Ik1332-project2-group3/compiler/riscv64-unknown-elf/i
 234              		.file 10 "lcd.h"
 235              		.file 11 "../../firmware/GD32VF103_standard_peripheral/gd32vf103.h"
 236              		.file 12 "temp_sensor.h"
 237              		.file 13 "ds18b20.h"
 238              		.file 14 "temp_simulation.h"
GAS LISTING /tmp/ccd9jSu5.s 			page 8


DEFINED SYMBOLS
                            *ABS*:0000000000000000 temp_sensor.c
     /tmp/ccd9jSu5.s:13     .text.temp_sensor_callback:0000000000000000 temp_sensor_callback
     /tmp/ccd9jSu5.s:17     .text.temp_sensor_callback:0000000000000000 .L0 
     /tmp/ccd9jSu5.s:19     .text.temp_sensor_callback:0000000000000000 .L0 
     /tmp/ccd9jSu5.s:20     .text.temp_sensor_callback:0000000000000000 .L0 
     /tmp/ccd9jSu5.s:21     .text.temp_sensor_callback:0000000000000000 .L0 
     /tmp/ccd9jSu5.s:22     .text.temp_sensor_callback:0000000000000000 .L0 
     /tmp/ccd9jSu5.s:24     .text.temp_sensor_callback:0000000000000002 .L0 
     /tmp/ccd9jSu5.s:26     .text.temp_sensor_callback:0000000000000004 .L0 
     /tmp/ccd9jSu5.s:28     .text.temp_sensor_callback:0000000000000004 .L0 
     /tmp/ccd9jSu5.s:35     .text.temp_sensor_callback:0000000000000018 .L0 
     /tmp/ccd9jSu5.s:37     .text.temp_sensor_callback:000000000000001c .L0 
     /tmp/ccd9jSu5.s:38     .text.temp_sensor_callback:000000000000001e .L0 
     /tmp/ccd9jSu5.s:40     .text.temp_sensor_callback:000000000000001e .L0 
     /tmp/ccd9jSu5.s:42     .text.temp_sensor_callback:0000000000000020 .L0 
     /tmp/ccd9jSu5.s:43     .text.temp_sensor_callback:0000000000000020 .L0 
     /tmp/ccd9jSu5.s:47     .text.temp_sensor_callback:0000000000000028 .L0 
     /tmp/ccd9jSu5.s:48     .text.temp_sensor_callback:0000000000000028 .L0 
     /tmp/ccd9jSu5.s:52     .text.temp_sensor_callback:0000000000000032 .L0 
     /tmp/ccd9jSu5.s:57     .text.temp_sensor_callback:0000000000000040 .L0 
     /tmp/ccd9jSu5.s:59     .text.temp_sensor_callback:0000000000000042 .L0 
     /tmp/ccd9jSu5.s:61     .text.temp_sensor_callback:0000000000000044 .L0 
     /tmp/ccd9jSu5.s:62     .text.temp_sensor_callback:0000000000000044 .L0 
     /tmp/ccd9jSu5.s:64     .text.temp_sensor_callback:0000000000000046 .L0 
     /tmp/ccd9jSu5.s:72     .text.temp_sensor_callback:000000000000004c .L0 
     /tmp/ccd9jSu5.s:73     .text.temp_sensor_callback:000000000000004c .L0 
     /tmp/ccd9jSu5.s:74     .text.temp_sensor_callback:000000000000004c .L0 
     /tmp/ccd9jSu5.s:75     .text.temp_sensor_callback:000000000000004c .L0 
     /tmp/ccd9jSu5.s:78     .text.temp_sensor_callback:0000000000000054 .L0 
     /tmp/ccd9jSu5.s:85     .text.temp_sensor_callback:000000000000005a .L0 
     /tmp/ccd9jSu5.s:86     .text.temp_sensor_callback:000000000000005a .L0 
     /tmp/ccd9jSu5.s:87     .text.temp_sensor_callback:000000000000005a .L0 
     /tmp/ccd9jSu5.s:89     .text.temp_sensor_callback:000000000000005c .L0 
     /tmp/ccd9jSu5.s:91     .text.temp_sensor_callback:0000000000000060 .L0 
     /tmp/ccd9jSu5.s:92     .text.temp_sensor_callback:0000000000000060 .L0 
     /tmp/ccd9jSu5.s:94     .text.temp_sensor_callback:0000000000000062 .L0 
     /tmp/ccd9jSu5.s:96     .text.temp_sensor_callback:0000000000000064 .L0 
     /tmp/ccd9jSu5.s:101    .text.temp_sensor_callback:0000000000000066 .L0 
     /tmp/ccd9jSu5.s:102    .text.temp_sensor_callback:0000000000000068 .L0 
     /tmp/ccd9jSu5.s:103    .text.temp_sensor_callback:0000000000000068 .L0 
     /tmp/ccd9jSu5.s:105    .text.temp_sensor_callback:000000000000006a .L0 
     /tmp/ccd9jSu5.s:108    .text.temp_sensor_callback:000000000000006c .L0 
     /tmp/ccd9jSu5.s:113    .text.temp_sensor_callback:000000000000006e .L0 
     /tmp/ccd9jSu5.s:115    .text.temp_sensor_callback:000000000000006e .L0 
     /tmp/ccd9jSu5.s:116    .text.temp_sensor_callback:000000000000006e .L0 
     /tmp/ccd9jSu5.s:126    .text.temp_sensor_callback:0000000000000078 .L0 
     /tmp/ccd9jSu5.s:127    .text.temp_sensor_callback:0000000000000078 .L0 
     /tmp/ccd9jSu5.s:128    .text.temp_sensor_callback:0000000000000078 .L0 
     /tmp/ccd9jSu5.s:135    .text.temp_sensor_callback:0000000000000080 .L0 
     /tmp/ccd9jSu5.s:142    .text.temp_sensor_init:0000000000000000 temp_sensor_init
     /tmp/ccd9jSu5.s:145    .text.temp_sensor_init:0000000000000000 .L0 
     /tmp/ccd9jSu5.s:146    .text.temp_sensor_init:0000000000000000 .L0 
     /tmp/ccd9jSu5.s:147    .text.temp_sensor_init:0000000000000000 .L0 
     /tmp/ccd9jSu5.s:151    .text.temp_sensor_init:0000000000000010 .L0 
     /tmp/ccd9jSu5.s:158    .text._check_temp:0000000000000000 _check_temp
     /tmp/ccd9jSu5.s:161    .text._check_temp:0000000000000000 .L0 
GAS LISTING /tmp/ccd9jSu5.s 			page 9


     /tmp/ccd9jSu5.s:162    .text._check_temp:0000000000000000 .L0 
     /tmp/ccd9jSu5.s:163    .text._check_temp:0000000000000000 .L0 
     /tmp/ccd9jSu5.s:165    .text._check_temp:0000000000000000 .L0 
     /tmp/ccd9jSu5.s:166    .text._check_temp:0000000000000000 .L0 
     /tmp/ccd9jSu5.s:167    .text._check_temp:0000000000000000 .L0 
     /tmp/ccd9jSu5.s:168    .text._check_temp:0000000000000000 .L0 
     /tmp/ccd9jSu5.s:169    .text._check_temp:0000000000000000 .L0 
     /tmp/ccd9jSu5.s:170    .text._check_temp:0000000000000000 .L0 
     /tmp/ccd9jSu5.s:171    .text._check_temp:0000000000000000 .L0 
     /tmp/ccd9jSu5.s:174    .text._check_temp:0000000000000008 .L0 
     /tmp/ccd9jSu5.s:177    .text._check_temp:000000000000000e .L0 
     /tmp/ccd9jSu5.s:178    .text._check_temp:000000000000000e .L0 
     /tmp/ccd9jSu5.s:179    .text._check_temp:000000000000000e .L0 
     /tmp/ccd9jSu5.s:183    .text._check_temp:0000000000000014 .L0 
     /tmp/ccd9jSu5.s:184    .text._check_temp:0000000000000014 .L0 
     /tmp/ccd9jSu5.s:186    .text._check_temp:0000000000000018 .L0 
     /tmp/ccd9jSu5.s:191    .bss.temp_readings:0000000000000000 .LANCHOR3
     /tmp/ccd9jSu5.s:194    .bss.temp_readings:0000000000000000 temp_readings
     /tmp/ccd9jSu5.s:198    .sbss.simulation_run:0000000000000000 .LANCHOR1
     /tmp/ccd9jSu5.s:201    .sbss.simulation_run:0000000000000000 simulation_run
     /tmp/ccd9jSu5.s:205    .sbss.temp_index:0000000000000000 .LANCHOR2
     /tmp/ccd9jSu5.s:208    .sbss.temp_index:0000000000000000 temp_index
     /tmp/ccd9jSu5.s:211    .sbss.temp_initialized.4218:0000000000000000 .LANCHOR4
     /tmp/ccd9jSu5.s:214    .sbss.temp_initialized.4218:0000000000000000 temp_initialized.4218
     /tmp/ccd9jSu5.s:218    .sdata2.fridge_door_states:0000000000000000 .LANCHOR0
     /tmp/ccd9jSu5.s:221    .sdata2.fridge_door_states:0000000000000000 fridge_door_states
     /tmp/ccd9jSu5.s:138    .text.temp_sensor_callback:0000000000000080 .L0 
     /tmp/ccd9jSu5.s:154    .text.temp_sensor_init:0000000000000010 .L0 
     /tmp/ccd9jSu5.s:189    .text._check_temp:0000000000000018 .L0 
                     .debug_frame:0000000000000000 .L0 
     /tmp/ccd9jSu5.s:111    .text.temp_sensor_callback:000000000000006e .L2
     /tmp/ccd9jSu5.s:97     .text.temp_sensor_callback:0000000000000066 .L1
     /tmp/ccd9jSu5.s:120    .text.temp_sensor_callback:0000000000000078 .L8
     /tmp/ccd9jSu5.s:45     .text.temp_sensor_callback:0000000000000028 .L3
     /tmp/ccd9jSu5.s:80     .text.temp_sensor_callback:000000000000005a .L5
     /tmp/ccd9jSu5.s:181    .text._check_temp:0000000000000014 .L11
     /tmp/ccd9jSu5.s:1988   .debug_abbrev:0000000000000000 .Ldebug_abbrev0
     /tmp/ccd9jSu5.s:2997   .debug_str:000000000000033c .LASF152
     /tmp/ccd9jSu5.s:2891   .debug_str:0000000000000135 .LASF153
     /tmp/ccd9jSu5.s:3021   .debug_str:0000000000000430 .LASF154
     /tmp/ccd9jSu5.s:2813   .debug_ranges:0000000000000000 .Ldebug_ranges0
     /tmp/ccd9jSu5.s:2835   .debug_line:0000000000000000 .Ldebug_line0
     /tmp/ccd9jSu5.s:3091   .debug_str:00000000000005d6 .LASF0
     /tmp/ccd9jSu5.s:2879   .debug_str:0000000000000100 .LASF1
     /tmp/ccd9jSu5.s:2849   .debug_str:0000000000000040 .LASF4
     /tmp/ccd9jSu5.s:3025   .debug_str:0000000000000497 .LASF2
     /tmp/ccd9jSu5.s:2839   .debug_str:000000000000000c .LASF3
     /tmp/ccd9jSu5.s:3093   .debug_str:00000000000005e3 .LASF5
     /tmp/ccd9jSu5.s:3105   .debug_str:0000000000000623 .LASF6
     /tmp/ccd9jSu5.s:2981   .debug_str:00000000000002ea .LASF7
     /tmp/ccd9jSu5.s:2853   .debug_str:0000000000000053 .LASF8
     /tmp/ccd9jSu5.s:2923   .debug_str:00000000000001eb .LASF9
     /tmp/ccd9jSu5.s:2947   .debug_str:000000000000024f .LASF10
     /tmp/ccd9jSu5.s:2909   .debug_str:000000000000019d .LASF11
     /tmp/ccd9jSu5.s:2861   .debug_str:000000000000008c .LASF12
     /tmp/ccd9jSu5.s:3097   .debug_str:00000000000005ff .LASF13
     /tmp/ccd9jSu5.s:2975   .debug_str:00000000000002d5 .LASF14
GAS LISTING /tmp/ccd9jSu5.s 			page 10


     /tmp/ccd9jSu5.s:3023   .debug_str:000000000000048f .LASF15
     /tmp/ccd9jSu5.s:3149   .debug_str:000000000000070c .LASF16
     /tmp/ccd9jSu5.s:2941   .debug_str:000000000000022f .LASF128
     /tmp/ccd9jSu5.s:3013   .debug_str:00000000000003fa .LASF17
     /tmp/ccd9jSu5.s:2957   .debug_str:0000000000000287 .LASF18
     /tmp/ccd9jSu5.s:3081   .debug_str:00000000000005af .LASF19
     /tmp/ccd9jSu5.s:3011   .debug_str:00000000000003f3 .LASF20
     /tmp/ccd9jSu5.s:2875   .debug_str:00000000000000f2 .LASF21
     /tmp/ccd9jSu5.s:3077   .debug_str:00000000000005a1 .LASF22
     /tmp/ccd9jSu5.s:3125   .debug_str:0000000000000696 .LASF23
     /tmp/ccd9jSu5.s:2967   .debug_str:00000000000002b8 .LASF24
     /tmp/ccd9jSu5.s:2939   .debug_str:0000000000000228 .LASF25
     /tmp/ccd9jSu5.s:2987   .debug_str:0000000000000305 .LASF26
     /tmp/ccd9jSu5.s:3071   .debug_str:0000000000000589 .LASF27
     /tmp/ccd9jSu5.s:3017   .debug_str:0000000000000413 .LASF28
     /tmp/ccd9jSu5.s:3109   .debug_str:000000000000063b .LASF29
     /tmp/ccd9jSu5.s:3019   .debug_str:000000000000041e .LASF30
     /tmp/ccd9jSu5.s:3033   .debug_str:00000000000004d1 .LASF31
     /tmp/ccd9jSu5.s:2931   .debug_str:0000000000000210 .LASF36
     /tmp/ccd9jSu5.s:3099   .debug_str:0000000000000607 .LASF32
     /tmp/ccd9jSu5.s:3061   .debug_str:0000000000000559 .LASF33
     /tmp/ccd9jSu5.s:2925   .debug_str:00000000000001f6 .LASF34
     /tmp/ccd9jSu5.s:3121   .debug_str:000000000000068b .LASF35
     /tmp/ccd9jSu5.s:2937   .debug_str:0000000000000223 .LASF37
     /tmp/ccd9jSu5.s:2871   .debug_str:00000000000000d4 .LASF38
     /tmp/ccd9jSu5.s:3141   .debug_str:00000000000006eb .LASF39
     /tmp/ccd9jSu5.s:2885   .debug_str:0000000000000118 .LASF40
     /tmp/ccd9jSu5.s:3151   .debug_str:0000000000000715 .LASF41
     /tmp/ccd9jSu5.s:2999   .debug_str:00000000000003b6 .LASF42
     /tmp/ccd9jSu5.s:2985   .debug_str:00000000000002fb .LASF43
     /tmp/ccd9jSu5.s:3075   .debug_str:0000000000000597 .LASF44
     /tmp/ccd9jSu5.s:3035   .debug_str:00000000000004da .LASF45
     /tmp/ccd9jSu5.s:3137   .debug_str:00000000000006d1 .LASF46
     /tmp/ccd9jSu5.s:2889   .debug_str:0000000000000127 .LASF47
     /tmp/ccd9jSu5.s:2841   .debug_str:0000000000000016 .LASF48
     /tmp/ccd9jSu5.s:2837   .debug_str:0000000000000000 .LASF49
     /tmp/ccd9jSu5.s:3103   .debug_str:000000000000061a .LASF50
     /tmp/ccd9jSu5.s:2903   .debug_str:0000000000000184 .LASF51
     /tmp/ccd9jSu5.s:3001   .debug_str:00000000000003bf .LASF52
     /tmp/ccd9jSu5.s:3053   .debug_str:0000000000000529 .LASF53
     /tmp/ccd9jSu5.s:2921   .debug_str:00000000000001e6 .LASF54
     /tmp/ccd9jSu5.s:3037   .debug_str:00000000000004e4 .LASF55
     /tmp/ccd9jSu5.s:2883   .debug_str:0000000000000112 .LASF56
     /tmp/ccd9jSu5.s:3089   .debug_str:00000000000005d0 .LASF57
     /tmp/ccd9jSu5.s:3045   .debug_str:0000000000000504 .LASF58
     /tmp/ccd9jSu5.s:2901   .debug_str:000000000000017d .LASF59
     /tmp/ccd9jSu5.s:2949   .debug_str:0000000000000261 .LASF60
     /tmp/ccd9jSu5.s:2863   .debug_str:00000000000000a3 .LASF61
     /tmp/ccd9jSu5.s:2893   .debug_str:0000000000000143 .LASF62
     /tmp/ccd9jSu5.s:2933   .debug_str:0000000000000218 .LASF63
     /tmp/ccd9jSu5.s:2983   .debug_str:00000000000002f4 .LASF64
     /tmp/ccd9jSu5.s:3073   .debug_str:0000000000000591 .LASF65
     /tmp/ccd9jSu5.s:2877   .debug_str:00000000000000f9 .LASF66
     /tmp/ccd9jSu5.s:2881   .debug_str:000000000000010c .LASF67
     /tmp/ccd9jSu5.s:3131   .debug_str:00000000000006b3 .LASF68
     /tmp/ccd9jSu5.s:3087   .debug_str:00000000000005c7 .LASF69
     /tmp/ccd9jSu5.s:2915   .debug_str:00000000000001bf .LASF70
GAS LISTING /tmp/ccd9jSu5.s 			page 11


     /tmp/ccd9jSu5.s:2951   .debug_str:0000000000000267 .LASF71
     /tmp/ccd9jSu5.s:2977   .debug_str:00000000000002de .LASF72
     /tmp/ccd9jSu5.s:2847   .debug_str:0000000000000037 .LASF73
     /tmp/ccd9jSu5.s:3039   .debug_str:00000000000004eb .LASF74
     /tmp/ccd9jSu5.s:3063   .debug_str:0000000000000561 .LASF75
     /tmp/ccd9jSu5.s:3083   .debug_str:00000000000005bb .LASF76
     /tmp/ccd9jSu5.s:2905   .debug_str:000000000000018c .LASF77
     /tmp/ccd9jSu5.s:2943   .debug_str:000000000000023f .LASF78
     /tmp/ccd9jSu5.s:2929   .debug_str:0000000000000208 .LASF79
     /tmp/ccd9jSu5.s:3051   .debug_str:0000000000000524 .LASF80
     /tmp/ccd9jSu5.s:2845   .debug_str:000000000000002c .LASF81
     /tmp/ccd9jSu5.s:3059   .debug_str:0000000000000540 .LASF82
     /tmp/ccd9jSu5.s:3055   .debug_str:000000000000052e .LASF83
     /tmp/ccd9jSu5.s:3005   .debug_str:00000000000003d1 .LASF84
     /tmp/ccd9jSu5.s:3057   .debug_str:0000000000000536 .LASF85
     /tmp/ccd9jSu5.s:2965   .debug_str:00000000000002b0 .LASF86
     /tmp/ccd9jSu5.s:2907   .debug_str:0000000000000193 .LASF87
     /tmp/ccd9jSu5.s:3147   .debug_str:0000000000000707 .LASF88
     /tmp/ccd9jSu5.s:3041   .debug_str:00000000000004f3 .LASF89
     /tmp/ccd9jSu5.s:2945   .debug_str:0000000000000247 .LASF90
     /tmp/ccd9jSu5.s:2913   .debug_str:00000000000001b7 .LASF91
     /tmp/ccd9jSu5.s:2973   .debug_str:00000000000002d0 .LASF92
     /tmp/ccd9jSu5.s:2851   .debug_str:000000000000004a .LASF93
     /tmp/ccd9jSu5.s:3129   .debug_str:00000000000006a9 .LASF94
     /tmp/ccd9jSu5.s:2895   .debug_str:000000000000014b .LASF95
     /tmp/ccd9jSu5.s:2887   .debug_str:0000000000000122 .LASF96
     /tmp/ccd9jSu5.s:3085   .debug_str:00000000000005c2 .LASF97
     /tmp/ccd9jSu5.s:3043   .debug_str:00000000000004fd .LASF98
     /tmp/ccd9jSu5.s:3123   .debug_str:0000000000000690 .LASF99
     /tmp/ccd9jSu5.s:2953   .debug_str:000000000000026d .LASF100
     /tmp/ccd9jSu5.s:3027   .debug_str:00000000000004a5 .LASF101
     /tmp/ccd9jSu5.s:3065   .debug_str:0000000000000568 .LASF102
     /tmp/ccd9jSu5.s:3067   .debug_str:0000000000000570 .LASF103
     /tmp/ccd9jSu5.s:2979   .debug_str:00000000000002e4 .LASF104
     /tmp/ccd9jSu5.s:3107   .debug_str:0000000000000636 .LASF105
     /tmp/ccd9jSu5.s:3119   .debug_str:000000000000067e .LASF106
     /tmp/ccd9jSu5.s:3101   .debug_str:000000000000060d .LASF107
     /tmp/ccd9jSu5.s:2963   .debug_str:00000000000002a3 .LASF108
     /tmp/ccd9jSu5.s:3139   .debug_str:00000000000006dc .LASF109
     /tmp/ccd9jSu5.s:3007   .debug_str:00000000000003dc .LASF110
     /tmp/ccd9jSu5.s:2959   .debug_str:000000000000028c .LASF111
     /tmp/ccd9jSu5.s:3143   .debug_str:00000000000006f4 .LASF112
     /tmp/ccd9jSu5.s:3049   .debug_str:0000000000000517 .LASF113
     /tmp/ccd9jSu5.s:3145   .debug_str:00000000000006f9 .LASF114
     /tmp/ccd9jSu5.s:2869   .debug_str:00000000000000c6 .LASF115
     /tmp/ccd9jSu5.s:3127   .debug_str:000000000000069f .LASF116
     /tmp/ccd9jSu5.s:2961   .debug_str:0000000000000297 .LASF117
     /tmp/ccd9jSu5.s:3111   .debug_str:0000000000000643 .LASF118
     /tmp/ccd9jSu5.s:2919   .debug_str:00000000000001d8 .LASF119
     /tmp/ccd9jSu5.s:2867   .debug_str:00000000000000b7 .LASF120
     /tmp/ccd9jSu5.s:2917   .debug_str:00000000000001c7 .LASF121
     /tmp/ccd9jSu5.s:2855   .debug_str:000000000000005c .LASF122
     /tmp/ccd9jSu5.s:2859   .debug_str:000000000000007b .LASF123
     /tmp/ccd9jSu5.s:3031   .debug_str:00000000000004c8 .LASF124
     /tmp/ccd9jSu5.s:2969   .debug_str:00000000000002be .LASF125
     /tmp/ccd9jSu5.s:2991   .debug_str:000000000000031a .LASF126
     /tmp/ccd9jSu5.s:3133   .debug_str:00000000000006b9 .LASF127
GAS LISTING /tmp/ccd9jSu5.s 			page 12


     /tmp/ccd9jSu5.s:2865   .debug_str:00000000000000ac .LASF155
     /tmp/ccd9jSu5.s:2927   .debug_str:00000000000001fc .LASF129
     /tmp/ccd9jSu5.s:3113   .debug_str:0000000000000650 .LASF130
     /tmp/ccd9jSu5.s:3003   .debug_str:00000000000003c7 .LASF131
     /tmp/ccd9jSu5.s:2971   .debug_str:00000000000002c5 .LASF132
     /tmp/ccd9jSu5.s:3009   .debug_str:00000000000003eb .LASF133
     /tmp/ccd9jSu5.s:2989   .debug_str:000000000000030d .LASF134
     /tmp/ccd9jSu5.s:3069   .debug_str:0000000000000576 .LASF135
     /tmp/ccd9jSu5.s:3079   .debug_str:00000000000005a9 .LASF136
     /tmp/ccd9jSu5.s:3015   .debug_str:0000000000000400 .LASF137
     /tmp/ccd9jSu5.s:2897   .debug_str:0000000000000153 .LASF138
     /tmp/ccd9jSu5.s:2843   .debug_str:000000000000001e .LASF139
     /tmp/ccd9jSu5.s:3047   .debug_str:000000000000050c .LASF140
     /tmp/ccd9jSu5.s:3135   .debug_str:00000000000006c1 .LASF142
     /tmp/ccd9jSu5.s:2993   .debug_str:0000000000000323 .LASF146
     /tmp/ccd9jSu5.s:3115   .debug_str:0000000000000663 .LASF141
     /tmp/ccd9jSu5.s:2857   .debug_str:000000000000006b .LASF143
     /tmp/ccd9jSu5.s:2955   .debug_str:0000000000000274 .LASF144
     /tmp/ccd9jSu5.s:3117   .debug_str:0000000000000674 .LASF145
     /tmp/ccd9jSu5.s:2873   .debug_str:00000000000000dd .LASF147
     /tmp/ccd9jSu5.s:2935   .debug_str:000000000000021e .LASF156
     /tmp/ccd9jSu5.s:2995   .debug_str:000000000000032f .LASF148
     /tmp/ccd9jSu5.s:3095   .debug_str:00000000000005ee .LASF157
     /tmp/ccd9jSu5.s:143    .text.temp_sensor_init:0000000000000000 .LFB2
     /tmp/ccd9jSu5.s:152    .text.temp_sensor_init:0000000000000010 .LFE2
     /tmp/ccd9jSu5.s:150    .text.temp_sensor_init:0000000000000010 .LVL7
     /tmp/ccd9jSu5.s:14     .text.temp_sensor_callback:0000000000000000 .LFB3
     /tmp/ccd9jSu5.s:136    .text.temp_sensor_callback:0000000000000080 .LFE3
     /tmp/ccd9jSu5.s:2737   .debug_loc:0000000000000000 .LLST0
     /tmp/ccd9jSu5.s:2760   .debug_loc:0000000000000038 .LLST1
     /tmp/ccd9jSu5.s:2785   .debug_loc:0000000000000072 .LLST2
     /tmp/ccd9jSu5.s:68     .text.temp_sensor_callback:000000000000004c .LBB16
     /tmp/ccd9jSu5.s:70     .text.temp_sensor_callback:000000000000004c .LBB18
     /tmp/ccd9jSu5.s:44     .text.temp_sensor_callback:0000000000000028 .LVL1
     /tmp/ccd9jSu5.s:117    .text.temp_sensor_callback:0000000000000076 .LVL5
     /tmp/ccd9jSu5.s:159    .text._check_temp:0000000000000000 .LFB4
     /tmp/ccd9jSu5.s:187    .text._check_temp:0000000000000018 .LFE4
     /tmp/ccd9jSu5.s:2911   .debug_str:00000000000001ab .LASF149
     /tmp/ccd9jSu5.s:2899   .debug_str:0000000000000162 .LASF150
     /tmp/ccd9jSu5.s:3029   .debug_str:00000000000004ab .LASF151
     /tmp/ccd9jSu5.s:23     .text.temp_sensor_callback:0000000000000002 .LCFI0
     /tmp/ccd9jSu5.s:107    .text.temp_sensor_callback:000000000000006c .LCFI1
     /tmp/ccd9jSu5.s:112    .text.temp_sensor_callback:000000000000006e .LCFI2
     /tmp/ccd9jSu5.s:18     .text.temp_sensor_callback:0000000000000000 .LVL0
     /tmp/ccd9jSu5.s:110    .text.temp_sensor_callback:000000000000006e .LVL4
     /tmp/ccd9jSu5.s:240    .debug_info:0000000000000000 .Ldebug_info0
     /tmp/ccd9jSu5.s:99     .text.temp_sensor_callback:0000000000000066 .LBE16
     /tmp/ccd9jSu5.s:121    .text.temp_sensor_callback:0000000000000078 .LBB23
     /tmp/ccd9jSu5.s:134    .text.temp_sensor_callback:0000000000000080 .LBE23
     /tmp/ccd9jSu5.s:84     .text.temp_sensor_callback:000000000000005a .LBE18
     /tmp/ccd9jSu5.s:123    .text.temp_sensor_callback:0000000000000078 .LBB21
     /tmp/ccd9jSu5.s:132    .text.temp_sensor_callback:0000000000000080 .LBE21

UNDEFINED SYMBOLS
simulate_temp_reading_cold
simulate_temp_reading_normal
ds18B20init
GAS LISTING /tmp/ccd9jSu5.s 			page 13


