GAS LISTING /tmp/ccLtFtT9.s 			page 1


   1              		.file	"main.c"
   2              		.option nopic
   3              		.attribute arch, "rv32i2p0_m2p0_a2p0_c2p0"
   4              		.attribute unaligned_access, 0
   5              		.attribute stack_align, 16
   6              		.text
   7              	.Ltext0:
   8              		.cfi_sections	.debug_frame
   9              		.section	.text.startup.main,"ax",@progbits
  10              		.align	1
  11              		.globl	main
  13              	main:
  14              	.LFB2:
  15              		.file 1 "main.c"
   1:main.c        **** #include "gd32vf103.h"
   2:main.c        **** #include "math.h"
   3:main.c        **** #define BITMASK 0xFFFFFFF8
   4:main.c        **** 
   5:main.c        **** int main()
   6:main.c        **** {
  16              		.loc 1 6 1
  17              		.cfi_startproc
   7:main.c        ****     uint32_t port = 0;
  18              		.loc 1 7 5
  19              	.LVL0:
   8:main.c        ****     uint32_t count = 0;
  20              		.loc 1 8 5
   9:main.c        ****     rcu_periph_clock_enable(RCU_GPIOB);
  21              		.loc 1 9 5
   6:main.c        ****     uint32_t port = 0;
  22              		.loc 1 6 1 is_stmt 0
  23 0000 0111     		addi	sp,sp,-32
  24              	.LCFI0:
  25              		.cfi_def_cfa_offset 32
  26              		.loc 1 9 5
  27 0002 13053060 		li	a0,1539
   6:main.c        ****     uint32_t port = 0;
  28              		.loc 1 6 1
  29 0006 06CE     		sw	ra,28(sp)
  30 0008 22CC     		sw	s0,24(sp)
  31 000a 26CA     		sw	s1,20(sp)
  32 000c 4AC8     		sw	s2,16(sp)
  33              		.cfi_offset 1, -4
  34              		.cfi_offset 8, -8
  35              		.cfi_offset 9, -12
  36              		.cfi_offset 18, -16
  10:main.c        ****     gpio_init(GPIOB, GPIO_MODE_OUT_PP, GPIO_OSPEED_50MHZ, GPIO_PIN_0 | GPIO_PIN_1 | GPIO_PIN_2);
  37              		.loc 1 10 5
  38 000e B7140140 		li	s1,1073811456
   9:main.c        ****     rcu_periph_clock_enable(RCU_GPIOB);
  39              		.loc 1 9 5
  40 0012 97000000 		call	rcu_periph_clock_enable
  40      E7800000 
  41              	.LVL1:
  42              		.loc 1 10 5 is_stmt 1
  43 001a 138504C0 		addi	a0,s1,-1024
  44 001e 9D46     		li	a3,7
GAS LISTING /tmp/ccLtFtT9.s 			page 2


  45 0020 0D46     		li	a2,3
  46 0022 C145     		li	a1,16
  47              	.LBB2:
  11:main.c        ****     while(1)
  12:main.c        ****     {
  13:main.c        ****         count += 1;
  14:main.c        ****         port = gpio_input_port_get(GPIOB);
  15:main.c        ****         gpio_port_write(GPIOB, (port & BITMASK) | (count & (~BITMASK)));
  16:main.c        ****         for(volatile int i = 0; i < 1000000; i++);
  48              		.loc 1 16 9 is_stmt 0
  49 0024 37490F00 		li	s2,999424
  50              	.LBE2:
  10:main.c        ****     gpio_init(GPIOB, GPIO_MODE_OUT_PP, GPIO_OSPEED_50MHZ, GPIO_PIN_0 | GPIO_PIN_1 | GPIO_PIN_2);
  51              		.loc 1 10 5
  52 0028 97000000 		call	gpio_init
  52      E7800000 
  53              	.LVL2:
   8:main.c        ****     rcu_periph_clock_enable(RCU_GPIOB);
  54              		.loc 1 8 14
  55 0030 0144     		li	s0,0
  14:main.c        ****         gpio_port_write(GPIOB, (port & BITMASK) | (count & (~BITMASK)));
  56              		.loc 1 14 16
  57 0032 938404C0 		addi	s1,s1,-1024
  58              	.LBB3:
  59              		.loc 1 16 9
  60 0036 1309F923 		addi	s2,s2,575
  61              	.LVL3:
  62              	.L4:
  63              	.LBE3:
  11:main.c        ****     while(1)
  64              		.loc 1 11 5 is_stmt 1
  13:main.c        ****         port = gpio_input_port_get(GPIOB);
  65              		.loc 1 13 9
  14:main.c        ****         gpio_port_write(GPIOB, (port & BITMASK) | (count & (~BITMASK)));
  66              		.loc 1 14 16 is_stmt 0
  67 003a 2685     		mv	a0,s1
  68 003c 97000000 		call	gpio_input_port_get
  68      E7800000 
  69              	.LVL4:
  13:main.c        ****         port = gpio_input_port_get(GPIOB);
  70              		.loc 1 13 15
  71 0044 0504     		addi	s0,s0,1
  72              	.LVL5:
  14:main.c        ****         gpio_port_write(GPIOB, (port & BITMASK) | (count & (~BITMASK)));
  73              		.loc 1 14 9 is_stmt 1
  15:main.c        ****         for(volatile int i = 0; i < 1000000; i++);
  74              		.loc 1 15 9
  15:main.c        ****         for(volatile int i = 0; i < 1000000; i++);
  75              		.loc 1 15 38 is_stmt 0
  76 0046 6199     		andi	a0,a0,-8
  77              	.LVL6:
  15:main.c        ****         for(volatile int i = 0; i < 1000000; i++);
  78              		.loc 1 15 58
  79 0048 93757400 		andi	a1,s0,7
  15:main.c        ****         for(volatile int i = 0; i < 1000000; i++);
  80              		.loc 1 15 9
  81 004c C98D     		or	a1,a0,a1
GAS LISTING /tmp/ccLtFtT9.s 			page 3


  82 004e C205     		slli	a1,a1,16
  83 0050 C181     		srli	a1,a1,16
  84 0052 2685     		mv	a0,s1
  85 0054 97000000 		call	gpio_port_write
  85      E7800000 
  86              	.LVL7:
  87              		.loc 1 16 9 is_stmt 1
  88              	.LBB4:
  89              		.loc 1 16 13
  90              		.loc 1 16 26 is_stmt 0
  91 005c 02C6     		sw	zero,12(sp)
  92              		.loc 1 16 35
  93 005e B247     		lw	a5,12(sp)
  94              		.loc 1 16 9
  95 0060 E34DF9FC 		bgt	a5,s2,.L4
  96              	.L3:
  97              		.loc 1 16 50 is_stmt 1 discriminator 3
  98              		.loc 1 16 47 is_stmt 0 discriminator 3
  99 0064 B247     		lw	a5,12(sp)
 100 0066 8507     		addi	a5,a5,1
 101 0068 3EC6     		sw	a5,12(sp)
 102              		.loc 1 16 35 discriminator 3
 103 006a B247     		lw	a5,12(sp)
 104              		.loc 1 16 9 discriminator 3
 105 006c E35CF9FE 		ble	a5,s2,.L3
 106 0070 E9B7     		j	.L4
 107              	.LBE4:
 108              		.cfi_endproc
 109              	.LFE2:
 111              		.text
 112              	.Letext0:
 113              		.file 2 "/home/remahl/toolchain-gd32v/toolchain-gd32v-linux/compiler/riscv64-unknown-elf/include/m
 114              		.file 3 "/home/remahl/toolchain-gd32v/toolchain-gd32v-linux/compiler/riscv64-unknown-elf/include/s
 115              		.file 4 "/home/remahl/toolchain-gd32v/toolchain-gd32v-linux/compiler/lib/gcc/riscv64-unknown-elf/8
 116              		.file 5 "/home/remahl/toolchain-gd32v/toolchain-gd32v-linux/compiler/riscv64-unknown-elf/include/s
 117              		.file 6 "/home/remahl/toolchain-gd32v/toolchain-gd32v-linux/compiler/riscv64-unknown-elf/include/s
 118              		.file 7 "/home/remahl/toolchain-gd32v/toolchain-gd32v-linux/compiler/riscv64-unknown-elf/include/s
 119              		.file 8 "../../firmware/GD32VF103_standard_peripheral/system_gd32vf103.h"
 120              		.file 9 "/home/remahl/toolchain-gd32v/toolchain-gd32v-linux/compiler/riscv64-unknown-elf/include/m
 121              		.file 10 "../../firmware/GD32VF103_standard_peripheral/Include/gd32vf103_rcu.h"
 122              		.file 11 "../../firmware/GD32VF103_standard_peripheral/Include/gd32vf103_gpio.h"
GAS LISTING /tmp/ccLtFtT9.s 			page 4


DEFINED SYMBOLS
                            *ABS*:0000000000000000 main.c
     /tmp/ccLtFtT9.s:13     .text.startup.main:0000000000000000 main
     /tmp/ccLtFtT9.s:17     .text.startup.main:0000000000000000 .L0 
     /tmp/ccLtFtT9.s:18     .text.startup.main:0000000000000000 .L0 
     /tmp/ccLtFtT9.s:20     .text.startup.main:0000000000000000 .L0 
     /tmp/ccLtFtT9.s:21     .text.startup.main:0000000000000000 .L0 
     /tmp/ccLtFtT9.s:22     .text.startup.main:0000000000000000 .L0 
     /tmp/ccLtFtT9.s:23     .text.startup.main:0000000000000000 .L0 
     /tmp/ccLtFtT9.s:25     .text.startup.main:0000000000000002 .L0 
     /tmp/ccLtFtT9.s:27     .text.startup.main:0000000000000002 .L0 
     /tmp/ccLtFtT9.s:29     .text.startup.main:0000000000000006 .L0 
     /tmp/ccLtFtT9.s:33     .text.startup.main:000000000000000e .L0 
     /tmp/ccLtFtT9.s:34     .text.startup.main:000000000000000e .L0 
     /tmp/ccLtFtT9.s:35     .text.startup.main:000000000000000e .L0 
     /tmp/ccLtFtT9.s:36     .text.startup.main:000000000000000e .L0 
     /tmp/ccLtFtT9.s:38     .text.startup.main:000000000000000e .L0 
     /tmp/ccLtFtT9.s:40     .text.startup.main:0000000000000012 .L0 
     /tmp/ccLtFtT9.s:43     .text.startup.main:000000000000001a .L0 
     /tmp/ccLtFtT9.s:49     .text.startup.main:0000000000000024 .L0 
     /tmp/ccLtFtT9.s:52     .text.startup.main:0000000000000028 .L0 
     /tmp/ccLtFtT9.s:55     .text.startup.main:0000000000000030 .L0 
     /tmp/ccLtFtT9.s:57     .text.startup.main:0000000000000032 .L0 
     /tmp/ccLtFtT9.s:60     .text.startup.main:0000000000000036 .L0 
     /tmp/ccLtFtT9.s:65     .text.startup.main:000000000000003a .L0 
     /tmp/ccLtFtT9.s:66     .text.startup.main:000000000000003a .L0 
     /tmp/ccLtFtT9.s:67     .text.startup.main:000000000000003a .L0 
     /tmp/ccLtFtT9.s:71     .text.startup.main:0000000000000044 .L0 
     /tmp/ccLtFtT9.s:74     .text.startup.main:0000000000000046 .L0 
     /tmp/ccLtFtT9.s:75     .text.startup.main:0000000000000046 .L0 
     /tmp/ccLtFtT9.s:76     .text.startup.main:0000000000000046 .L0 
     /tmp/ccLtFtT9.s:79     .text.startup.main:0000000000000048 .L0 
     /tmp/ccLtFtT9.s:81     .text.startup.main:000000000000004c .L0 
     /tmp/ccLtFtT9.s:89     .text.startup.main:000000000000005c .L0 
     /tmp/ccLtFtT9.s:90     .text.startup.main:000000000000005c .L0 
     /tmp/ccLtFtT9.s:91     .text.startup.main:000000000000005c .L0 
     /tmp/ccLtFtT9.s:93     .text.startup.main:000000000000005e .L0 
     /tmp/ccLtFtT9.s:95     .text.startup.main:0000000000000060 .L0 
     /tmp/ccLtFtT9.s:98     .text.startup.main:0000000000000064 .L0 
     /tmp/ccLtFtT9.s:99     .text.startup.main:0000000000000064 .L0 
     /tmp/ccLtFtT9.s:103    .text.startup.main:000000000000006a .L0 
     /tmp/ccLtFtT9.s:105    .text.startup.main:000000000000006c .L0 
     /tmp/ccLtFtT9.s:108    .text.startup.main:0000000000000072 .L0 
     /tmp/ccLtFtT9.s:111    .text.startup.main:0000000000000072 .L0 
                     .debug_frame:0000000000000000 .L0 
     /tmp/ccLtFtT9.s:62     .text.startup.main:000000000000003a .L4
     /tmp/ccLtFtT9.s:96     .text.startup.main:0000000000000064 .L3
     /tmp/ccLtFtT9.s:1828   .debug_abbrev:0000000000000000 .Ldebug_abbrev0
     /tmp/ccLtFtT9.s:2681   .debug_str:0000000000000381 .LASF173
     /tmp/ccLtFtT9.s:2659   .debug_str:0000000000000315 .LASF174
     /tmp/ccLtFtT9.s:2829   .debug_str:00000000000006c5 .LASF175
     /tmp/ccLtFtT9.s:2483   .debug_ranges:0000000000000000 .Ldebug_ranges0
     /tmp/ccLtFtT9.s:2497   .debug_line:0000000000000000 .Ldebug_line0
     /tmp/ccLtFtT9.s:2781   .debug_str:00000000000005cb .LASF0
     /tmp/ccLtFtT9.s:2557   .debug_str:0000000000000135 .LASF1
     /tmp/ccLtFtT9.s:2519   .debug_str:0000000000000058 .LASF6
     /tmp/ccLtFtT9.s:2717   .debug_str:00000000000004ad .LASF2
GAS LISTING /tmp/ccLtFtT9.s 			page 5


     /tmp/ccLtFtT9.s:2785   .debug_str:00000000000005e1 .LASF3
     /tmp/ccLtFtT9.s:2801   .debug_str:0000000000000629 .LASF4
     /tmp/ccLtFtT9.s:2579   .debug_str:00000000000001a7 .LASF5
     /tmp/ccLtFtT9.s:2607   .debug_str:000000000000022c .LASF7
     /tmp/ccLtFtT9.s:2633   .debug_str:000000000000029c .LASF8
     /tmp/ccLtFtT9.s:2591   .debug_str:00000000000001da .LASF9
     /tmp/ccLtFtT9.s:2527   .debug_str:000000000000008b .LASF10
     /tmp/ccLtFtT9.s:2789   .debug_str:00000000000005f3 .LASF11
     /tmp/ccLtFtT9.s:2851   .debug_str:0000000000000761 .LASF12
     /tmp/ccLtFtT9.s:2625   .debug_str:0000000000000270 .LASF159
     /tmp/ccLtFtT9.s:2509   .debug_str:000000000000002d .LASF13
     /tmp/ccLtFtT9.s:2559   .debug_str:0000000000000141 .LASF14
     /tmp/ccLtFtT9.s:2797   .debug_str:0000000000000618 .LASF15
     /tmp/ccLtFtT9.s:2783   .debug_str:00000000000005d8 .LASF16
     /tmp/ccLtFtT9.s:2589   .debug_str:00000000000001d0 .LASF17
     /tmp/ccLtFtT9.s:2705   .debug_str:000000000000046b .LASF18
     /tmp/ccLtFtT9.s:2707   .debug_str:0000000000000476 .LASF19
     /tmp/ccLtFtT9.s:2709   .debug_str:0000000000000481 .LASF20
     /tmp/ccLtFtT9.s:2711   .debug_str:000000000000048c .LASF21
     /tmp/ccLtFtT9.s:2713   .debug_str:0000000000000497 .LASF22
     /tmp/ccLtFtT9.s:2715   .debug_str:00000000000004a2 .LASF23
     /tmp/ccLtFtT9.s:2795   .debug_str:000000000000060e .LASF24
     /tmp/ccLtFtT9.s:2505   .debug_str:000000000000001b .LASF25
     /tmp/ccLtFtT9.s:2507   .debug_str:0000000000000024 .LASF26
     /tmp/ccLtFtT9.s:2685   .debug_str:0000000000000406 .LASF27
     /tmp/ccLtFtT9.s:2687   .debug_str:0000000000000411 .LASF28
     /tmp/ccLtFtT9.s:2529   .debug_str:00000000000000a2 .LASF29
     /tmp/ccLtFtT9.s:2531   .debug_str:00000000000000ac .LASF30
     /tmp/ccLtFtT9.s:2831   .debug_str:000000000000070a .LASF31
     /tmp/ccLtFtT9.s:2763   .debug_str:0000000000000580 .LASF32
     /tmp/ccLtFtT9.s:2603   .debug_str:000000000000021e .LASF33
     /tmp/ccLtFtT9.s:2551   .debug_str:000000000000011e .LASF34
     /tmp/ccLtFtT9.s:2769   .debug_str:000000000000059b .LASF35
     /tmp/ccLtFtT9.s:2809   .debug_str:0000000000000656 .LASF36
     /tmp/ccLtFtT9.s:2649   .debug_str:00000000000002e6 .LASF37
     /tmp/ccLtFtT9.s:2641   .debug_str:00000000000002c6 .LASF38
     /tmp/ccLtFtT9.s:2517   .debug_str:0000000000000051 .LASF39
     /tmp/ccLtFtT9.s:2535   .debug_str:00000000000000bf .LASF40
     /tmp/ccLtFtT9.s:2627   .debug_str:0000000000000280 .LASF41
     /tmp/ccLtFtT9.s:2629   .debug_str:000000000000028a .LASF42
     /tmp/ccLtFtT9.s:2539   .debug_str:00000000000000d4 .LASF43
     /tmp/ccLtFtT9.s:2543   .debug_str:00000000000000ee .LASF44
     /tmp/ccLtFtT9.s:2637   .debug_str:00000000000002b4 .LASF45
     /tmp/ccLtFtT9.s:2639   .debug_str:00000000000002bd .LASF46
     /tmp/ccLtFtT9.s:2703   .debug_str:0000000000000460 .LASF47
     /tmp/ccLtFtT9.s:2503   .debug_str:0000000000000012 .LASF48
     /tmp/ccLtFtT9.s:2683   .debug_str:00000000000003fb .LASF49
     /tmp/ccLtFtT9.s:2771   .debug_str:00000000000005a4 .LASF50
     /tmp/ccLtFtT9.s:2695   .debug_str:000000000000043e .LASF51
     /tmp/ccLtFtT9.s:2553   .debug_str:0000000000000127 .LASF52
     /tmp/ccLtFtT9.s:2767   .debug_str:0000000000000593 .LASF53
     /tmp/ccLtFtT9.s:2823   .debug_str:00000000000006a8 .LASF54
     /tmp/ccLtFtT9.s:2657   .debug_str:000000000000030f .LASF55
     /tmp/ccLtFtT9.s:2623   .debug_str:0000000000000269 .LASF56
     /tmp/ccLtFtT9.s:2757   .debug_str:000000000000056a .LASF57
     /tmp/ccLtFtT9.s:2759   .debug_str:0000000000000572 .LASF58
     /tmp/ccLtFtT9.s:2701   .debug_str:0000000000000455 .LASF59
GAS LISTING /tmp/ccLtFtT9.s 			page 6


     /tmp/ccLtFtT9.s:2805   .debug_str:0000000000000641 .LASF60
     /tmp/ccLtFtT9.s:2673   .debug_str:0000000000000347 .LASF61
     /tmp/ccLtFtT9.s:2723   .debug_str:00000000000004ca .LASF62
     /tmp/ccLtFtT9.s:2615   .debug_str:0000000000000251 .LASF67
     /tmp/ccLtFtT9.s:2791   .debug_str:00000000000005fb .LASF63
     /tmp/ccLtFtT9.s:2751   .debug_str:0000000000000555 .LASF64
     /tmp/ccLtFtT9.s:2609   .debug_str:0000000000000237 .LASF65
     /tmp/ccLtFtT9.s:2819   .debug_str:000000000000069d .LASF66
     /tmp/ccLtFtT9.s:2621   .debug_str:0000000000000264 .LASF68
     /tmp/ccLtFtT9.s:2549   .debug_str:0000000000000115 .LASF69
     /tmp/ccLtFtT9.s:2841   .debug_str:000000000000073b .LASF70
     /tmp/ccLtFtT9.s:2565   .debug_str:0000000000000156 .LASF71
     /tmp/ccLtFtT9.s:2853   .debug_str:000000000000076a .LASF72
     /tmp/ccLtFtT9.s:2675   .debug_str:0000000000000359 .LASF73
     /tmp/ccLtFtT9.s:2669   .debug_str:0000000000000334 .LASF74
     /tmp/ccLtFtT9.s:2765   .debug_str:0000000000000589 .LASF75
     /tmp/ccLtFtT9.s:2725   .debug_str:00000000000004d3 .LASF76
     /tmp/ccLtFtT9.s:2837   .debug_str:0000000000000721 .LASF77
     /tmp/ccLtFtT9.s:2569   .debug_str:0000000000000165 .LASF78
     /tmp/ccLtFtT9.s:2511   .debug_str:0000000000000036 .LASF79
     /tmp/ccLtFtT9.s:2499   .debug_str:0000000000000000 .LASF80
     /tmp/ccLtFtT9.s:2799   .debug_str:0000000000000620 .LASF81
     /tmp/ccLtFtT9.s:2583   .debug_str:00000000000001b7 .LASF82
     /tmp/ccLtFtT9.s:2689   .debug_str:000000000000041c .LASF83
     /tmp/ccLtFtT9.s:2741   .debug_str:0000000000000516 .LASF84
     /tmp/ccLtFtT9.s:2605   .debug_str:0000000000000227 .LASF85
     /tmp/ccLtFtT9.s:2727   .debug_str:00000000000004dd .LASF86
     /tmp/ccLtFtT9.s:2563   .debug_str:0000000000000150 .LASF87
     /tmp/ccLtFtT9.s:2779   .debug_str:00000000000005c5 .LASF88
     /tmp/ccLtFtT9.s:2733   .debug_str:00000000000004f3 .LASF89
     /tmp/ccLtFtT9.s:2581   .debug_str:00000000000001b0 .LASF90
     /tmp/ccLtFtT9.s:2635   .debug_str:00000000000002ae .LASF91
     /tmp/ccLtFtT9.s:2533   .debug_str:00000000000000b6 .LASF92
     /tmp/ccLtFtT9.s:2571   .debug_str:0000000000000173 .LASF93
     /tmp/ccLtFtT9.s:2619   .debug_str:000000000000025e .LASF94
     /tmp/ccLtFtT9.s:2667   .debug_str:000000000000032d .LASF95
     /tmp/ccLtFtT9.s:2761   .debug_str:000000000000057a .LASF96
     /tmp/ccLtFtT9.s:2555   .debug_str:000000000000012e .LASF97
     /tmp/ccLtFtT9.s:2561   .debug_str:000000000000014a .LASF98
     /tmp/ccLtFtT9.s:2833   .debug_str:0000000000000713 .LASF99
     /tmp/ccLtFtT9.s:2777   .debug_str:00000000000005bc .LASF100
     /tmp/ccLtFtT9.s:2597   .debug_str:00000000000001f7 .LASF101
     /tmp/ccLtFtT9.s:2643   .debug_str:00000000000002ce .LASF102
     /tmp/ccLtFtT9.s:2663   .debug_str:0000000000000321 .LASF103
     /tmp/ccLtFtT9.s:2735   .debug_str:00000000000004fb .LASF104
     /tmp/ccLtFtT9.s:2729   .debug_str:00000000000004e4 .LASF105
     /tmp/ccLtFtT9.s:2753   .debug_str:000000000000055d .LASF106
     /tmp/ccLtFtT9.s:2773   .debug_str:00000000000005b0 .LASF107
     /tmp/ccLtFtT9.s:2585   .debug_str:00000000000001bf .LASF108
     /tmp/ccLtFtT9.s:2787   .debug_str:00000000000005eb .LASF109
     /tmp/ccLtFtT9.s:2613   .debug_str:0000000000000249 .LASF110
     /tmp/ccLtFtT9.s:2739   .debug_str:0000000000000511 .LASF111
     /tmp/ccLtFtT9.s:2515   .debug_str:0000000000000046 .LASF112
     /tmp/ccLtFtT9.s:2747   .debug_str:000000000000052d .LASF113
     /tmp/ccLtFtT9.s:2743   .debug_str:000000000000051b .LASF114
     /tmp/ccLtFtT9.s:2691   .debug_str:0000000000000424 .LASF115
     /tmp/ccLtFtT9.s:2745   .debug_str:0000000000000523 .LASF116
GAS LISTING /tmp/ccLtFtT9.s 			page 7


     /tmp/ccLtFtT9.s:2655   .debug_str:0000000000000307 .LASF117
     /tmp/ccLtFtT9.s:2587   .debug_str:00000000000001c6 .LASF118
     /tmp/ccLtFtT9.s:2847   .debug_str:0000000000000757 .LASF119
     /tmp/ccLtFtT9.s:2699   .debug_str:000000000000044b .LASF120
     /tmp/ccLtFtT9.s:2631   .debug_str:0000000000000294 .LASF121
     /tmp/ccLtFtT9.s:2595   .debug_str:00000000000001ef .LASF122
     /tmp/ccLtFtT9.s:2661   .debug_str:000000000000031c .LASF123
     /tmp/ccLtFtT9.s:2521   .debug_str:0000000000000062 .LASF124
     /tmp/ccLtFtT9.s:2827   .debug_str:00000000000006bb .LASF125
     /tmp/ccLtFtT9.s:2577   .debug_str:000000000000019f .LASF126
     /tmp/ccLtFtT9.s:2567   .debug_str:0000000000000160 .LASF127
     /tmp/ccLtFtT9.s:2775   .debug_str:00000000000005b7 .LASF128
     /tmp/ccLtFtT9.s:2731   .debug_str:00000000000004ec .LASF129
     /tmp/ccLtFtT9.s:2821   .debug_str:00000000000006a2 .LASF130
     /tmp/ccLtFtT9.s:2645   .debug_str:00000000000002d4 .LASF131
     /tmp/ccLtFtT9.s:2719   .debug_str:00000000000004bb .LASF132
     /tmp/ccLtFtT9.s:2513   .debug_str:000000000000003e .LASF133
     /tmp/ccLtFtT9.s:2755   .debug_str:0000000000000564 .LASF134
     /tmp/ccLtFtT9.s:2665   .debug_str:0000000000000327 .LASF135
     /tmp/ccLtFtT9.s:2803   .debug_str:000000000000063c .LASF136
     /tmp/ccLtFtT9.s:2817   .debug_str:0000000000000690 .LASF137
     /tmp/ccLtFtT9.s:2793   .debug_str:0000000000000601 .LASF138
     /tmp/ccLtFtT9.s:2653   .debug_str:00000000000002fa .LASF139
     /tmp/ccLtFtT9.s:2839   .debug_str:000000000000072c .LASF140
     /tmp/ccLtFtT9.s:2693   .debug_str:000000000000042f .LASF141
     /tmp/ccLtFtT9.s:2647   .debug_str:00000000000002db .LASF142
     /tmp/ccLtFtT9.s:2843   .debug_str:0000000000000744 .LASF143
     /tmp/ccLtFtT9.s:2737   .debug_str:0000000000000504 .LASF144
     /tmp/ccLtFtT9.s:2845   .debug_str:0000000000000749 .LASF145
     /tmp/ccLtFtT9.s:2547   .debug_str:0000000000000107 .LASF146
     /tmp/ccLtFtT9.s:2825   .debug_str:00000000000006b1 .LASF147
     /tmp/ccLtFtT9.s:2651   .debug_str:00000000000002ee .LASF148
     /tmp/ccLtFtT9.s:2807   .debug_str:0000000000000649 .LASF149
     /tmp/ccLtFtT9.s:2601   .debug_str:0000000000000210 .LASF150
     /tmp/ccLtFtT9.s:2545   .debug_str:00000000000000f8 .LASF151
     /tmp/ccLtFtT9.s:2599   .debug_str:00000000000001ff .LASF152
     /tmp/ccLtFtT9.s:2523   .debug_str:000000000000006b .LASF153
     /tmp/ccLtFtT9.s:2525   .debug_str:000000000000007a .LASF154
     /tmp/ccLtFtT9.s:2721   .debug_str:00000000000004c1 .LASF155
     /tmp/ccLtFtT9.s:2679   .debug_str:000000000000037a .LASF156
     /tmp/ccLtFtT9.s:2671   .debug_str:000000000000033e .LASF157
     /tmp/ccLtFtT9.s:2835   .debug_str:0000000000000719 .LASF158
     /tmp/ccLtFtT9.s:2537   .debug_str:00000000000000c9 .LASF176
     /tmp/ccLtFtT9.s:2611   .debug_str:000000000000023d .LASF160
     /tmp/ccLtFtT9.s:2813   .debug_str:000000000000066f .LASF161
     /tmp/ccLtFtT9.s:2697   .debug_str:0000000000000445 .LASF162
     /tmp/ccLtFtT9.s:2593   .debug_str:00000000000001e8 .LASF163
     /tmp/ccLtFtT9.s:2811   .debug_str:000000000000065e .LASF177
     /tmp/ccLtFtT9.s:2815   .debug_str:0000000000000682 .LASF164
     /tmp/ccLtFtT9.s:2749   .debug_str:0000000000000546 .LASF165
     /tmp/ccLtFtT9.s:2541   .debug_str:00000000000000de .LASF166
     /tmp/ccLtFtT9.s:2849   .debug_str:000000000000075c .LASF178
     /tmp/ccLtFtT9.s:14     .text.startup.main:0000000000000000 .LFB2
     /tmp/ccLtFtT9.s:109    .text.startup.main:0000000000000072 .LFE2
     /tmp/ccLtFtT9.s:2428   .debug_loc:0000000000000000 .LLST0
     /tmp/ccLtFtT9.s:2617   .debug_str:0000000000000259 .LASF167
     /tmp/ccLtFtT9.s:2441   .debug_loc:0000000000000020 .LLST1
GAS LISTING /tmp/ccLtFtT9.s 			page 8


     /tmp/ccLtFtT9.s:2501   .debug_str:000000000000000c .LASF168
     /tmp/ccLtFtT9.s:2458   .debug_loc:0000000000000045 .LLST2
     /tmp/ccLtFtT9.s:41     .text.startup.main:000000000000001a .LVL1
     /tmp/ccLtFtT9.s:53     .text.startup.main:0000000000000030 .LVL2
     /tmp/ccLtFtT9.s:69     .text.startup.main:0000000000000044 .LVL4
     /tmp/ccLtFtT9.s:86     .text.startup.main:000000000000005c .LVL7
     /tmp/ccLtFtT9.s:2677   .debug_str:0000000000000362 .LASF169
     /tmp/ccLtFtT9.s:2855   .debug_str:0000000000000774 .LASF170
     /tmp/ccLtFtT9.s:2575   .debug_str:000000000000018b .LASF171
     /tmp/ccLtFtT9.s:2573   .debug_str:000000000000017b .LASF172
     /tmp/ccLtFtT9.s:24     .text.startup.main:0000000000000002 .LCFI0
     /tmp/ccLtFtT9.s:19     .text.startup.main:0000000000000000 .LVL0
     /tmp/ccLtFtT9.s:61     .text.startup.main:000000000000003a .LVL3
     /tmp/ccLtFtT9.s:72     .text.startup.main:0000000000000046 .LVL5
     /tmp/ccLtFtT9.s:77     .text.startup.main:0000000000000048 .LVL6
     /tmp/ccLtFtT9.s:124    .debug_info:0000000000000000 .Ldebug_info0
     /tmp/ccLtFtT9.s:47     .text.startup.main:0000000000000024 .LBB2
     /tmp/ccLtFtT9.s:50     .text.startup.main:0000000000000028 .LBE2
     /tmp/ccLtFtT9.s:58     .text.startup.main:0000000000000036 .LBB3
     /tmp/ccLtFtT9.s:63     .text.startup.main:000000000000003a .LBE3
     /tmp/ccLtFtT9.s:88     .text.startup.main:000000000000005c .LBB4
     /tmp/ccLtFtT9.s:107    .text.startup.main:0000000000000072 .LBE4

UNDEFINED SYMBOLS
rcu_periph_clock_enable
gpio_init
gpio_input_port_get
gpio_port_write
