GAS LISTING /tmp/ccLtFtT9.s 			page 1


   1              		.file	"main.c"
   2              		.option nopic
   3              		.attribute arch, "rv32i2p0_m2p0_a2p0_c2p0"
   4              		.attribute unaligned_access, 0
   5              		.attribute stack_align, 16
   6              		.text
   7              	.Ltext0:
   8              		.cfi_sections	.debug_frame
   9              		.section	.text.startup.main,"ax",@progbits
  10              		.align	1
  11              		.globl	main
  13              	main:
  14              	.LFB2:
  15              		.file 1 "main.c"
   1:main.c        **** #include "gd32vf103.h"
   2:main.c        **** #include "math.h"
   3:main.c        **** #define BITMASK 0xFFFFFFF8
   4:main.c        **** 
   5:main.c        **** int main()
   6:main.c        **** {
  16              		.loc 1 6 1
  17              		.cfi_startproc
   7:main.c        ****     uint32_t port = 0;
  18              		.loc 1 7 5
  19              	.LVL0:
   8:main.c        ****     uint32_t count = 0;
  20              		.loc 1 8 5
   9:main.c        ****     rcu_periph_clock_enable(RCU_GPIOB);
  21              		.loc 1 9 5
   6:main.c        ****     uint32_t port = 0;
  22              		.loc 1 6 1 is_stmt 0
  23 0000 0111     		addi	sp,sp,-32
  24              	.LCFI0:
  25              		.cfi_def_cfa_offset 32
  26              		.loc 1 9 5
  27 0002 13053060 		li	a0,1539
   6:main.c        ****     uint32_t port = 0;
  28              		.loc 1 6 1
  29 0006 06CE     		sw	ra,28(sp)
  30 0008 22CC     		sw	s0,24(sp)
  31 000a 26CA     		sw	s1,20(sp)
  32 000c 4AC8     		sw	s2,16(sp)
  33              		.cfi_offset 1, -4
  34              		.cfi_offset 8, -8
  35              		.cfi_offset 9, -12
  36              		.cfi_offset 18, -16
  10:main.c        ****     gpio_init(GPIOB, GPIO_MODE_OUT_PP, GPIO_OSPEED_50MHZ, GPIO_PIN_0 | GPIO_PIN_1 | GPIO_PIN_2);
  37              		.loc 1 10 5
  38 000e B7140140 		li	s1,1073811456
   9:main.c        ****     rcu_periph_clock_enable(RCU_GPIOB);
  39              		.loc 1 9 5
  40 0012 97000000 		call	rcu_periph_clock_enable
  40      E7800000 
  41              	.LVL1:
  42              		.loc 1 10 5 is_stmt 1
  43 001a 138504C0 		addi	a0,s1,-1024
  44 001e 9D46     		li	a3,7
GAS LISTING /tmp/ccLtFtT9.s 			page 2


  45 0020 0D46     		li	a2,3
  46 0022 C145     		li	a1,16
  47              	.LBB2:
  11:main.c        ****     while(1)
  12:main.c        ****     {
  13:main.c        ****         count += 1;
  14:main.c        ****         port = gpio_input_port_get(GPIOB);
  15:main.c        ****         gpio_port_write(GPIOB, (port & BITMASK) | (count & (~BITMASK)));
  16:main.c        ****         for(volatile int i = 0; i < 1000000; i++);
  48              		.loc 1 16 9 is_stmt 0
  49 0024 37490F00 		li	s2,999424
  50              	.LBE2:
  10:main.c        ****     gpio_init(GPIOB, GPIO_MODE_OUT_PP, GPIO_OSPEED_50MHZ, GPIO_PIN_0 | GPIO_PIN_1 | GPIO_PIN_2);
  51              		.loc 1 10 5
  52 0028 97000000 		call	gpio_init
  52      E7800000 
  53              	.LVL2:
   8:main.c        ****     rcu_periph_clock_enable(RCU_GPIOB);
  54              		.loc 1 8 14
  55 0030 0144     		li	s0,0
  14:main.c        ****         gpio_port_write(GPIOB, (port & BITMASK) | (count & (~BITMASK)));
  56              		.loc 1 14 16
  57 0032 938404C0 		addi	s1,s1,-1024
  58              	.LBB3:
  59              		.loc 1 16 9
  60 0036 1309F923 		addi	s2,s2,575
  61              	.LVL3:
  62              	.L4:
  63              	.LBE3:
  11:main.c        ****     while(1)
  64              		.loc 1 11 5 is_stmt 1
  13:main.c        ****         port = gpio_input_port_get(GPIOB);
  65              		.loc 1 13 9
  14:main.c        ****         gpio_port_write(GPIOB, (port & BITMASK) | (count & (~BITMASK)));
  66              		.loc 1 14 16 is_stmt 0
  67 003a 2685     		mv	a0,s1
  68 003c 97000000 		call	gpio_input_port_get
  68      E7800000 
  69              	.LVL4:
  13:main.c        ****         port = gpio_input_port_get(GPIOB);
  70              		.loc 1 13 15
  71 0044 0504     		addi	s0,s0,1
  72              	.LVL5:
  14:main.c        ****         gpio_port_write(GPIOB, (port & BITMASK) | (count & (~BITMASK)));
  73              		.loc 1 14 9 is_stmt 1
  15:main.c        ****         for(volatile int i = 0; i < 1000000; i++);
  74              		.loc 1 15 9
  15:main.c        ****         for(volatile int i = 0; i < 1000000; i++);
  75              		.loc 1 15 38 is_stmt 0
  76 0046 6199     		andi	a0,a0,-8
  77              	.LVL6:
  15:main.c        ****         for(volatile int i = 0; i < 1000000; i++);
  78              		.loc 1 15 58
  79 0048 93757400 		andi	a1,s0,7
  15:main.c        ****         for(volatile int i = 0; i < 1000000; i++);
  80              		.loc 1 15 9
  81 004c C98D     		or	a1,a0,a1
GAS LISTING /tmp/ccLtFtT9.s 			page 3


  82 004e C205     		slli	a1,a1,16
  83 0050 C181     		srli	a1,a1,16
  84 0052 2685     		mv	a0,s1
  85 0054 97000000 		call	gpio_port_write
  85      E7800000 
  86              	.LVL7:
  87              		.loc 1 16 9 is_stmt 1
  88              	.LBB4:
  89              		.loc 1 16 13
  90              		.loc 1 16 26 is_stmt 0
  91 005c 02C6     		sw	zero,12(sp)
  92              		.loc 1 16 35
  93 005e B247     		lw	a5,12(sp)
  94              		.loc 1 16 9
  95 0060 E34DF9FC 		bgt	a5,s2,.L4
  96              	.L3:
  97              		.loc 1 16 50 is_stmt 1 discriminator 3
  98              		.loc 1 16 47 is_stmt 0 discriminator 3
  99 0064 B247     		lw	a5,12(sp)
 100 0066 8507     		addi	a5,a5,1
 101 0068 3EC6     		sw	a5,12(sp)
 102              		.loc 1 16 35 discriminator 3
 103 006a B247     		lw	a5,12(sp)
 104              		.loc 1 16 9 discriminator 3
 105 006c E35CF9FE 		ble	a5,s2,.L3
 106 0070 E9B7     		j	.L4
 107              	.LBE4:
 108              		.cfi_endproc
 109              	.LFE2:
 111              		.text
 112              	.Letext0:
 113              		.file 2 "/home/remahl/toolchain-gd32v/toolchain-gd32v-linux/compiler/riscv64-unknown-elf/include/m
 114              		.file 3 "/home/remahl/toolchain-gd32v/toolchain-gd32v-linux/compiler/riscv64-unknown-elf/include/s
 115              		.file 4 "/home/remahl/toolchain-gd32v/toolchain-gd32v-linux/compiler/lib/gcc/riscv64-unknown-elf/8
 116              		.file 5 "/home/remahl/toolchain-gd32v/toolchain-gd32v-linux/compiler/riscv64-unknown-elf/include/s
 117              		.file 6 "/home/remahl/toolchain-gd32v/toolchain-gd32v-linux/compiler/riscv64-unknown-elf/include/s
 118              		.file 7 "/home/remahl/toolchain-gd32v/toolchain-gd32v-linux/compiler/riscv64-unknown-elf/include/s
 119              		.file 8 "../../firmware/GD32VF103_standard_peripheral/system_gd32vf103.h"
 120              		.file 9 "/home/remahl/toolchain-gd32v/toolchain-gd32v-linux/compiler/riscv64-unknown-elf/include/m
 121              		.file 10 "../../firmware/GD32VF103_standard_peripheral/Include/gd32vf103_rcu.h"
 122              		.file 11 "../../firmware/GD32VF103_standard_peripheral/Include/gd32vf103_gpio.h"
GAS LISTING /tmp/ccLtFtT9.s 			page 4

