GAS LISTING /tmp/cctirQTR.s 			page 1


   1              		.file	"main.c"
   2              		.option nopic
   3              		.attribute arch, "rv32i2p0_m2p0_a2p0_c2p0"
   4              		.attribute unaligned_access, 0
   5              		.attribute stack_align, 16
   6              		.text
   7              	.Ltext0:
   8              		.cfi_sections	.debug_frame
   9              		.section	.text.startup.main,"ax",@progbits
  10              		.align	1
  11              		.globl	main
  13              	main:
  14              	.LFB2:
  15              		.file 1 "main.c"
   1:main.c        **** /* 
   2:main.c        **** Replace this file with your code. Put your source files in this directory and any libraries in the 
   3:main.c        **** If your main program should be assembly-language replace this file with main.S instead.
   4:main.c        **** 
   5:main.c        **** Libraries (other than vendor SDK and gcc libraries) must have .h-files in /lib/[library name]/inclu
   6:main.c        **** */
   7:main.c        **** 
   8:main.c        **** #include "gd32vf103.h"
   9:main.c        **** #define BITMASK 0xFFFFFFF8
  10:main.c        **** 
  11:main.c        **** int main(){
  16              		.loc 1 11 11
  17              		.cfi_startproc
  12:main.c        **** 	uint32_t port = 0;
  18              		.loc 1 12 2
  19              	.LVL0:
  13:main.c        **** 	uint32_t count = 0;
  20              		.loc 1 13 2
  14:main.c        **** 	rcu_periph_clock_enable(RCU_GPIOB);
  21              		.loc 1 14 2
  11:main.c        **** 	uint32_t port = 0;
  22              		.loc 1 11 11 is_stmt 0
  23 0000 0111     		addi	sp,sp,-32
  24              	.LCFI0:
  25              		.cfi_def_cfa_offset 32
  26              		.loc 1 14 2
  27 0002 13053060 		li	a0,1539
  11:main.c        **** 	uint32_t port = 0;
  28              		.loc 1 11 11
  29 0006 06CE     		sw	ra,28(sp)
  30 0008 22CC     		sw	s0,24(sp)
  31 000a 26CA     		sw	s1,20(sp)
  32 000c 4AC8     		sw	s2,16(sp)
  33              		.cfi_offset 1, -4
  34              		.cfi_offset 8, -8
  35              		.cfi_offset 9, -12
  36              		.cfi_offset 18, -16
  15:main.c        **** 	gpio_init(GPIOB, GPIO_MODE_OUT_PP, GPIO_OSPEED_50MHZ, GPIO_PIN_0 | GPIO_PIN_1 | GPIO_PIN_2);
  37              		.loc 1 15 2
  38 000e B7140140 		li	s1,1073811456
  14:main.c        **** 	rcu_periph_clock_enable(RCU_GPIOB);
  39              		.loc 1 14 2
  40 0012 97000000 		call	rcu_periph_clock_enable
GAS LISTING /tmp/cctirQTR.s 			page 2


  40      E7800000 
  41              	.LVL1:
  42              		.loc 1 15 2 is_stmt 1
  43 001a 138504C0 		addi	a0,s1,-1024
  44 001e 9D46     		li	a3,7
  45 0020 0D46     		li	a2,3
  46 0022 C145     		li	a1,16
  47              	.LBB2:
  16:main.c        **** 	while(1){
  17:main.c        **** 		count += 1;
  18:main.c        **** 		port = gpio_input_port_get(GPIOB);
  19:main.c        **** 		gpio_port_write(GPIOB, (port & BITMASK) | (count & (~BITMASK)));
  20:main.c        **** 		for(volatile int i = 0; i < 1000000; i++);
  48              		.loc 1 20 3 is_stmt 0
  49 0024 37490F00 		li	s2,999424
  50              	.LBE2:
  15:main.c        **** 	gpio_init(GPIOB, GPIO_MODE_OUT_PP, GPIO_OSPEED_50MHZ, GPIO_PIN_0 | GPIO_PIN_1 | GPIO_PIN_2);
  51              		.loc 1 15 2
  52 0028 97000000 		call	gpio_init
  52      E7800000 
  53              	.LVL2:
  13:main.c        **** 	rcu_periph_clock_enable(RCU_GPIOB);
  54              		.loc 1 13 11
  55 0030 0144     		li	s0,0
  18:main.c        **** 		gpio_port_write(GPIOB, (port & BITMASK) | (count & (~BITMASK)));
  56              		.loc 1 18 10
  57 0032 938404C0 		addi	s1,s1,-1024
  58              	.LBB3:
  59              		.loc 1 20 3
  60 0036 1309F923 		addi	s2,s2,575
  61              	.LVL3:
  62              	.L4:
  63              	.LBE3:
  16:main.c        **** 	while(1){
  64              		.loc 1 16 2 is_stmt 1
  17:main.c        **** 		port = gpio_input_port_get(GPIOB);
  65              		.loc 1 17 3
  18:main.c        **** 		gpio_port_write(GPIOB, (port & BITMASK) | (count & (~BITMASK)));
  66              		.loc 1 18 10 is_stmt 0
  67 003a 2685     		mv	a0,s1
  68 003c 97000000 		call	gpio_input_port_get
  68      E7800000 
  69              	.LVL4:
  17:main.c        **** 		port = gpio_input_port_get(GPIOB);
  70              		.loc 1 17 9
  71 0044 0504     		addi	s0,s0,1
  72              	.LVL5:
  18:main.c        **** 		gpio_port_write(GPIOB, (port & BITMASK) | (count & (~BITMASK)));
  73              		.loc 1 18 3 is_stmt 1
  19:main.c        **** 		for(volatile int i = 0; i < 1000000; i++);
  74              		.loc 1 19 3
  19:main.c        **** 		for(volatile int i = 0; i < 1000000; i++);
  75              		.loc 1 19 32 is_stmt 0
  76 0046 6199     		andi	a0,a0,-8
  77              	.LVL6:
  19:main.c        **** 		for(volatile int i = 0; i < 1000000; i++);
  78              		.loc 1 19 52
GAS LISTING /tmp/cctirQTR.s 			page 3


  79 0048 93757400 		andi	a1,s0,7
  19:main.c        **** 		for(volatile int i = 0; i < 1000000; i++);
  80              		.loc 1 19 3
  81 004c C98D     		or	a1,a0,a1
  82 004e C205     		slli	a1,a1,16
  83 0050 C181     		srli	a1,a1,16
  84 0052 2685     		mv	a0,s1
  85 0054 97000000 		call	gpio_port_write
  85      E7800000 
  86              	.LVL7:
  87              		.loc 1 20 3 is_stmt 1
  88              	.LBB4:
  89              		.loc 1 20 7
  90              		.loc 1 20 20 is_stmt 0
  91 005c 02C6     		sw	zero,12(sp)
  92              		.loc 1 20 29
  93 005e B247     		lw	a5,12(sp)
  94              		.loc 1 20 3
  95 0060 E34DF9FC 		bgt	a5,s2,.L4
  96              	.L3:
  97              		.loc 1 20 44 is_stmt 1 discriminator 3
  98              		.loc 1 20 41 is_stmt 0 discriminator 3
  99 0064 B247     		lw	a5,12(sp)
 100 0066 8507     		addi	a5,a5,1
 101 0068 3EC6     		sw	a5,12(sp)
 102              		.loc 1 20 29 discriminator 3
 103 006a B247     		lw	a5,12(sp)
 104              		.loc 1 20 3 discriminator 3
 105 006c E35CF9FE 		ble	a5,s2,.L3
 106 0070 E9B7     		j	.L4
 107              	.LBE4:
 108              		.cfi_endproc
 109              	.LFE2:
 111              		.text
 112              	.Letext0:
 113              		.file 2 "/home/lintu/Documents/school/IK1332/toolchain-gd32v-linux/compiler/riscv64-unknown-elf/in
 114              		.file 3 "/home/lintu/Documents/school/IK1332/toolchain-gd32v-linux/compiler/riscv64-unknown-elf/in
 115              		.file 4 "../../firmware/GD32VF103_standard_peripheral/Include/gd32vf103_rcu.h"
 116              		.file 5 "../../firmware/GD32VF103_standard_peripheral/Include/gd32vf103_gpio.h"
 117              		.file 6 "../../firmware/GD32VF103_standard_peripheral/system_gd32vf103.h"
GAS LISTING /tmp/cctirQTR.s 			page 4


DEFINED SYMBOLS
                            *ABS*:0000000000000000 main.c
     /tmp/cctirQTR.s:13     .text.startup.main:0000000000000000 main
     /tmp/cctirQTR.s:17     .text.startup.main:0000000000000000 .L0 
     /tmp/cctirQTR.s:18     .text.startup.main:0000000000000000 .L0 
     /tmp/cctirQTR.s:20     .text.startup.main:0000000000000000 .L0 
     /tmp/cctirQTR.s:21     .text.startup.main:0000000000000000 .L0 
     /tmp/cctirQTR.s:22     .text.startup.main:0000000000000000 .L0 
     /tmp/cctirQTR.s:23     .text.startup.main:0000000000000000 .L0 
     /tmp/cctirQTR.s:25     .text.startup.main:0000000000000002 .L0 
     /tmp/cctirQTR.s:27     .text.startup.main:0000000000000002 .L0 
     /tmp/cctirQTR.s:29     .text.startup.main:0000000000000006 .L0 
     /tmp/cctirQTR.s:33     .text.startup.main:000000000000000e .L0 
     /tmp/cctirQTR.s:34     .text.startup.main:000000000000000e .L0 
     /tmp/cctirQTR.s:35     .text.startup.main:000000000000000e .L0 
     /tmp/cctirQTR.s:36     .text.startup.main:000000000000000e .L0 
     /tmp/cctirQTR.s:38     .text.startup.main:000000000000000e .L0 
     /tmp/cctirQTR.s:40     .text.startup.main:0000000000000012 .L0 
     /tmp/cctirQTR.s:43     .text.startup.main:000000000000001a .L0 
     /tmp/cctirQTR.s:49     .text.startup.main:0000000000000024 .L0 
     /tmp/cctirQTR.s:52     .text.startup.main:0000000000000028 .L0 
     /tmp/cctirQTR.s:55     .text.startup.main:0000000000000030 .L0 
     /tmp/cctirQTR.s:57     .text.startup.main:0000000000000032 .L0 
     /tmp/cctirQTR.s:60     .text.startup.main:0000000000000036 .L0 
     /tmp/cctirQTR.s:65     .text.startup.main:000000000000003a .L0 
     /tmp/cctirQTR.s:66     .text.startup.main:000000000000003a .L0 
     /tmp/cctirQTR.s:67     .text.startup.main:000000000000003a .L0 
     /tmp/cctirQTR.s:71     .text.startup.main:0000000000000044 .L0 
     /tmp/cctirQTR.s:74     .text.startup.main:0000000000000046 .L0 
     /tmp/cctirQTR.s:75     .text.startup.main:0000000000000046 .L0 
     /tmp/cctirQTR.s:76     .text.startup.main:0000000000000046 .L0 
     /tmp/cctirQTR.s:79     .text.startup.main:0000000000000048 .L0 
     /tmp/cctirQTR.s:81     .text.startup.main:000000000000004c .L0 
     /tmp/cctirQTR.s:89     .text.startup.main:000000000000005c .L0 
     /tmp/cctirQTR.s:90     .text.startup.main:000000000000005c .L0 
     /tmp/cctirQTR.s:91     .text.startup.main:000000000000005c .L0 
     /tmp/cctirQTR.s:93     .text.startup.main:000000000000005e .L0 
     /tmp/cctirQTR.s:95     .text.startup.main:0000000000000060 .L0 
     /tmp/cctirQTR.s:98     .text.startup.main:0000000000000064 .L0 
     /tmp/cctirQTR.s:99     .text.startup.main:0000000000000064 .L0 
     /tmp/cctirQTR.s:103    .text.startup.main:000000000000006a .L0 
     /tmp/cctirQTR.s:105    .text.startup.main:000000000000006c .L0 
     /tmp/cctirQTR.s:108    .text.startup.main:0000000000000072 .L0 
     /tmp/cctirQTR.s:111    .text.startup.main:0000000000000072 .L0 
                     .debug_frame:0000000000000000 .L0 
     /tmp/cctirQTR.s:62     .text.startup.main:000000000000003a .L4
     /tmp/cctirQTR.s:96     .text.startup.main:0000000000000064 .L3
     /tmp/cctirQTR.s:463    .debug_abbrev:0000000000000000 .Ldebug_abbrev0
     /tmp/cctirQTR.s:840    .debug_str:00000000000001c6 .LASF57
     /tmp/cctirQTR.s:864    .debug_str:00000000000002b6 .LASF58
     /tmp/cctirQTR.s:772    .debug_str:0000000000000017 .LASF59
     /tmp/cctirQTR.s:752    .debug_ranges:0000000000000000 .Ldebug_ranges0
     /tmp/cctirQTR.s:766    .debug_line:0000000000000000 .Ldebug_line0
     /tmp/cctirQTR.s:844    .debug_str:0000000000000249 .LASF0
     /tmp/cctirQTR.s:836    .debug_str:00000000000001a3 .LASF1
     /tmp/cctirQTR.s:890    .debug_str:000000000000033f .LASF6
     /tmp/cctirQTR.s:826    .debug_str:0000000000000162 .LASF2
GAS LISTING /tmp/cctirQTR.s 			page 5


     /tmp/cctirQTR.s:792    .debug_str:00000000000000b7 .LASF3
     /tmp/cctirQTR.s:848    .debug_str:000000000000025e .LASF4
     /tmp/cctirQTR.s:802    .debug_str:00000000000000e5 .LASF5
     /tmp/cctirQTR.s:788    .debug_str:00000000000000a4 .LASF7
     /tmp/cctirQTR.s:866    .debug_str:00000000000002bd .LASF8
     /tmp/cctirQTR.s:786    .debug_str:0000000000000096 .LASF9
     /tmp/cctirQTR.s:838    .debug_str:00000000000001af .LASF10
     /tmp/cctirQTR.s:794    .debug_str:00000000000000c1 .LASF11
     /tmp/cctirQTR.s:842    .debug_str:0000000000000240 .LASF12
     /tmp/cctirQTR.s:768    .debug_str:0000000000000000 .LASF60
     /tmp/cctirQTR.s:854    .debug_str:0000000000000283 .LASF13
     /tmp/cctirQTR.s:856    .debug_str:000000000000028c .LASF14
     /tmp/cctirQTR.s:888    .debug_str:0000000000000337 .LASF15
     /tmp/cctirQTR.s:886    .debug_str:000000000000032e .LASF16
     /tmp/cctirQTR.s:880    .debug_str:0000000000000310 .LASF17
     /tmp/cctirQTR.s:812    .debug_str:0000000000000114 .LASF18
     /tmp/cctirQTR.s:814    .debug_str:000000000000011f .LASF19
     /tmp/cctirQTR.s:816    .debug_str:000000000000012a .LASF20
     /tmp/cctirQTR.s:818    .debug_str:0000000000000135 .LASF21
     /tmp/cctirQTR.s:820    .debug_str:0000000000000140 .LASF22
     /tmp/cctirQTR.s:822    .debug_str:000000000000014b .LASF23
     /tmp/cctirQTR.s:800    .debug_str:00000000000000db .LASF24
     /tmp/cctirQTR.s:806    .debug_str:00000000000000f7 .LASF25
     /tmp/cctirQTR.s:808    .debug_str:0000000000000100 .LASF26
     /tmp/cctirQTR.s:876    .debug_str:00000000000002fa .LASF27
     /tmp/cctirQTR.s:878    .debug_str:0000000000000305 .LASF28
     /tmp/cctirQTR.s:882    .debug_str:000000000000031a .LASF29
     /tmp/cctirQTR.s:884    .debug_str:0000000000000324 .LASF30
     /tmp/cctirQTR.s:850    .debug_str:0000000000000271 .LASF31
     /tmp/cctirQTR.s:852    .debug_str:000000000000027a .LASF32
     /tmp/cctirQTR.s:796    .debug_str:00000000000000c9 .LASF33
     /tmp/cctirQTR.s:798    .debug_str:00000000000000d2 .LASF34
     /tmp/cctirQTR.s:834    .debug_str:000000000000019a .LASF35
     /tmp/cctirQTR.s:846    .debug_str:0000000000000256 .LASF36
     /tmp/cctirQTR.s:858    .debug_str:0000000000000295 .LASF37
     /tmp/cctirQTR.s:790    .debug_str:00000000000000af .LASF38
     /tmp/cctirQTR.s:770    .debug_str:0000000000000010 .LASF39
     /tmp/cctirQTR.s:774    .debug_str:000000000000005f .LASF40
     /tmp/cctirQTR.s:776    .debug_str:0000000000000069 .LASF41
     /tmp/cctirQTR.s:778    .debug_str:0000000000000073 .LASF42
     /tmp/cctirQTR.s:780    .debug_str:000000000000007d .LASF43
     /tmp/cctirQTR.s:782    .debug_str:0000000000000087 .LASF44
     /tmp/cctirQTR.s:830    .debug_str:0000000000000188 .LASF45
     /tmp/cctirQTR.s:832    .debug_str:0000000000000191 .LASF46
     /tmp/cctirQTR.s:810    .debug_str:0000000000000109 .LASF47
     /tmp/cctirQTR.s:804    .debug_str:00000000000000ee .LASF48
     /tmp/cctirQTR.s:874    .debug_str:00000000000002ef .LASF49
     /tmp/cctirQTR.s:824    .debug_str:0000000000000156 .LASF50
     /tmp/cctirQTR.s:784    .debug_str:0000000000000091 .LASF61
     /tmp/cctirQTR.s:14     .text.startup.main:0000000000000000 .LFB2
     /tmp/cctirQTR.s:109    .text.startup.main:0000000000000072 .LFE2
     /tmp/cctirQTR.s:697    .debug_loc:0000000000000000 .LLST0
     /tmp/cctirQTR.s:862    .debug_str:00000000000002b1 .LASF51
     /tmp/cctirQTR.s:710    .debug_loc:0000000000000020 .LLST1
     /tmp/cctirQTR.s:872    .debug_str:00000000000002e9 .LASF52
     /tmp/cctirQTR.s:727    .debug_loc:0000000000000045 .LLST2
     /tmp/cctirQTR.s:41     .text.startup.main:000000000000001a .LVL1
GAS LISTING /tmp/cctirQTR.s 			page 6


     /tmp/cctirQTR.s:53     .text.startup.main:0000000000000030 .LVL2
     /tmp/cctirQTR.s:69     .text.startup.main:0000000000000044 .LVL4
     /tmp/cctirQTR.s:86     .text.startup.main:000000000000005c .LVL7
     /tmp/cctirQTR.s:828    .debug_str:0000000000000170 .LASF53
     /tmp/cctirQTR.s:870    .debug_str:00000000000002df .LASF54
     /tmp/cctirQTR.s:860    .debug_str:000000000000029d .LASF55
     /tmp/cctirQTR.s:868    .debug_str:00000000000002cf .LASF56
     /tmp/cctirQTR.s:24     .text.startup.main:0000000000000002 .LCFI0
     /tmp/cctirQTR.s:19     .text.startup.main:0000000000000000 .LVL0
     /tmp/cctirQTR.s:61     .text.startup.main:000000000000003a .LVL3
     /tmp/cctirQTR.s:72     .text.startup.main:0000000000000046 .LVL5
     /tmp/cctirQTR.s:77     .text.startup.main:0000000000000048 .LVL6
     /tmp/cctirQTR.s:119    .debug_info:0000000000000000 .Ldebug_info0
     /tmp/cctirQTR.s:47     .text.startup.main:0000000000000024 .LBB2
     /tmp/cctirQTR.s:50     .text.startup.main:0000000000000028 .LBE2
     /tmp/cctirQTR.s:58     .text.startup.main:0000000000000036 .LBB3
     /tmp/cctirQTR.s:63     .text.startup.main:000000000000003a .LBE3
     /tmp/cctirQTR.s:88     .text.startup.main:000000000000005c .LBB4
     /tmp/cctirQTR.s:107    .text.startup.main:0000000000000072 .LBE4

UNDEFINED SYMBOLS
rcu_periph_clock_enable
gpio_init
gpio_input_port_get
gpio_port_write
