GAS LISTING /tmp/ccM0jYTm.s 			page 1


   1              		.file	"write.c"
   2              		.option nopic
   3              		.attribute arch, "rv32i2p0_m2p0_a2p0_c2p0"
   4              		.attribute unaligned_access, 0
   5              		.attribute stack_align, 16
   6              		.text
   7              	.Ltext0:
   8              		.cfi_sections	.debug_frame
   9              		.section	.text._put_char,"ax",@progbits
  10              		.align	1
  11              		.weak	_put_char
  13              	_put_char:
  14              	.LFB6:
  15              		.file 1 "../../firmware/RISCV/stubs/write.c"
   1:../../firmware/RISCV/stubs/write.c **** /* See LICENSE of license details. */
   2:../../firmware/RISCV/stubs/write.c **** 
   3:../../firmware/RISCV/stubs/write.c **** #include <stdint.h>
   4:../../firmware/RISCV/stubs/write.c **** #include <string.h>
   5:../../firmware/RISCV/stubs/write.c **** #include <errno.h>
   6:../../firmware/RISCV/stubs/write.c **** #include <gd32vf103.h>
   7:../../firmware/RISCV/stubs/write.c **** 
   8:../../firmware/RISCV/stubs/write.c **** #if   defined (__GNUC__)
   9:../../firmware/RISCV/stubs/write.c **** #include <unistd.h>
  10:../../firmware/RISCV/stubs/write.c **** #include <sys/types.h>
  11:../../firmware/RISCV/stubs/write.c **** #endif
  12:../../firmware/RISCV/stubs/write.c **** 
  13:../../firmware/RISCV/stubs/write.c **** #include "stub.h"
  14:../../firmware/RISCV/stubs/write.c **** #include "gd32vf103.h"
  15:../../firmware/RISCV/stubs/write.c **** 
  16:../../firmware/RISCV/stubs/write.c **** //typedef unsigned int size_t;
  17:../../firmware/RISCV/stubs/write.c **** extern int _put_char(int ch) __attribute__((weak));
  18:../../firmware/RISCV/stubs/write.c **** 
  19:../../firmware/RISCV/stubs/write.c **** #if   defined (__ICCRISCV__)
  20:../../firmware/RISCV/stubs/write.c **** size_t __write(int handle, const unsigned char *buf, size_t bufSize)
  21:../../firmware/RISCV/stubs/write.c **** {
  22:../../firmware/RISCV/stubs/write.c ****   size_t nChars = 0;
  23:../../firmware/RISCV/stubs/write.c ****   
  24:../../firmware/RISCV/stubs/write.c ****   if (handle == -1)
  25:../../firmware/RISCV/stubs/write.c ****   {
  26:../../firmware/RISCV/stubs/write.c ****     return 0;
  27:../../firmware/RISCV/stubs/write.c ****   }
  28:../../firmware/RISCV/stubs/write.c ****   
  29:../../firmware/RISCV/stubs/write.c ****   for (; bufSize > 0; --bufSize)
  30:../../firmware/RISCV/stubs/write.c ****   {
  31:../../firmware/RISCV/stubs/write.c ****     _put_char((uint8_t) *buf);
  32:../../firmware/RISCV/stubs/write.c ****     ++buf;
  33:../../firmware/RISCV/stubs/write.c ****     ++nChars;
  34:../../firmware/RISCV/stubs/write.c ****   }
  35:../../firmware/RISCV/stubs/write.c ****   
  36:../../firmware/RISCV/stubs/write.c ****   return nChars;
  37:../../firmware/RISCV/stubs/write.c ****  }
  38:../../firmware/RISCV/stubs/write.c **** 
  39:../../firmware/RISCV/stubs/write.c **** int puts(const char* string) {
  40:../../firmware/RISCV/stubs/write.c ****     return __write(0, (const void *) string, strlen(string));
  41:../../firmware/RISCV/stubs/write.c **** }
  42:../../firmware/RISCV/stubs/write.c ****  
  43:../../firmware/RISCV/stubs/write.c **** #elif defined ( __GNUC__ )
GAS LISTING /tmp/ccM0jYTm.s 			page 2


  44:../../firmware/RISCV/stubs/write.c **** ssize_t _write(int fd, const void* ptr, size_t len) {
  45:../../firmware/RISCV/stubs/write.c ****     const uint8_t * current = (const uint8_t *) ptr;
  46:../../firmware/RISCV/stubs/write.c ****     {
  47:../../firmware/RISCV/stubs/write.c ****         for (size_t jj = 0; jj < len; jj++) {
  48:../../firmware/RISCV/stubs/write.c ****             _put_char(current[jj]);
  49:../../firmware/RISCV/stubs/write.c **** 
  50:../../firmware/RISCV/stubs/write.c ****             if (current[jj] == '\n') {
  51:../../firmware/RISCV/stubs/write.c ****                 _put_char('\r');
  52:../../firmware/RISCV/stubs/write.c ****             }
  53:../../firmware/RISCV/stubs/write.c ****         }
  54:../../firmware/RISCV/stubs/write.c ****         return len;
  55:../../firmware/RISCV/stubs/write.c ****     }
  56:../../firmware/RISCV/stubs/write.c **** 
  57:../../firmware/RISCV/stubs/write.c ****     return _stub(EBADF);
  58:../../firmware/RISCV/stubs/write.c **** }
  59:../../firmware/RISCV/stubs/write.c **** 
  60:../../firmware/RISCV/stubs/write.c **** int puts(const char* string) {
  61:../../firmware/RISCV/stubs/write.c ****     return _write(0, (const void *) string, strlen(string));
  62:../../firmware/RISCV/stubs/write.c **** }
  63:../../firmware/RISCV/stubs/write.c **** #endif
  64:../../firmware/RISCV/stubs/write.c **** 
  65:../../firmware/RISCV/stubs/write.c **** int _put_char(int ch)
  66:../../firmware/RISCV/stubs/write.c **** {
  16              		.loc 1 66 1
  17              		.cfi_startproc
  18              	.LVL0:
  67:../../firmware/RISCV/stubs/write.c ****     usart_data_transmit(USART0, (uint8_t) ch );
  19              		.loc 1 67 5
  66:../../firmware/RISCV/stubs/write.c ****     usart_data_transmit(USART0, (uint8_t) ch );
  20              		.loc 1 66 1 is_stmt 0
  21 0000 4111     		addi	sp,sp,-16
  22              	.LCFI0:
  23              		.cfi_def_cfa_offset 16
  24 0002 22C4     		sw	s0,8(sp)
  25              		.cfi_offset 8, -8
  26              		.loc 1 67 5
  27 0004 37440140 		li	s0,1073823744
  66:../../firmware/RISCV/stubs/write.c ****     usart_data_transmit(USART0, (uint8_t) ch );
  28              		.loc 1 66 1
  29 0008 26C2     		sw	s1,4(sp)
  30              		.loc 1 67 5
  31 000a 9375F50F 		andi	a1,a0,0xff
  32              		.cfi_offset 9, -12
  66:../../firmware/RISCV/stubs/write.c ****     usart_data_transmit(USART0, (uint8_t) ch );
  33              		.loc 1 66 1
  34 000e AA84     		mv	s1,a0
  35              		.loc 1 67 5
  36 0010 13050480 		addi	a0,s0,-2048
  37              	.LVL1:
  66:../../firmware/RISCV/stubs/write.c ****     usart_data_transmit(USART0, (uint8_t) ch );
  38              		.loc 1 66 1
  39 0014 06C6     		sw	ra,12(sp)
  40              		.cfi_offset 1, -4
  68:../../firmware/RISCV/stubs/write.c ****     while (usart_flag_get(USART0, USART_FLAG_TBE)== RESET){
  41              		.loc 1 68 12
  42 0016 13040480 		addi	s0,s0,-2048
  67:../../firmware/RISCV/stubs/write.c ****     usart_data_transmit(USART0, (uint8_t) ch );
GAS LISTING /tmp/ccM0jYTm.s 			page 3


  43              		.loc 1 67 5
  44 001a 97000000 		call	usart_data_transmit
  44      E7800000 
  45              	.LVL2:
  46              		.loc 1 68 5 is_stmt 1
  47              	.L2:
  69:../../firmware/RISCV/stubs/write.c ****     }
  48              		.loc 1 69 5 discriminator 1
  68:../../firmware/RISCV/stubs/write.c ****     while (usart_flag_get(USART0, USART_FLAG_TBE)== RESET){
  49              		.loc 1 68 12 is_stmt 0 discriminator 1
  50 0022 9D45     		li	a1,7
  51 0024 2285     		mv	a0,s0
  52 0026 97000000 		call	usart_flag_get
  52      E7800000 
  53              	.LVL3:
  68:../../firmware/RISCV/stubs/write.c ****     while (usart_flag_get(USART0, USART_FLAG_TBE)== RESET){
  54              		.loc 1 68 11 discriminator 1
  55 002e 75D9     		beq	a0,zero,.L2
  70:../../firmware/RISCV/stubs/write.c **** 
  71:../../firmware/RISCV/stubs/write.c ****     return ch;
  56              		.loc 1 71 5 is_stmt 1
  72:../../firmware/RISCV/stubs/write.c **** }
  57              		.loc 1 72 1 is_stmt 0
  58 0030 B240     		lw	ra,12(sp)
  59              		.cfi_restore 1
  60 0032 2244     		lw	s0,8(sp)
  61              		.cfi_restore 8
  62 0034 2685     		mv	a0,s1
  63 0036 9244     		lw	s1,4(sp)
  64              		.cfi_restore 9
  65              	.LVL4:
  66 0038 4101     		addi	sp,sp,16
  67              	.LCFI1:
  68              		.cfi_def_cfa_offset 0
  69 003a 8280     		jr	ra
  70              		.cfi_endproc
  71              	.LFE6:
  73              		.section	.text._write,"ax",@progbits
  74              		.align	1
  75              		.globl	_write
  77              	_write:
  78              	.LFB4:
  44:../../firmware/RISCV/stubs/write.c ****     const uint8_t * current = (const uint8_t *) ptr;
  79              		.loc 1 44 53 is_stmt 1
  80              		.cfi_startproc
  81              	.LVL5:
  45:../../firmware/RISCV/stubs/write.c ****     {
  82              		.loc 1 45 5
  47:../../firmware/RISCV/stubs/write.c ****             _put_char(current[jj]);
  83              		.loc 1 47 9
  84              	.LBB2:
  47:../../firmware/RISCV/stubs/write.c ****             _put_char(current[jj]);
  85              		.loc 1 47 14
  86              	.LBE2:
  44:../../firmware/RISCV/stubs/write.c ****     const uint8_t * current = (const uint8_t *) ptr;
  87              		.loc 1 44 53 is_stmt 0
  88 0000 0111     		addi	sp,sp,-32
GAS LISTING /tmp/ccM0jYTm.s 			page 4


  89              	.LCFI2:
  90              		.cfi_def_cfa_offset 32
  91 0002 4EC6     		sw	s3,12(sp)
  92 0004 06CE     		sw	ra,28(sp)
  93 0006 22CC     		sw	s0,24(sp)
  94 0008 26CA     		sw	s1,20(sp)
  95 000a 4AC8     		sw	s2,16(sp)
  96              		.cfi_offset 19, -20
  97              		.cfi_offset 1, -4
  98              		.cfi_offset 8, -8
  99              		.cfi_offset 9, -12
 100              		.cfi_offset 18, -16
  44:../../firmware/RISCV/stubs/write.c ****     const uint8_t * current = (const uint8_t *) ptr;
 101              		.loc 1 44 53
 102 000c B289     		mv	s3,a2
 103              	.LBB3:
  47:../../firmware/RISCV/stubs/write.c ****             _put_char(current[jj]);
 104              		.loc 1 47 9
 105 000e 15C2     		beq	a2,zero,.L8
 106 0010 2E84     		mv	s0,a1
 107 0012 3389C500 		add	s2,a1,a2
  50:../../firmware/RISCV/stubs/write.c ****                 _put_char('\r');
 108              		.loc 1 50 16
 109 0016 A944     		li	s1,10
 110              	.LVL6:
 111              	.L10:
  48:../../firmware/RISCV/stubs/write.c **** 
 112              		.loc 1 48 13 is_stmt 1
 113 0018 03450400 		lbu	a0,0(s0)
 114 001c 0504     		addi	s0,s0,1
 115              	.LVL7:
 116 001e 97000000 		call	_put_char
 116      E7800000 
 117              	.LVL8:
  50:../../firmware/RISCV/stubs/write.c ****                 _put_char('\r');
 118              		.loc 1 50 13
  50:../../firmware/RISCV/stubs/write.c ****                 _put_char('\r');
 119              		.loc 1 50 16 is_stmt 0
 120 0026 8347F4FF 		lbu	a5,-1(s0)
 121 002a 638C9700 		beq	a5,s1,.L16
 122              	.LVL9:
  47:../../firmware/RISCV/stubs/write.c ****             _put_char(current[jj]);
 123              		.loc 1 47 9 discriminator 2
 124 002e E31524FF 		bne	s0,s2,.L10
 125              	.L8:
 126              	.LBE3:
  54:../../firmware/RISCV/stubs/write.c ****     }
 127              		.loc 1 54 9 is_stmt 1
  58:../../firmware/RISCV/stubs/write.c **** 
 128              		.loc 1 58 1 is_stmt 0
 129 0032 F240     		lw	ra,28(sp)
 130              		.cfi_remember_state
 131              		.cfi_restore 1
 132 0034 6244     		lw	s0,24(sp)
 133              		.cfi_restore 8
 134 0036 4E85     		mv	a0,s3
 135 0038 D244     		lw	s1,20(sp)
GAS LISTING /tmp/ccM0jYTm.s 			page 5


 136              		.cfi_restore 9
 137 003a 4249     		lw	s2,16(sp)
 138              		.cfi_restore 18
 139 003c B249     		lw	s3,12(sp)
 140              		.cfi_restore 19
 141              	.LVL10:
 142 003e 0561     		addi	sp,sp,32
 143              	.LCFI3:
 144              		.cfi_def_cfa_offset 0
 145 0040 8280     		jr	ra
 146              	.LVL11:
 147              	.L16:
 148              	.LCFI4:
 149              		.cfi_restore_state
 150              	.LBB4:
  51:../../firmware/RISCV/stubs/write.c ****             }
 151              		.loc 1 51 17 is_stmt 1
 152 0042 3545     		li	a0,13
 153 0044 97000000 		call	_put_char
 153      E7800000 
 154              	.LVL12:
  47:../../firmware/RISCV/stubs/write.c ****             _put_char(current[jj]);
 155              		.loc 1 47 9 is_stmt 0
 156 004c E31624FD 		bne	s0,s2,.L10
 157 0050 CDB7     		j	.L8
 158              	.LBE4:
 159              		.cfi_endproc
 160              	.LFE4:
 162              		.section	.text.puts,"ax",@progbits
 163              		.align	1
 164              		.globl	puts
 166              	puts:
 167              	.LFB5:
  60:../../firmware/RISCV/stubs/write.c ****     return _write(0, (const void *) string, strlen(string));
 168              		.loc 1 60 30 is_stmt 1
 169              		.cfi_startproc
 170              	.LVL13:
  61:../../firmware/RISCV/stubs/write.c **** }
 171              		.loc 1 61 5
  60:../../firmware/RISCV/stubs/write.c ****     return _write(0, (const void *) string, strlen(string));
 172              		.loc 1 60 30 is_stmt 0
 173 0000 4111     		addi	sp,sp,-16
 174              	.LCFI5:
 175              		.cfi_def_cfa_offset 16
 176 0002 22C4     		sw	s0,8(sp)
 177 0004 06C6     		sw	ra,12(sp)
 178              		.cfi_offset 8, -8
 179              		.cfi_offset 1, -4
  60:../../firmware/RISCV/stubs/write.c ****     return _write(0, (const void *) string, strlen(string));
 180              		.loc 1 60 30
 181 0006 2A84     		mv	s0,a0
  61:../../firmware/RISCV/stubs/write.c **** }
 182              		.loc 1 61 12
 183 0008 97000000 		call	strlen
 183      E7800000 
 184              	.LVL14:
 185 0010 A285     		mv	a1,s0
GAS LISTING /tmp/ccM0jYTm.s 			page 6


  62:../../firmware/RISCV/stubs/write.c **** #endif
 186              		.loc 1 62 1
 187 0012 2244     		lw	s0,8(sp)
 188              		.cfi_restore 8
 189              	.LVL15:
 190 0014 B240     		lw	ra,12(sp)
 191              		.cfi_restore 1
  61:../../firmware/RISCV/stubs/write.c **** }
 192              		.loc 1 61 12
 193 0016 2A86     		mv	a2,a0
  62:../../firmware/RISCV/stubs/write.c **** #endif
 194              		.loc 1 62 1
  61:../../firmware/RISCV/stubs/write.c **** }
 195              		.loc 1 61 12
 196 0018 0145     		li	a0,0
  62:../../firmware/RISCV/stubs/write.c **** #endif
 197              		.loc 1 62 1
 198 001a 4101     		addi	sp,sp,16
 199              	.LCFI6:
 200              		.cfi_def_cfa_offset 0
  61:../../firmware/RISCV/stubs/write.c **** }
 201              		.loc 1 61 12
 202 001c 17030000 		tail	_write
 202      67000300 
 203              	.LVL16:
 204              		.cfi_endproc
 205              	.LFE5:
 207              		.text
 208              	.Letext0:
 209              		.file 2 "/home/lintu/Documents/school/IK1332/toolchain-gd32v-linux/compiler/riscv64-unknown-elf/in
 210              		.file 3 "/home/lintu/Documents/school/IK1332/toolchain-gd32v-linux/compiler/riscv64-unknown-elf/in
 211              		.file 4 "/home/lintu/Documents/school/IK1332/toolchain-gd32v-linux/compiler/lib/gcc/riscv64-unknow
 212              		.file 5 "/home/lintu/Documents/school/IK1332/toolchain-gd32v-linux/compiler/riscv64-unknown-elf/in
 213              		.file 6 "/home/lintu/Documents/school/IK1332/toolchain-gd32v-linux/compiler/riscv64-unknown-elf/in
 214              		.file 7 "/home/lintu/Documents/school/IK1332/toolchain-gd32v-linux/compiler/riscv64-unknown-elf/in
 215              		.file 8 "/home/lintu/Documents/school/IK1332/toolchain-gd32v-linux/compiler/riscv64-unknown-elf/in
 216              		.file 9 "../../firmware/GD32VF103_standard_peripheral/system_gd32vf103.h"
 217              		.file 10 "../../firmware/GD32VF103_standard_peripheral/gd32vf103.h"
 218              		.file 11 "../../firmware/GD32VF103_standard_peripheral/Include/gd32vf103_usart.h"
 219              		.file 12 "/home/lintu/Documents/school/IK1332/toolchain-gd32v-linux/compiler/riscv64-unknown-elf/i
 220              		.file 13 "/home/lintu/Documents/school/IK1332/toolchain-gd32v-linux/compiler/riscv64-unknown-elf/i
 221              		.file 14 "/home/lintu/Documents/school/IK1332/toolchain-gd32v-linux/compiler/riscv64-unknown-elf/i
GAS LISTING /tmp/ccM0jYTm.s 			page 7

