GAS LISTING /tmp/ccM0jYTm.s 			page 1


   1              		.file	"write.c"
   2              		.option nopic
   3              		.attribute arch, "rv32i2p0_m2p0_a2p0_c2p0"
   4              		.attribute unaligned_access, 0
   5              		.attribute stack_align, 16
   6              		.text
   7              	.Ltext0:
   8              		.cfi_sections	.debug_frame
   9              		.section	.text._put_char,"ax",@progbits
  10              		.align	1
  11              		.weak	_put_char
  13              	_put_char:
  14              	.LFB6:
  15              		.file 1 "../../firmware/RISCV/stubs/write.c"
   1:../../firmware/RISCV/stubs/write.c **** /* See LICENSE of license details. */
   2:../../firmware/RISCV/stubs/write.c **** 
   3:../../firmware/RISCV/stubs/write.c **** #include <stdint.h>
   4:../../firmware/RISCV/stubs/write.c **** #include <string.h>
   5:../../firmware/RISCV/stubs/write.c **** #include <errno.h>
   6:../../firmware/RISCV/stubs/write.c **** #include <gd32vf103.h>
   7:../../firmware/RISCV/stubs/write.c **** 
   8:../../firmware/RISCV/stubs/write.c **** #if   defined (__GNUC__)
   9:../../firmware/RISCV/stubs/write.c **** #include <unistd.h>
  10:../../firmware/RISCV/stubs/write.c **** #include <sys/types.h>
  11:../../firmware/RISCV/stubs/write.c **** #endif
  12:../../firmware/RISCV/stubs/write.c **** 
  13:../../firmware/RISCV/stubs/write.c **** #include "stub.h"
  14:../../firmware/RISCV/stubs/write.c **** #include "gd32vf103.h"
  15:../../firmware/RISCV/stubs/write.c **** 
  16:../../firmware/RISCV/stubs/write.c **** //typedef unsigned int size_t;
  17:../../firmware/RISCV/stubs/write.c **** extern int _put_char(int ch) __attribute__((weak));
  18:../../firmware/RISCV/stubs/write.c **** 
  19:../../firmware/RISCV/stubs/write.c **** #if   defined (__ICCRISCV__)
  20:../../firmware/RISCV/stubs/write.c **** size_t __write(int handle, const unsigned char *buf, size_t bufSize)
  21:../../firmware/RISCV/stubs/write.c **** {
  22:../../firmware/RISCV/stubs/write.c ****   size_t nChars = 0;
  23:../../firmware/RISCV/stubs/write.c ****   
  24:../../firmware/RISCV/stubs/write.c ****   if (handle == -1)
  25:../../firmware/RISCV/stubs/write.c ****   {
  26:../../firmware/RISCV/stubs/write.c ****     return 0;
  27:../../firmware/RISCV/stubs/write.c ****   }
  28:../../firmware/RISCV/stubs/write.c ****   
  29:../../firmware/RISCV/stubs/write.c ****   for (; bufSize > 0; --bufSize)
  30:../../firmware/RISCV/stubs/write.c ****   {
  31:../../firmware/RISCV/stubs/write.c ****     _put_char((uint8_t) *buf);
  32:../../firmware/RISCV/stubs/write.c ****     ++buf;
  33:../../firmware/RISCV/stubs/write.c ****     ++nChars;
  34:../../firmware/RISCV/stubs/write.c ****   }
  35:../../firmware/RISCV/stubs/write.c ****   
  36:../../firmware/RISCV/stubs/write.c ****   return nChars;
  37:../../firmware/RISCV/stubs/write.c ****  }
  38:../../firmware/RISCV/stubs/write.c **** 
  39:../../firmware/RISCV/stubs/write.c **** int puts(const char* string) {
  40:../../firmware/RISCV/stubs/write.c ****     return __write(0, (const void *) string, strlen(string));
  41:../../firmware/RISCV/stubs/write.c **** }
  42:../../firmware/RISCV/stubs/write.c ****  
  43:../../firmware/RISCV/stubs/write.c **** #elif defined ( __GNUC__ )
GAS LISTING /tmp/ccM0jYTm.s 			page 2


  44:../../firmware/RISCV/stubs/write.c **** ssize_t _write(int fd, const void* ptr, size_t len) {
  45:../../firmware/RISCV/stubs/write.c ****     const uint8_t * current = (const uint8_t *) ptr;
  46:../../firmware/RISCV/stubs/write.c ****     {
  47:../../firmware/RISCV/stubs/write.c ****         for (size_t jj = 0; jj < len; jj++) {
  48:../../firmware/RISCV/stubs/write.c ****             _put_char(current[jj]);
  49:../../firmware/RISCV/stubs/write.c **** 
  50:../../firmware/RISCV/stubs/write.c ****             if (current[jj] == '\n') {
  51:../../firmware/RISCV/stubs/write.c ****                 _put_char('\r');
  52:../../firmware/RISCV/stubs/write.c ****             }
  53:../../firmware/RISCV/stubs/write.c ****         }
  54:../../firmware/RISCV/stubs/write.c ****         return len;
  55:../../firmware/RISCV/stubs/write.c ****     }
  56:../../firmware/RISCV/stubs/write.c **** 
  57:../../firmware/RISCV/stubs/write.c ****     return _stub(EBADF);
  58:../../firmware/RISCV/stubs/write.c **** }
  59:../../firmware/RISCV/stubs/write.c **** 
  60:../../firmware/RISCV/stubs/write.c **** int puts(const char* string) {
  61:../../firmware/RISCV/stubs/write.c ****     return _write(0, (const void *) string, strlen(string));
  62:../../firmware/RISCV/stubs/write.c **** }
  63:../../firmware/RISCV/stubs/write.c **** #endif
  64:../../firmware/RISCV/stubs/write.c **** 
  65:../../firmware/RISCV/stubs/write.c **** int _put_char(int ch)
  66:../../firmware/RISCV/stubs/write.c **** {
  16              		.loc 1 66 1
  17              		.cfi_startproc
  18              	.LVL0:
  67:../../firmware/RISCV/stubs/write.c ****     usart_data_transmit(USART0, (uint8_t) ch );
  19              		.loc 1 67 5
  66:../../firmware/RISCV/stubs/write.c ****     usart_data_transmit(USART0, (uint8_t) ch );
  20              		.loc 1 66 1 is_stmt 0
  21 0000 4111     		addi	sp,sp,-16
  22              	.LCFI0:
  23              		.cfi_def_cfa_offset 16
  24 0002 22C4     		sw	s0,8(sp)
  25              		.cfi_offset 8, -8
  26              		.loc 1 67 5
  27 0004 37440140 		li	s0,1073823744
  66:../../firmware/RISCV/stubs/write.c ****     usart_data_transmit(USART0, (uint8_t) ch );
  28              		.loc 1 66 1
  29 0008 26C2     		sw	s1,4(sp)
  30              		.loc 1 67 5
  31 000a 9375F50F 		andi	a1,a0,0xff
  32              		.cfi_offset 9, -12
  66:../../firmware/RISCV/stubs/write.c ****     usart_data_transmit(USART0, (uint8_t) ch );
  33              		.loc 1 66 1
  34 000e AA84     		mv	s1,a0
  35              		.loc 1 67 5
  36 0010 13050480 		addi	a0,s0,-2048
  37              	.LVL1:
  66:../../firmware/RISCV/stubs/write.c ****     usart_data_transmit(USART0, (uint8_t) ch );
  38              		.loc 1 66 1
  39 0014 06C6     		sw	ra,12(sp)
  40              		.cfi_offset 1, -4
  68:../../firmware/RISCV/stubs/write.c ****     while (usart_flag_get(USART0, USART_FLAG_TBE)== RESET){
  41              		.loc 1 68 12
  42 0016 13040480 		addi	s0,s0,-2048
  67:../../firmware/RISCV/stubs/write.c ****     usart_data_transmit(USART0, (uint8_t) ch );
GAS LISTING /tmp/ccM0jYTm.s 			page 3


  43              		.loc 1 67 5
  44 001a 97000000 		call	usart_data_transmit
  44      E7800000 
  45              	.LVL2:
  46              		.loc 1 68 5 is_stmt 1
  47              	.L2:
  69:../../firmware/RISCV/stubs/write.c ****     }
  48              		.loc 1 69 5 discriminator 1
  68:../../firmware/RISCV/stubs/write.c ****     while (usart_flag_get(USART0, USART_FLAG_TBE)== RESET){
  49              		.loc 1 68 12 is_stmt 0 discriminator 1
  50 0022 9D45     		li	a1,7
  51 0024 2285     		mv	a0,s0
  52 0026 97000000 		call	usart_flag_get
  52      E7800000 
  53              	.LVL3:
  68:../../firmware/RISCV/stubs/write.c ****     while (usart_flag_get(USART0, USART_FLAG_TBE)== RESET){
  54              		.loc 1 68 11 discriminator 1
  55 002e 75D9     		beq	a0,zero,.L2
  70:../../firmware/RISCV/stubs/write.c **** 
  71:../../firmware/RISCV/stubs/write.c ****     return ch;
  56              		.loc 1 71 5 is_stmt 1
  72:../../firmware/RISCV/stubs/write.c **** }
  57              		.loc 1 72 1 is_stmt 0
  58 0030 B240     		lw	ra,12(sp)
  59              		.cfi_restore 1
  60 0032 2244     		lw	s0,8(sp)
  61              		.cfi_restore 8
  62 0034 2685     		mv	a0,s1
  63 0036 9244     		lw	s1,4(sp)
  64              		.cfi_restore 9
  65              	.LVL4:
  66 0038 4101     		addi	sp,sp,16
  67              	.LCFI1:
  68              		.cfi_def_cfa_offset 0
  69 003a 8280     		jr	ra
  70              		.cfi_endproc
  71              	.LFE6:
  73              		.section	.text._write,"ax",@progbits
  74              		.align	1
  75              		.globl	_write
  77              	_write:
  78              	.LFB4:
  44:../../firmware/RISCV/stubs/write.c ****     const uint8_t * current = (const uint8_t *) ptr;
  79              		.loc 1 44 53 is_stmt 1
  80              		.cfi_startproc
  81              	.LVL5:
  45:../../firmware/RISCV/stubs/write.c ****     {
  82              		.loc 1 45 5
  47:../../firmware/RISCV/stubs/write.c ****             _put_char(current[jj]);
  83              		.loc 1 47 9
  84              	.LBB2:
  47:../../firmware/RISCV/stubs/write.c ****             _put_char(current[jj]);
  85              		.loc 1 47 14
  86              	.LBE2:
  44:../../firmware/RISCV/stubs/write.c ****     const uint8_t * current = (const uint8_t *) ptr;
  87              		.loc 1 44 53 is_stmt 0
  88 0000 0111     		addi	sp,sp,-32
GAS LISTING /tmp/ccM0jYTm.s 			page 4


  89              	.LCFI2:
  90              		.cfi_def_cfa_offset 32
  91 0002 4EC6     		sw	s3,12(sp)
  92 0004 06CE     		sw	ra,28(sp)
  93 0006 22CC     		sw	s0,24(sp)
  94 0008 26CA     		sw	s1,20(sp)
  95 000a 4AC8     		sw	s2,16(sp)
  96              		.cfi_offset 19, -20
  97              		.cfi_offset 1, -4
  98              		.cfi_offset 8, -8
  99              		.cfi_offset 9, -12
 100              		.cfi_offset 18, -16
  44:../../firmware/RISCV/stubs/write.c ****     const uint8_t * current = (const uint8_t *) ptr;
 101              		.loc 1 44 53
 102 000c B289     		mv	s3,a2
 103              	.LBB3:
  47:../../firmware/RISCV/stubs/write.c ****             _put_char(current[jj]);
 104              		.loc 1 47 9
 105 000e 15C2     		beq	a2,zero,.L8
 106 0010 2E84     		mv	s0,a1
 107 0012 3389C500 		add	s2,a1,a2
  50:../../firmware/RISCV/stubs/write.c ****                 _put_char('\r');
 108              		.loc 1 50 16
 109 0016 A944     		li	s1,10
 110              	.LVL6:
 111              	.L10:
  48:../../firmware/RISCV/stubs/write.c **** 
 112              		.loc 1 48 13 is_stmt 1
 113 0018 03450400 		lbu	a0,0(s0)
 114 001c 0504     		addi	s0,s0,1
 115              	.LVL7:
 116 001e 97000000 		call	_put_char
 116      E7800000 
 117              	.LVL8:
  50:../../firmware/RISCV/stubs/write.c ****                 _put_char('\r');
 118              		.loc 1 50 13
  50:../../firmware/RISCV/stubs/write.c ****                 _put_char('\r');
 119              		.loc 1 50 16 is_stmt 0
 120 0026 8347F4FF 		lbu	a5,-1(s0)
 121 002a 638C9700 		beq	a5,s1,.L16
 122              	.LVL9:
  47:../../firmware/RISCV/stubs/write.c ****             _put_char(current[jj]);
 123              		.loc 1 47 9 discriminator 2
 124 002e E31524FF 		bne	s0,s2,.L10
 125              	.L8:
 126              	.LBE3:
  54:../../firmware/RISCV/stubs/write.c ****     }
 127              		.loc 1 54 9 is_stmt 1
  58:../../firmware/RISCV/stubs/write.c **** 
 128              		.loc 1 58 1 is_stmt 0
 129 0032 F240     		lw	ra,28(sp)
 130              		.cfi_remember_state
 131              		.cfi_restore 1
 132 0034 6244     		lw	s0,24(sp)
 133              		.cfi_restore 8
 134 0036 4E85     		mv	a0,s3
 135 0038 D244     		lw	s1,20(sp)
GAS LISTING /tmp/ccM0jYTm.s 			page 5


 136              		.cfi_restore 9
 137 003a 4249     		lw	s2,16(sp)
 138              		.cfi_restore 18
 139 003c B249     		lw	s3,12(sp)
 140              		.cfi_restore 19
 141              	.LVL10:
 142 003e 0561     		addi	sp,sp,32
 143              	.LCFI3:
 144              		.cfi_def_cfa_offset 0
 145 0040 8280     		jr	ra
 146              	.LVL11:
 147              	.L16:
 148              	.LCFI4:
 149              		.cfi_restore_state
 150              	.LBB4:
  51:../../firmware/RISCV/stubs/write.c ****             }
 151              		.loc 1 51 17 is_stmt 1
 152 0042 3545     		li	a0,13
 153 0044 97000000 		call	_put_char
 153      E7800000 
 154              	.LVL12:
  47:../../firmware/RISCV/stubs/write.c ****             _put_char(current[jj]);
 155              		.loc 1 47 9 is_stmt 0
 156 004c E31624FD 		bne	s0,s2,.L10
 157 0050 CDB7     		j	.L8
 158              	.LBE4:
 159              		.cfi_endproc
 160              	.LFE4:
 162              		.section	.text.puts,"ax",@progbits
 163              		.align	1
 164              		.globl	puts
 166              	puts:
 167              	.LFB5:
  60:../../firmware/RISCV/stubs/write.c ****     return _write(0, (const void *) string, strlen(string));
 168              		.loc 1 60 30 is_stmt 1
 169              		.cfi_startproc
 170              	.LVL13:
  61:../../firmware/RISCV/stubs/write.c **** }
 171              		.loc 1 61 5
  60:../../firmware/RISCV/stubs/write.c ****     return _write(0, (const void *) string, strlen(string));
 172              		.loc 1 60 30 is_stmt 0
 173 0000 4111     		addi	sp,sp,-16
 174              	.LCFI5:
 175              		.cfi_def_cfa_offset 16
 176 0002 22C4     		sw	s0,8(sp)
 177 0004 06C6     		sw	ra,12(sp)
 178              		.cfi_offset 8, -8
 179              		.cfi_offset 1, -4
  60:../../firmware/RISCV/stubs/write.c ****     return _write(0, (const void *) string, strlen(string));
 180              		.loc 1 60 30
 181 0006 2A84     		mv	s0,a0
  61:../../firmware/RISCV/stubs/write.c **** }
 182              		.loc 1 61 12
 183 0008 97000000 		call	strlen
 183      E7800000 
 184              	.LVL14:
 185 0010 A285     		mv	a1,s0
GAS LISTING /tmp/ccM0jYTm.s 			page 6


  62:../../firmware/RISCV/stubs/write.c **** #endif
 186              		.loc 1 62 1
 187 0012 2244     		lw	s0,8(sp)
 188              		.cfi_restore 8
 189              	.LVL15:
 190 0014 B240     		lw	ra,12(sp)
 191              		.cfi_restore 1
  61:../../firmware/RISCV/stubs/write.c **** }
 192              		.loc 1 61 12
 193 0016 2A86     		mv	a2,a0
  62:../../firmware/RISCV/stubs/write.c **** #endif
 194              		.loc 1 62 1
  61:../../firmware/RISCV/stubs/write.c **** }
 195              		.loc 1 61 12
 196 0018 0145     		li	a0,0
  62:../../firmware/RISCV/stubs/write.c **** #endif
 197              		.loc 1 62 1
 198 001a 4101     		addi	sp,sp,16
 199              	.LCFI6:
 200              		.cfi_def_cfa_offset 0
  61:../../firmware/RISCV/stubs/write.c **** }
 201              		.loc 1 61 12
 202 001c 17030000 		tail	_write
 202      67000300 
 203              	.LVL16:
 204              		.cfi_endproc
 205              	.LFE5:
 207              		.text
 208              	.Letext0:
 209              		.file 2 "/home/lintu/Documents/school/IK1332/toolchain-gd32v-linux/compiler/riscv64-unknown-elf/in
 210              		.file 3 "/home/lintu/Documents/school/IK1332/toolchain-gd32v-linux/compiler/riscv64-unknown-elf/in
 211              		.file 4 "/home/lintu/Documents/school/IK1332/toolchain-gd32v-linux/compiler/lib/gcc/riscv64-unknow
 212              		.file 5 "/home/lintu/Documents/school/IK1332/toolchain-gd32v-linux/compiler/riscv64-unknown-elf/in
 213              		.file 6 "/home/lintu/Documents/school/IK1332/toolchain-gd32v-linux/compiler/riscv64-unknown-elf/in
 214              		.file 7 "/home/lintu/Documents/school/IK1332/toolchain-gd32v-linux/compiler/riscv64-unknown-elf/in
 215              		.file 8 "/home/lintu/Documents/school/IK1332/toolchain-gd32v-linux/compiler/riscv64-unknown-elf/in
 216              		.file 9 "../../firmware/GD32VF103_standard_peripheral/system_gd32vf103.h"
 217              		.file 10 "../../firmware/GD32VF103_standard_peripheral/gd32vf103.h"
 218              		.file 11 "../../firmware/GD32VF103_standard_peripheral/Include/gd32vf103_usart.h"
 219              		.file 12 "/home/lintu/Documents/school/IK1332/toolchain-gd32v-linux/compiler/riscv64-unknown-elf/i
 220              		.file 13 "/home/lintu/Documents/school/IK1332/toolchain-gd32v-linux/compiler/riscv64-unknown-elf/i
 221              		.file 14 "/home/lintu/Documents/school/IK1332/toolchain-gd32v-linux/compiler/riscv64-unknown-elf/i
GAS LISTING /tmp/ccM0jYTm.s 			page 7


DEFINED SYMBOLS
                            *ABS*:0000000000000000 write.c
     /tmp/ccM0jYTm.s:13     .text._put_char:0000000000000000 _put_char
     /tmp/ccM0jYTm.s:17     .text._put_char:0000000000000000 .L0 
     /tmp/ccM0jYTm.s:19     .text._put_char:0000000000000000 .L0 
     /tmp/ccM0jYTm.s:20     .text._put_char:0000000000000000 .L0 
     /tmp/ccM0jYTm.s:21     .text._put_char:0000000000000000 .L0 
     /tmp/ccM0jYTm.s:23     .text._put_char:0000000000000002 .L0 
     /tmp/ccM0jYTm.s:25     .text._put_char:0000000000000004 .L0 
     /tmp/ccM0jYTm.s:27     .text._put_char:0000000000000004 .L0 
     /tmp/ccM0jYTm.s:29     .text._put_char:0000000000000008 .L0 
     /tmp/ccM0jYTm.s:31     .text._put_char:000000000000000a .L0 
     /tmp/ccM0jYTm.s:32     .text._put_char:000000000000000e .L0 
     /tmp/ccM0jYTm.s:34     .text._put_char:000000000000000e .L0 
     /tmp/ccM0jYTm.s:36     .text._put_char:0000000000000010 .L0 
     /tmp/ccM0jYTm.s:39     .text._put_char:0000000000000014 .L0 
     /tmp/ccM0jYTm.s:40     .text._put_char:0000000000000016 .L0 
     /tmp/ccM0jYTm.s:42     .text._put_char:0000000000000016 .L0 
     /tmp/ccM0jYTm.s:44     .text._put_char:000000000000001a .L0 
     /tmp/ccM0jYTm.s:48     .text._put_char:0000000000000022 .L0 
     /tmp/ccM0jYTm.s:49     .text._put_char:0000000000000022 .L0 
     /tmp/ccM0jYTm.s:50     .text._put_char:0000000000000022 .L0 
     /tmp/ccM0jYTm.s:55     .text._put_char:000000000000002e .L0 
     /tmp/ccM0jYTm.s:57     .text._put_char:0000000000000030 .L0 
     /tmp/ccM0jYTm.s:58     .text._put_char:0000000000000030 .L0 
     /tmp/ccM0jYTm.s:59     .text._put_char:0000000000000032 .L0 
     /tmp/ccM0jYTm.s:61     .text._put_char:0000000000000034 .L0 
     /tmp/ccM0jYTm.s:64     .text._put_char:0000000000000038 .L0 
     /tmp/ccM0jYTm.s:68     .text._put_char:000000000000003a .L0 
     /tmp/ccM0jYTm.s:70     .text._put_char:000000000000003c .L0 
     /tmp/ccM0jYTm.s:77     .text._write:0000000000000000 _write
     /tmp/ccM0jYTm.s:80     .text._write:0000000000000000 .L0 
     /tmp/ccM0jYTm.s:82     .text._write:0000000000000000 .L0 
     /tmp/ccM0jYTm.s:83     .text._write:0000000000000000 .L0 
     /tmp/ccM0jYTm.s:85     .text._write:0000000000000000 .L0 
     /tmp/ccM0jYTm.s:87     .text._write:0000000000000000 .L0 
     /tmp/ccM0jYTm.s:88     .text._write:0000000000000000 .L0 
     /tmp/ccM0jYTm.s:90     .text._write:0000000000000002 .L0 
     /tmp/ccM0jYTm.s:96     .text._write:000000000000000c .L0 
     /tmp/ccM0jYTm.s:97     .text._write:000000000000000c .L0 
     /tmp/ccM0jYTm.s:98     .text._write:000000000000000c .L0 
     /tmp/ccM0jYTm.s:99     .text._write:000000000000000c .L0 
     /tmp/ccM0jYTm.s:100    .text._write:000000000000000c .L0 
     /tmp/ccM0jYTm.s:102    .text._write:000000000000000c .L0 
     /tmp/ccM0jYTm.s:105    .text._write:000000000000000e .L0 
     /tmp/ccM0jYTm.s:109    .text._write:0000000000000016 .L0 
     /tmp/ccM0jYTm.s:113    .text._write:0000000000000018 .L0 
     /tmp/ccM0jYTm.s:119    .text._write:0000000000000026 .L0 
     /tmp/ccM0jYTm.s:120    .text._write:0000000000000026 .L0 
     /tmp/ccM0jYTm.s:124    .text._write:000000000000002e .L0 
     /tmp/ccM0jYTm.s:128    .text._write:0000000000000032 .L0 
     /tmp/ccM0jYTm.s:129    .text._write:0000000000000032 .L0 
     /tmp/ccM0jYTm.s:130    .text._write:0000000000000034 .L0 
     /tmp/ccM0jYTm.s:131    .text._write:0000000000000034 .L0 
     /tmp/ccM0jYTm.s:133    .text._write:0000000000000036 .L0 
     /tmp/ccM0jYTm.s:136    .text._write:000000000000003a .L0 
     /tmp/ccM0jYTm.s:138    .text._write:000000000000003c .L0 
GAS LISTING /tmp/ccM0jYTm.s 			page 8


     /tmp/ccM0jYTm.s:140    .text._write:000000000000003e .L0 
     /tmp/ccM0jYTm.s:144    .text._write:0000000000000040 .L0 
     /tmp/ccM0jYTm.s:149    .text._write:0000000000000042 .L0 
     /tmp/ccM0jYTm.s:152    .text._write:0000000000000042 .L0 
     /tmp/ccM0jYTm.s:156    .text._write:000000000000004c .L0 
     /tmp/ccM0jYTm.s:159    .text._write:0000000000000052 .L0 
     /tmp/ccM0jYTm.s:166    .text.puts:0000000000000000 puts
     /tmp/ccM0jYTm.s:169    .text.puts:0000000000000000 .L0 
     /tmp/ccM0jYTm.s:171    .text.puts:0000000000000000 .L0 
     /tmp/ccM0jYTm.s:172    .text.puts:0000000000000000 .L0 
     /tmp/ccM0jYTm.s:173    .text.puts:0000000000000000 .L0 
     /tmp/ccM0jYTm.s:175    .text.puts:0000000000000002 .L0 
     /tmp/ccM0jYTm.s:178    .text.puts:0000000000000006 .L0 
     /tmp/ccM0jYTm.s:179    .text.puts:0000000000000006 .L0 
     /tmp/ccM0jYTm.s:181    .text.puts:0000000000000006 .L0 
     /tmp/ccM0jYTm.s:183    .text.puts:0000000000000008 .L0 
     /tmp/ccM0jYTm.s:187    .text.puts:0000000000000012 .L0 
     /tmp/ccM0jYTm.s:188    .text.puts:0000000000000014 .L0 
     /tmp/ccM0jYTm.s:191    .text.puts:0000000000000016 .L0 
     /tmp/ccM0jYTm.s:193    .text.puts:0000000000000016 .L0 
     /tmp/ccM0jYTm.s:195    .text.puts:0000000000000018 .L0 
     /tmp/ccM0jYTm.s:196    .text.puts:0000000000000018 .L0 
     /tmp/ccM0jYTm.s:198    .text.puts:000000000000001a .L0 
     /tmp/ccM0jYTm.s:200    .text.puts:000000000000001c .L0 
     /tmp/ccM0jYTm.s:202    .text.puts:000000000000001c .L0 
     /tmp/ccM0jYTm.s:204    .text.puts:0000000000000024 .L0 
     /tmp/ccM0jYTm.s:73     .text._put_char:000000000000003c .L0 
     /tmp/ccM0jYTm.s:162    .text._write:0000000000000052 .L0 
     /tmp/ccM0jYTm.s:207    .text.puts:0000000000000024 .L0 
                     .debug_frame:0000000000000000 .L0 
     /tmp/ccM0jYTm.s:47     .text._put_char:0000000000000022 .L2
     /tmp/ccM0jYTm.s:125    .text._write:0000000000000032 .L8
     /tmp/ccM0jYTm.s:147    .text._write:0000000000000042 .L16
     /tmp/ccM0jYTm.s:111    .text._write:0000000000000018 .L10
     /tmp/ccM0jYTm.s:1987   .debug_abbrev:0000000000000000 .Ldebug_abbrev0
     /tmp/ccM0jYTm.s:3027   .debug_str:0000000000000352 .LASF153
     /tmp/ccM0jYTm.s:3143   .debug_str:0000000000000604 .LASF154
     /tmp/ccM0jYTm.s:2891   .debug_str:0000000000000080 .LASF155
     /tmp/ccM0jYTm.s:2847   .debug_ranges:0000000000000000 .Ldebug_ranges0
     /tmp/ccM0jYTm.s:2865   .debug_line:0000000000000000 .Ldebug_line0
     /tmp/ccM0jYTm.s:2913   .debug_str:0000000000000139 .LASF0
     /tmp/ccM0jYTm.s:2881   .debug_str:0000000000000045 .LASF5
     /tmp/ccM0jYTm.s:3051   .debug_str:000000000000043e .LASF1
     /tmp/ccM0jYTm.s:3119   .debug_str:0000000000000586 .LASF2
     /tmp/ccM0jYTm.s:3131   .debug_str:00000000000005bb .LASF3
     /tmp/ccM0jYTm.s:2929   .debug_str:000000000000018f .LASF4
     /tmp/ccM0jYTm.s:2953   .debug_str:0000000000000207 .LASF6
     /tmp/ccM0jYTm.s:2977   .debug_str:000000000000026f .LASF7
     /tmp/ccM0jYTm.s:2939   .debug_str:00000000000001b8 .LASF8
     /tmp/ccM0jYTm.s:2917   .debug_str:000000000000014b .LASF9
     /tmp/ccM0jYTm.s:3117   .debug_str:0000000000000579 .LASF10
     /tmp/ccM0jYTm.s:3121   .debug_str:0000000000000590 .LASF11
     /tmp/ccM0jYTm.s:3141   .debug_str:00000000000005fb .LASF12
     /tmp/ccM0jYTm.s:2873   .debug_str:0000000000000024 .LASF13
     /tmp/ccM0jYTm.s:3107   .debug_str:000000000000054d .LASF14
     /tmp/ccM0jYTm.s:3037   .debug_str:00000000000003f7 .LASF15
     /tmp/ccM0jYTm.s:2909   .debug_str:000000000000012b .LASF16
GAS LISTING /tmp/ccM0jYTm.s 			page 9


     /tmp/ccM0jYTm.s:3105   .debug_str:0000000000000545 .LASF17
     /tmp/ccM0jYTm.s:3153   .debug_str:000000000000064e .LASF18
     /tmp/ccM0jYTm.s:2997   .debug_str:00000000000002d6 .LASF19
     /tmp/ccM0jYTm.s:2969   .debug_str:0000000000000248 .LASF20
     /tmp/ccM0jYTm.s:3097   .debug_str:0000000000000525 .LASF21
     /tmp/ccM0jYTm.s:3099   .debug_str:000000000000052d .LASF22
     /tmp/ccM0jYTm.s:3069   .debug_str:0000000000000494 .LASF23
     /tmp/ccM0jYTm.s:3135   .debug_str:00000000000005d3 .LASF24
     /tmp/ccM0jYTm.s:3043   .debug_str:0000000000000410 .LASF25
     /tmp/ccM0jYTm.s:3057   .debug_str:000000000000045b .LASF26
     /tmp/ccM0jYTm.s:2961   .debug_str:000000000000022c .LASF31
     /tmp/ccM0jYTm.s:3125   .debug_str:000000000000059f .LASF27
     /tmp/ccM0jYTm.s:3091   .debug_str:0000000000000510 .LASF28
     /tmp/ccM0jYTm.s:2955   .debug_str:0000000000000212 .LASF29
     /tmp/ccM0jYTm.s:3149   .debug_str:0000000000000643 .LASF30
     /tmp/ccM0jYTm.s:2967   .debug_str:0000000000000243 .LASF32
     /tmp/ccM0jYTm.s:2907   .debug_str:0000000000000122 .LASF33
     /tmp/ccM0jYTm.s:3167   .debug_str:0000000000000693 .LASF34
     /tmp/ccM0jYTm.s:2919   .debug_str:0000000000000162 .LASF35
     /tmp/ccM0jYTm.s:3179   .debug_str:00000000000006cb .LASF36
     /tmp/ccM0jYTm.s:3029   .debug_str:00000000000003cc .LASF37
     /tmp/ccM0jYTm.s:3013   .debug_str:0000000000000314 .LASF38
     /tmp/ccM0jYTm.s:3103   .debug_str:000000000000053b .LASF39
     /tmp/ccM0jYTm.s:3059   .debug_str:0000000000000464 .LASF40
     /tmp/ccM0jYTm.s:3163   .debug_str:0000000000000679 .LASF41
     /tmp/ccM0jYTm.s:2923   .debug_str:0000000000000171 .LASF42
     /tmp/ccM0jYTm.s:2871   .debug_str:000000000000001c .LASF43
     /tmp/ccM0jYTm.s:2867   .debug_str:0000000000000000 .LASF44
     /tmp/ccM0jYTm.s:3129   .debug_str:00000000000005b2 .LASF45
     /tmp/ccM0jYTm.s:2933   .debug_str:000000000000019f .LASF46
     /tmp/ccM0jYTm.s:3031   .debug_str:00000000000003d5 .LASF47
     /tmp/ccM0jYTm.s:3083   .debug_str:00000000000004e0 .LASF48
     /tmp/ccM0jYTm.s:2951   .debug_str:0000000000000202 .LASF49
     /tmp/ccM0jYTm.s:3061   .debug_str:000000000000046e .LASF50
     /tmp/ccM0jYTm.s:3047   .debug_str:0000000000000428 .LASF51
     /tmp/ccM0jYTm.s:3115   .debug_str:0000000000000573 .LASF52
     /tmp/ccM0jYTm.s:3071   .debug_str:000000000000049f .LASF53
     /tmp/ccM0jYTm.s:2931   .debug_str:0000000000000198 .LASF54
     /tmp/ccM0jYTm.s:2979   .debug_str:0000000000000281 .LASF55
     /tmp/ccM0jYTm.s:2897   .debug_str:00000000000000e2 .LASF56
     /tmp/ccM0jYTm.s:2925   .debug_str:000000000000017f .LASF57
     /tmp/ccM0jYTm.s:2965   .debug_str:000000000000023d .LASF58
     /tmp/ccM0jYTm.s:3011   .debug_str:000000000000030d .LASF59
     /tmp/ccM0jYTm.s:3101   .debug_str:0000000000000535 .LASF60
     /tmp/ccM0jYTm.s:2911   .debug_str:0000000000000132 .LASF61
     /tmp/ccM0jYTm.s:2915   .debug_str:0000000000000145 .LASF62
     /tmp/ccM0jYTm.s:3159   .debug_str:000000000000066b .LASF63
     /tmp/ccM0jYTm.s:2963   .debug_str:0000000000000234 .LASF64
     /tmp/ccM0jYTm.s:2945   .debug_str:00000000000001db .LASF65
     /tmp/ccM0jYTm.s:2981   .debug_str:0000000000000287 .LASF66
     /tmp/ccM0jYTm.s:3005   .debug_str:00000000000002f8 .LASF67
     /tmp/ccM0jYTm.s:3075   .debug_str:00000000000004b1 .LASF68
     /tmp/ccM0jYTm.s:3063   .debug_str:0000000000000475 .LASF69
     /tmp/ccM0jYTm.s:3093   .debug_str:0000000000000518 .LASF70
     /tmp/ccM0jYTm.s:3109   .debug_str:0000000000000559 .LASF71
     /tmp/ccM0jYTm.s:2935   .debug_str:00000000000001a7 .LASF72
     /tmp/ccM0jYTm.s:2973   .debug_str:000000000000025f .LASF73
GAS LISTING /tmp/ccM0jYTm.s 			page 10


     /tmp/ccM0jYTm.s:2959   .debug_str:0000000000000224 .LASF74
     /tmp/ccM0jYTm.s:3081   .debug_str:00000000000004db .LASF75
     /tmp/ccM0jYTm.s:2877   .debug_str:0000000000000033 .LASF76
     /tmp/ccM0jYTm.s:3089   .debug_str:00000000000004f7 .LASF77
     /tmp/ccM0jYTm.s:3085   .debug_str:00000000000004e5 .LASF78
     /tmp/ccM0jYTm.s:3033   .debug_str:00000000000003dd .LASF79
     /tmp/ccM0jYTm.s:3087   .debug_str:00000000000004ed .LASF80
     /tmp/ccM0jYTm.s:2995   .debug_str:00000000000002ce .LASF81
     /tmp/ccM0jYTm.s:2937   .debug_str:00000000000001ae .LASF82
     /tmp/ccM0jYTm.s:3175   .debug_str:00000000000006b6 .LASF83
     /tmp/ccM0jYTm.s:3041   .debug_str:0000000000000406 .LASF84
     /tmp/ccM0jYTm.s:2975   .debug_str:0000000000000267 .LASF85
     /tmp/ccM0jYTm.s:2943   .debug_str:00000000000001d3 .LASF86
     /tmp/ccM0jYTm.s:3001   .debug_str:00000000000002e4 .LASF87
     /tmp/ccM0jYTm.s:2885   .debug_str:0000000000000057 .LASF88
     /tmp/ccM0jYTm.s:3157   .debug_str:0000000000000661 .LASF89
     /tmp/ccM0jYTm.s:2927   .debug_str:0000000000000187 .LASF90
     /tmp/ccM0jYTm.s:2921   .debug_str:000000000000016c .LASF91
     /tmp/ccM0jYTm.s:3111   .debug_str:0000000000000560 .LASF92
     /tmp/ccM0jYTm.s:3067   .debug_str:000000000000048d .LASF93
     /tmp/ccM0jYTm.s:3151   .debug_str:0000000000000648 .LASF94
     /tmp/ccM0jYTm.s:2983   .debug_str:000000000000028d .LASF95
     /tmp/ccM0jYTm.s:3053   .debug_str:000000000000044c .LASF96
     /tmp/ccM0jYTm.s:2875   .debug_str:000000000000002b .LASF97
     /tmp/ccM0jYTm.s:3095   .debug_str:000000000000051f .LASF98
     /tmp/ccM0jYTm.s:3007   .debug_str:00000000000002fe .LASF99
     /tmp/ccM0jYTm.s:3133   .debug_str:00000000000005ce .LASF100
     /tmp/ccM0jYTm.s:3145   .debug_str:0000000000000627 .LASF101
     /tmp/ccM0jYTm.s:3127   .debug_str:00000000000005a5 .LASF102
     /tmp/ccM0jYTm.s:2989   .debug_str:00000000000002ab .LASF103
     /tmp/ccM0jYTm.s:3165   .debug_str:0000000000000684 .LASF104
     /tmp/ccM0jYTm.s:3035   .debug_str:00000000000003e8 .LASF105
     /tmp/ccM0jYTm.s:2985   .debug_str:0000000000000294 .LASF106
     /tmp/ccM0jYTm.s:3169   .debug_str:000000000000069c .LASF107
     /tmp/ccM0jYTm.s:3079   .debug_str:00000000000004ce .LASF108
     /tmp/ccM0jYTm.s:3173   .debug_str:00000000000006a8 .LASF109
     /tmp/ccM0jYTm.s:2905   .debug_str:0000000000000114 .LASF110
     /tmp/ccM0jYTm.s:3155   .debug_str:0000000000000657 .LASF111
     /tmp/ccM0jYTm.s:2987   .debug_str:000000000000029f .LASF112
     /tmp/ccM0jYTm.s:3137   .debug_str:00000000000005db .LASF113
     /tmp/ccM0jYTm.s:2949   .debug_str:00000000000001f4 .LASF114
     /tmp/ccM0jYTm.s:2903   .debug_str:0000000000000105 .LASF115
     /tmp/ccM0jYTm.s:2947   .debug_str:00000000000001e3 .LASF116
     /tmp/ccM0jYTm.s:2887   .debug_str:0000000000000060 .LASF117
     /tmp/ccM0jYTm.s:2889   .debug_str:000000000000006f .LASF118
     /tmp/ccM0jYTm.s:3055   .debug_str:0000000000000452 .LASF119
     /tmp/ccM0jYTm.s:3025   .debug_str:000000000000034b .LASF120
     /tmp/ccM0jYTm.s:3017   .debug_str:0000000000000323 .LASF121
     /tmp/ccM0jYTm.s:3161   .debug_str:0000000000000671 .LASF122
     /tmp/ccM0jYTm.s:2899   .debug_str:00000000000000eb .LASF156
     /tmp/ccM0jYTm.s:2957   .debug_str:0000000000000218 .LASF123
     /tmp/ccM0jYTm.s:3139   .debug_str:00000000000005e8 .LASF124
     /tmp/ccM0jYTm.s:2941   .debug_str:00000000000001c6 .LASF125
     /tmp/ccM0jYTm.s:3073   .debug_str:00000000000004a7 .LASF126
     /tmp/ccM0jYTm.s:2971   .debug_str:000000000000024f .LASF127
     /tmp/ccM0jYTm.s:3045   .debug_str:0000000000000422 .LASF128
     /tmp/ccM0jYTm.s:2901   .debug_str:00000000000000f6 .LASF129
GAS LISTING /tmp/ccM0jYTm.s 			page 11


     /tmp/ccM0jYTm.s:3147   .debug_str:0000000000000634 .LASF130
     /tmp/ccM0jYTm.s:3003   .debug_str:00000000000002e9 .LASF131
     /tmp/ccM0jYTm.s:3113   .debug_str:0000000000000565 .LASF132
     /tmp/ccM0jYTm.s:3049   .debug_str:000000000000042e .LASF133
     /tmp/ccM0jYTm.s:2869   .debug_str:000000000000000c .LASF134
     /tmp/ccM0jYTm.s:3021   .debug_str:0000000000000333 .LASF135
     /tmp/ccM0jYTm.s:2895   .debug_str:00000000000000d2 .LASF136
     /tmp/ccM0jYTm.s:3177   .debug_str:00000000000006bb .LASF137
     /tmp/ccM0jYTm.s:3065   .debug_str:000000000000047d .LASF138
     /tmp/ccM0jYTm.s:2883   .debug_str:000000000000004f .LASF139
     /tmp/ccM0jYTm.s:2999   .debug_str:00000000000002dc .LASF140
     /tmp/ccM0jYTm.s:3019   .debug_str:000000000000032c .LASF141
     /tmp/ccM0jYTm.s:3023   .debug_str:0000000000000344 .LASF142
     /tmp/ccM0jYTm.s:3123   .debug_str:0000000000000598 .LASF143
     /tmp/ccM0jYTm.s:3171   .debug_str:00000000000006a1 .LASF144
     /tmp/ccM0jYTm.s:3009   .debug_str:0000000000000304 .LASF145
     /tmp/ccM0jYTm.s:2893   .debug_str:00000000000000c8 .LASF146
     /tmp/ccM0jYTm.s:14     .text._put_char:0000000000000000 .LFB6
     /tmp/ccM0jYTm.s:71     .text._put_char:000000000000003c .LFE6
     /tmp/ccM0jYTm.s:2633   .debug_loc:0000000000000000 .LLST0
     /tmp/ccM0jYTm.s:2651   .debug_loc:000000000000002c .LLST1
     /tmp/ccM0jYTm.s:45     .text._put_char:0000000000000022 .LVL2
     /tmp/ccM0jYTm.s:53     .text._put_char:000000000000002e .LVL3
     /tmp/ccM0jYTm.s:3015   .debug_str:000000000000031e .LASF147
     /tmp/ccM0jYTm.s:167    .text.puts:0000000000000000 .LFB5
     /tmp/ccM0jYTm.s:205    .text.puts:0000000000000024 .LFE5
     /tmp/ccM0jYTm.s:2666   .debug_loc:0000000000000055 .LLST8
     /tmp/ccM0jYTm.s:2879   .debug_str:000000000000003e .LASF148
     /tmp/ccM0jYTm.s:2684   .debug_loc:0000000000000081 .LLST9
     /tmp/ccM0jYTm.s:184    .text.puts:0000000000000010 .LVL14
     /tmp/ccM0jYTm.s:203    .text.puts:0000000000000024 .LVL16
     /tmp/ccM0jYTm.s:78     .text._write:0000000000000000 .LFB4
     /tmp/ccM0jYTm.s:160    .text._write:0000000000000052 .LFE4
     /tmp/ccM0jYTm.s:2706   .debug_loc:00000000000000b8 .LLST2
     /tmp/ccM0jYTm.s:2729   .debug_loc:00000000000000f0 .LLST3
     /tmp/ccM0jYTm.s:2743   .debug_loc:0000000000000111 .LLST4
     /tmp/ccM0jYTm.s:2757   .debug_loc:0000000000000132 .LLST5
     /tmp/ccM0jYTm.s:3039   .debug_str:00000000000003fe .LASF149
     /tmp/ccM0jYTm.s:2776   .debug_loc:0000000000000166 .LLST6
     /tmp/ccM0jYTm.s:2790   .debug_loc:0000000000000187 .LLST7
     /tmp/ccM0jYTm.s:117    .text._write:0000000000000026 .LVL8
     /tmp/ccM0jYTm.s:154    .text._write:000000000000004c .LVL12
     /tmp/ccM0jYTm.s:3077   .debug_str:00000000000004ba .LASF150
     /tmp/ccM0jYTm.s:2993   .debug_str:00000000000002bf .LASF151
     /tmp/ccM0jYTm.s:2991   .debug_str:00000000000002b8 .LASF152
     /tmp/ccM0jYTm.s:22     .text._put_char:0000000000000002 .LCFI0
     /tmp/ccM0jYTm.s:67     .text._put_char:000000000000003a .LCFI1
     /tmp/ccM0jYTm.s:18     .text._put_char:0000000000000000 .LVL0
     /tmp/ccM0jYTm.s:37     .text._put_char:0000000000000014 .LVL1
     /tmp/ccM0jYTm.s:65     .text._put_char:0000000000000038 .LVL4
     /tmp/ccM0jYTm.s:174    .text.puts:0000000000000002 .LCFI5
     /tmp/ccM0jYTm.s:199    .text.puts:000000000000001c .LCFI6
     /tmp/ccM0jYTm.s:170    .text.puts:0000000000000000 .LVL13
     /tmp/ccM0jYTm.s:189    .text.puts:0000000000000014 .LVL15
     /tmp/ccM0jYTm.s:89     .text._write:0000000000000002 .LCFI2
     /tmp/ccM0jYTm.s:143    .text._write:0000000000000040 .LCFI3
     /tmp/ccM0jYTm.s:148    .text._write:0000000000000042 .LCFI4
GAS LISTING /tmp/ccM0jYTm.s 			page 12


     /tmp/ccM0jYTm.s:81     .text._write:0000000000000000 .LVL5
     /tmp/ccM0jYTm.s:110    .text._write:0000000000000018 .LVL6
     /tmp/ccM0jYTm.s:141    .text._write:000000000000003e .LVL10
     /tmp/ccM0jYTm.s:146    .text._write:0000000000000042 .LVL11
     /tmp/ccM0jYTm.s:115    .text._write:000000000000001e .LVL7
     /tmp/ccM0jYTm.s:122    .text._write:000000000000002e .LVL9
     /tmp/ccM0jYTm.s:223    .debug_info:0000000000000000 .Ldebug_info0
     /tmp/ccM0jYTm.s:84     .text._write:0000000000000000 .LBB2
     /tmp/ccM0jYTm.s:86     .text._write:0000000000000000 .LBE2
     /tmp/ccM0jYTm.s:103    .text._write:000000000000000e .LBB3
     /tmp/ccM0jYTm.s:126    .text._write:0000000000000032 .LBE3
     /tmp/ccM0jYTm.s:150    .text._write:0000000000000042 .LBB4
     /tmp/ccM0jYTm.s:158    .text._write:0000000000000052 .LBE4

UNDEFINED SYMBOLS
usart_data_transmit
usart_flag_get
strlen
